
OV7670_FATFS.elf:     file format elf32-avr

Sections:
Idx Name          Size      VMA       LMA       File off  Algn
  0 .data         0000017c  00800100  00006fc6  0000705a  2**0
                  CONTENTS, ALLOC, LOAD, DATA
  1 .text         00006fc6  00000000  00000000  00000094  2**1
                  CONTENTS, ALLOC, LOAD, READONLY, CODE
  2 .bss          00000b0c  0080027c  0080027c  000071d6  2**0
                  ALLOC
  3 .stab         00000948  00000000  00000000  000071d8  2**2
                  CONTENTS, READONLY, DEBUGGING
  4 .stabstr      0000020f  00000000  00000000  00007b20  2**0
                  CONTENTS, READONLY, DEBUGGING
  5 .debug_aranges 000000e0  00000000  00000000  00007d30  2**3
                  CONTENTS, READONLY, DEBUGGING
  6 .debug_info   000005aa  00000000  00000000  00007e10  2**0
                  CONTENTS, READONLY, DEBUGGING
  7 .debug_abbrev 0000008c  00000000  00000000  000083ba  2**0
                  CONTENTS, READONLY, DEBUGGING
  8 .debug_line   000004e2  00000000  00000000  00008446  2**0
                  CONTENTS, READONLY, DEBUGGING

Disassembly of section .text:

00000000 <__vectors>:
       0:	0c 94 c2 04 	jmp	0x984	; 0x984 <__ctors_end>
       4:	0c 94 65 28 	jmp	0x50ca	; 0x50ca <__vector_1>
       8:	0c 94 df 04 	jmp	0x9be	; 0x9be <__bad_interrupt>
       c:	0c 94 df 04 	jmp	0x9be	; 0x9be <__bad_interrupt>
      10:	0c 94 df 04 	jmp	0x9be	; 0x9be <__bad_interrupt>
      14:	0c 94 df 04 	jmp	0x9be	; 0x9be <__bad_interrupt>
      18:	0c 94 df 04 	jmp	0x9be	; 0x9be <__bad_interrupt>
      1c:	0c 94 df 04 	jmp	0x9be	; 0x9be <__bad_interrupt>
      20:	0c 94 df 04 	jmp	0x9be	; 0x9be <__bad_interrupt>
      24:	0c 94 df 04 	jmp	0x9be	; 0x9be <__bad_interrupt>
      28:	0c 94 df 04 	jmp	0x9be	; 0x9be <__bad_interrupt>
      2c:	0c 94 df 04 	jmp	0x9be	; 0x9be <__bad_interrupt>
      30:	0c 94 df 04 	jmp	0x9be	; 0x9be <__bad_interrupt>
      34:	0c 94 df 04 	jmp	0x9be	; 0x9be <__bad_interrupt>
      38:	0c 94 df 04 	jmp	0x9be	; 0x9be <__bad_interrupt>
      3c:	0c 94 df 04 	jmp	0x9be	; 0x9be <__bad_interrupt>
      40:	0c 94 2e 28 	jmp	0x505c	; 0x505c <__vector_16>
      44:	0c 94 df 04 	jmp	0x9be	; 0x9be <__bad_interrupt>
      48:	0c 94 df 04 	jmp	0x9be	; 0x9be <__bad_interrupt>
      4c:	0c 94 df 04 	jmp	0x9be	; 0x9be <__bad_interrupt>
      50:	0c 94 df 04 	jmp	0x9be	; 0x9be <__bad_interrupt>
      54:	0c 94 df 04 	jmp	0x9be	; 0x9be <__bad_interrupt>
      58:	0c 94 df 04 	jmp	0x9be	; 0x9be <__bad_interrupt>
      5c:	0c 94 df 04 	jmp	0x9be	; 0x9be <__bad_interrupt>
      60:	0c 94 df 04 	jmp	0x9be	; 0x9be <__bad_interrupt>
      64:	0c 94 df 04 	jmp	0x9be	; 0x9be <__bad_interrupt>
      68:	0c 94 8a 2a 	jmp	0x5514	; 0x5514 <__vector_26>
      6c:	0c 94 df 04 	jmp	0x9be	; 0x9be <__bad_interrupt>
      70:	0c 94 df 04 	jmp	0x9be	; 0x9be <__bad_interrupt>
      74:	0c 94 df 04 	jmp	0x9be	; 0x9be <__bad_interrupt>
      78:	0c 94 df 04 	jmp	0x9be	; 0x9be <__bad_interrupt>
      7c:	57 30       	cpi	r21, 0x07	; 7
      7e:	f4 2c       	mov	r15, r4
      80:	f4 2c       	mov	r15, r4
      82:	f4 2c       	mov	r15, r4
      84:	f4 2c       	mov	r15, r4
      86:	f4 2c       	mov	r15, r4
      88:	f4 2c       	mov	r15, r4
      8a:	f4 2c       	mov	r15, r4
      8c:	f4 2c       	mov	r15, r4
      8e:	f4 2c       	mov	r15, r4
      90:	f4 2c       	mov	r15, r4
      92:	f4 2c       	mov	r15, r4
      94:	f4 2c       	mov	r15, r4
      96:	f4 2c       	mov	r15, r4
      98:	0c 35       	cpi	r16, 0x5C	; 92
      9a:	f4 2c       	mov	r15, r4
      9c:	f4 2c       	mov	r15, r4
      9e:	f4 2c       	mov	r15, r4
      a0:	f4 2c       	mov	r15, r4
      a2:	f4 2c       	mov	r15, r4
      a4:	f4 2c       	mov	r15, r4
      a6:	f4 2c       	mov	r15, r4
      a8:	f4 2c       	mov	r15, r4
      aa:	f4 2c       	mov	r15, r4
      ac:	56 35       	cpi	r21, 0x56	; 86
      ae:	f4 2c       	mov	r15, r4
      b0:	dc 32       	cpi	r29, 0x2C	; 44
      b2:	ce 33       	cpi	r28, 0x3E	; 62
      b4:	e1 32       	cpi	r30, 0x21	; 33
      b6:	f4 2c       	mov	r15, r4
      b8:	2d 37       	cpi	r18, 0x7D	; 125
      ba:	f4 2c       	mov	r15, r4
      bc:	3c 30       	cpi	r19, 0x0C	; 12
      be:	36 37       	cpi	r19, 0x76	; 118
      c0:	4d 35       	cpi	r20, 0x5D	; 93
      c2:	64 31       	cpi	r22, 0x14	; 20
      c4:	f4 2c       	mov	r15, r4
      c6:	23 35       	cpi	r18, 0x53	; 83
      c8:	c1 32       	cpi	r28, 0x21	; 33
      ca:	f4 2c       	mov	r15, r4
      cc:	f4 2c       	mov	r15, r4
      ce:	21 33       	cpi	r18, 0x31	; 49
      d0:	60 30       	cpi	r22, 0x00	; 0
      d2:	7b 35       	cpi	r23, 0x5B	; 91
      d4:	41 35       	cpi	r20, 0x51	; 81
      d6:	1b 35       	cpi	r17, 0x5B	; 91
      d8:	34 34       	cpi	r19, 0x44	; 68
      da:	26 36       	cpi	r18, 0x66	; 102

000000dc <__c.2350>:
      dc:	4d 43 55 53 52 20 3d 20 25 64 0a 00                 MCUSR = %d..

000000e8 <__c.2352>:
      e8:	0a 4f 56 37 36 37 30 20 43 61 6d 65 72 61 20 54     .OV7670 Camera T
      f8:	65 73 74 20 41 70 70 6c 69 63 61 74 69 6f 6e 2e     est Application.
     108:	0a 00                                               ..

0000010a <__c.2356>:
     10a:	4c 46 4e 20 44 69 73 61 62 6c 65 64 00              LFN Disabled.

00000117 <__c.2358>:
     117:	2c 20 43 6f 64 65 20 70 61 67 65 3a 20 25 75 0a     , Code page: %u.
	...

00000128 <__c.2360>:
     128:	52 54 43 20 69 73 20 6e 6f 74 20 73 75 70 70 6f     RTC is not suppo
     138:	72 74 65 64 2e 20 41 6c 6c 20 66 69 6c 65 73 20     rted. All files 
     148:	77 69 6c 6c 20 68 61 76 65 20 74 69 6d 65 73 74     will have timest
     158:	61 6d 70 20 6f 66 20 30 0a 00                       amp of 0..

00000162 <__c.2362>:
     162:	54 57 49 20 49 6e 69 74 69 61 6c 69 73 65 64 2e     TWI Initialised.
     172:	0a 00                                               ..

00000174 <__c.2364>:
     174:	46 49 46 4f 20 49 6e 69 74 69 61 6c 69 73 65 64     FIFO Initialised
     184:	20 25 64 0a 00                                       %d..

00000189 <__c.2366>:
     189:	4f 56 37 36 37 30 20 49 6e 69 74 69 61 6c 69 73     OV7670 Initialis
     199:	65 3a 20 25 64 0a 00                                e: %d..

000001a0 <__c.2371>:
     1a0:	72 63 3d 25 64 0a 00                                rc=%d..

000001a7 <__c.2373>:
     1a7:	53 65 63 74 6f 72 3a 25 6c 75 0a 00                 Sector:%lu..

000001b3 <__c.2379>:
     1b3:	72 63 3d 25 64 0a 00                                rc=%d..

000001ba <__c.2382>:
     1ba:	44 72 69 76 65 20 73 69 7a 65 3a 20 25 6c 75 20     Drive size: %lu 
     1ca:	73 65 63 74 6f 72 73 0a 00                          sectors..

000001d3 <__c.2384>:
     1d3:	45 72 61 73 65 20 62 6c 6f 63 6b 3a 20 25 6c 75     Erase block: %lu
     1e3:	20 73 65 63 74 6f 72 73 0a 00                        sectors..

000001ed <__c.2386>:
     1ed:	43 61 72 64 20 74 79 70 65 3a 20 25 75 0a 00        Card type: %u..

000001fc <__c.2388>:
     1fc:	43 53 44 3a 0a 00                                   CSD:..

00000202 <__c.2390>:
     202:	43 49 44 3a 0a 00                                   CID:..

00000208 <__c.2392>:
     208:	4f 43 52 3a 0a 00                                   OCR:..

0000020e <__c.2394>:
     20e:	53 44 20 53 74 61 74 75 73 3a 0a 00                 SD Status:..

0000021a <__c.2399>:
     21a:	4d 6f 64 65 6c 3a 20 25 73 0a 00                    Model: %s..

00000225 <__c.2401>:
     225:	53 2f 4e 3a 20 25 73 0a 00                          S/N: %s..

0000022e <__c.2413>:
     22e:	25 30 34 58 20 25 30 32 58 2d 00                    %04X %02X-.

00000239 <__c.2417>:
     239:	3f 3f 3f 0a 00                                      ???..

0000023e <__c.2421>:
     23e:	72 63 3d 25 75 0a 00                                rc=%u..

00000245 <__c.2424>:
     245:	72 63 3d 25 75 0a 00                                rc=%u..

0000024c <__c.2435>:
     24c:	46 41 54 20 74 79 70 65 20 3d 20 25 75 0a 42 79     FAT type = %u.By
     25c:	74 65 73 2f 43 6c 75 73 74 65 72 20 3d 20 25 6c     tes/Cluster = %l
     26c:	75 0a 4e 75 6d 62 65 72 20 6f 66 20 46 41 54 73     u.Number of FATs
     27c:	20 3d 20 25 75 0a 52 6f 6f 74 20 44 49 52 20 65      = %u.Root DIR e
     28c:	6e 74 72 69 65 73 20 3d 20 25 75 0a 53 65 63 74     ntries = %u.Sect
     29c:	6f 72 73 2f 46 41 54 20 3d 20 25 6c 75 0a 4e 75     ors/FAT = %lu.Nu
     2ac:	6d 62 65 72 20 6f 66 20 63 6c 75 73 74 65 72 73     mber of clusters
     2bc:	20 3d 20 25 6c 75 0a 46 41 54 20 73 74 61 72 74      = %lu.FAT start
     2cc:	20 28 6c 62 61 29 20 3d 20 25 6c 75 0a 44 49 52      (lba) = %lu.DIR
     2dc:	20 73 74 61 72 74 20 28 6c 62 61 2c 63 6c 75 73      start (lba,clus
     2ec:	74 6f 72 29 20 3d 20 25 6c 75 0a 44 61 74 61 20     tor) = %lu.Data 
     2fc:	73 74 61 72 74 20 28 6c 62 61 29 20 3d 20 25 6c     start (lba) = %l
     30c:	75 0a 0a 2e 2e 2e 00                                u......

00000313 <__c.2437>:
     313:	0d 25 75 20 66 69 6c 65 73 2c 20 25 6c 75 20 62     .%u files, %lu b
     323:	79 74 65 73 2e 0a 25 75 20 66 6f 6c 64 65 72 73     ytes..%u folders
     333:	2e 0a 25 6c 75 20 4b 42 20 74 6f 74 61 6c 20 64     ..%lu KB total d
     343:	69 73 6b 20 73 70 61 63 65 2e 0a 25 6c 75 20 4b     isk space..%lu K
     353:	42 20 61 76 61 69 6c 61 62 6c 65 2e 0a 00           B available...

00000361 <__c.2444>:
     361:	25 63 25 63 25 63 25 63 25 63 20 25 75 2f 25 30     %c%c%c%c%c %u/%0
     371:	32 75 2f 25 30 32 75 20 25 30 32 75 3a 25 30 32     2u/%02u %02u:%02
     381:	75 20 25 39 6c 75 20 20 25 73 00                    u %9lu  %s.

0000038c <__c.2447>:
     38c:	25 34 75 20 46 69 6c 65 28 73 29 2c 25 31 30 6c     %4u File(s),%10l
     39c:	75 20 62 79 74 65 73 20 74 6f 74 61 6c 0a 25 34     u bytes total.%4
     3ac:	75 20 44 69 72 28 73 29 00                          u Dir(s).

000003b5 <__c.2449>:
     3b5:	2c 20 25 31 30 6c 75 4b 20 62 79 74 65 73 20 66     , %10luK bytes f
     3c5:	72 65 65 0a 00                                      ree..

000003ca <__c.2457>:
     3ca:	66 70 74 72 20 3d 20 25 6c 75 28 30 78 25 6c 58     fptr = %lu(0x%lX
     3da:	29 0a 00                                            )..

000003dd <__c.2463>:
     3dd:	25 6c 75 20 62 79 74 65 73 20 72 65 61 64 20 77     %lu bytes read w
     3ed:	69 74 68 20 25 6c 75 20 62 79 74 65 73 2f 73 65     ith %lu bytes/se
     3fd:	63 2e 0a 00                                         c...

00000401 <__c.2473>:
     401:	25 6c 75 20 62 79 74 65 73 20 77 72 69 74 74 65     %lu bytes writte
     411:	6e 20 77 69 74 68 20 25 6c 75 20 62 79 74 65 73     n with %lu bytes
     421:	2f 73 65 63 2e 0a 00                                /sec...

00000428 <__c.2507>:
     428:	4f 70 65 6e 69 6e 67 20 22 25 73 22 00              Opening "%s".

00000435 <__c.2509>:
     435:	0a 43 72 65 61 74 69 6e 67 20 22 25 73 22 00        .Creating "%s".

00000444 <__c.2511>:
     444:	0a 43 6f 70 79 69 6e 67 2e 2e 2e 00                 .Copying....

00000450 <__c.2515>:
     450:	0a 25 6c 75 20 62 79 74 65 73 20 63 6f 70 69 65     .%lu bytes copie
     460:	64 20 77 69 74 68 20 25 6c 75 20 62 79 74 65 73     d with %lu bytes
     470:	2f 73 65 63 2e 0a 00                                /sec...

00000477 <__c.2527>:
     477:	5b 44 69 73 6b 20 63 6f 6e 74 6f 72 6c 73 5d 0a     [Disk contorls].
     487:	20 64 69 20 3c 70 64 23 3e 20 2d 20 49 6e 69 74      di <pd#> - Init
     497:	69 61 6c 69 7a 65 20 64 69 73 6b 0a 20 64 64 20     ialize disk. dd 
     4a7:	5b 3c 70 64 23 3e 20 3c 73 65 63 74 3e 5d 20 2d     [<pd#> <sect>] -
     4b7:	20 44 75 6d 70 20 61 20 73 65 63 72 74 6f 72 0a      Dump a secrtor.
     4c7:	20 64 73 20 3c 70 64 23 3e 20 2d 20 53 68 6f 77      ds <pd#> - Show
     4d7:	20 64 69 73 6b 20 73 74 61 74 75 73 0a 5b 42 75      disk status.[Bu
     4e7:	66 66 65 72 20 63 6f 6e 74 72 6f 6c 73 5d 0a 20     ffer controls]. 
     4f7:	62 64 20 3c 6f 66 73 3e 20 2d 20 44 75 6d 70 20     bd <ofs> - Dump 
     507:	77 6f 72 6b 69 6e 67 20 62 75 66 66 65 72 0a 20     working buffer. 
     517:	62 65 20 3c 6f 66 73 3e 20 5b 3c 64 61 74 61 3e     be <ofs> [<data>
     527:	5d 20 2e 2e 2e 20 2d 20 45 64 69 74 20 77 6f 72     ] ... - Edit wor
     537:	6b 69 6e 67 20 62 75 66 66 65 72 0a 20 62 72 20     king buffer. br 
     547:	3c 70 64 23 3e 20 3c 73 65 63 74 3e 20 5b 3c 6e     <pd#> <sect> [<n
     557:	75 6d 3e 5d 20 2d 20 52 65 61 64 20 64 69 73 6b     um>] - Read disk
     567:	20 69 6e 74 6f 20 77 6f 72 6b 69 6e 67 20 62 75      into working bu
     577:	66 66 65 72 0a 20 62 77 20 3c 70 64 23 3e 20 3c     ffer. bw <pd#> <
     587:	73 65 63 74 3e 20 5b 3c 6e 75 6d 3e 5d 20 2d 20     sect> [<num>] - 
     597:	57 72 69 74 65 20 77 6f 72 6b 69 6e 67 20 62 75     Write working bu
     5a7:	66 66 65 72 20 69 6e 74 6f 20 64 69 73 6b 0a 20     ffer into disk. 
     5b7:	62 66 20 3c 76 61 6c 3e 20 2d 20 46 69 6c 6c 20     bf <val> - Fill 
     5c7:	77 6f 72 6b 69 6e 67 20 62 75 66 66 65 72 0a 5b     working buffer.[
     5d7:	46 69 6c 65 20 73 79 73 74 65 6d 20 63 6f 6e 74     File system cont
     5e7:	72 6f 6c 73 5d 0a 20 66 69 20 3c 6c 64 23 3e 20     rols]. fi <ld#> 
     5f7:	2d 20 46 6f 72 63 65 20 69 6e 69 74 69 61 6c 69     - Force initiali
     607:	7a 65 64 20 74 68 65 20 76 6f 6c 75 6d 65 0a 20     zed the volume. 
     617:	66 73 20 5b 3c 70 61 74 68 3e 5d 20 2d 20 53 68     fs [<path>] - Sh
     627:	6f 77 20 76 6f 6c 75 6d 65 20 73 74 61 74 75 73     ow volume status
     637:	0a 20 66 6c 20 5b 3c 70 61 74 68 3e 5d 20 2d 20     . fl [<path>] - 
     647:	53 68 6f 77 20 61 20 64 69 72 65 63 74 6f 72 79     Show a directory
     657:	0a 20 66 6f 20 3c 6d 6f 64 65 3e 20 3c 66 69 6c     . fo <mode> <fil
     667:	65 3e 20 2d 20 4f 70 65 6e 20 61 20 66 69 6c 65     e> - Open a file
     677:	0a 20 66 63 20 2d 20 43 6c 6f 73 65 20 74 68 65     . fc - Close the
     687:	20 66 69 6c 65 0a 20 66 65 20 3c 6f 66 73 3e 20      file. fe <ofs> 
     697:	2d 20 4d 6f 76 65 20 66 70 20 69 6e 20 6e 6f 72     - Move fp in nor
     6a7:	6d 61 6c 20 73 65 65 6b 0a 20 66 64 20 3c 6c 65     mal seek. fd <le
     6b7:	6e 3e 20 2d 20 52 65 61 64 20 61 6e 64 20 64 75     n> - Read and du
     6c7:	6d 70 20 74 68 65 20 66 69 6c 65 0a 20 66 72 20     mp the file. fr 
     6d7:	3c 6c 65 6e 3e 20 2d 20 52 65 61 64 20 74 68 65     <len> - Read the
     6e7:	20 66 69 6c 65 0a 20 66 77 20 3c 6c 65 6e 3e 20      file. fw <len> 
     6f7:	3c 76 61 6c 3e 20 2d 20 57 72 69 74 65 20 74 6f     <val> - Write to
     707:	20 74 68 65 20 66 69 6c 65 0a 20 66 6e 20 3c 6f      the file. fn <o
     717:	72 67 20 6e 61 6d 65 3e 20 3c 6e 65 77 20 6e 61     rg name> <new na
     727:	6d 65 3e 20 2d 20 52 65 6e 61 6d 65 20 61 6e 20     me> - Rename an 
     737:	6f 62 6a 65 63 74 0a 20 66 75 20 3c 6f 62 6a 20     object. fu <obj 
     747:	6e 61 6d 65 3e 20 2d 20 55 6e 6c 69 6e 6b 20 61     name> - Unlink a
     757:	6e 20 6f 62 6a 65 63 74 0a 20 66 76 20 2d 20 54     n object. fv - T
     767:	72 75 6e 63 61 74 65 20 74 68 65 20 66 69 6c 65     runcate the file
     777:	20 61 74 20 63 75 72 72 65 6e 74 20 66 70 0a 20      at current fp. 
     787:	66 6b 20 3c 64 69 72 20 6e 61 6d 65 3e 20 2d 20     fk <dir name> - 
     797:	43 72 65 61 74 65 20 61 20 64 69 72 65 63 74 6f     Create a directo
     7a7:	72 79 0a 20 66 61 20 3c 61 74 72 72 3e 20 3c 6d     ry. fa <atrr> <m
     7b7:	61 73 6b 3e 20 3c 6f 62 6a 65 63 74 20 6e 61 6d     ask> <object nam
     7c7:	65 3e 20 2d 20 43 68 61 6e 67 65 20 6f 62 6a 65     e> - Change obje
     7d7:	63 74 20 61 74 74 72 69 62 75 74 65 0a 20 66 74     ct attribute. ft
     7e7:	20 3c 79 65 61 72 3e 20 3c 6d 6f 6e 74 68 3e 20      <year> <month> 
     7f7:	3c 64 61 79 3e 20 3c 68 6f 75 72 3e 20 3c 6d 69     <day> <hour> <mi
     807:	6e 3e 20 3c 73 65 63 3e 20 3c 6f 62 6a 65 63 74     n> <sec> <object
     817:	20 6e 61 6d 65 3e 20 2d 20 43 68 61 6e 67 65 20      name> - Change 
     827:	74 69 6d 65 73 74 61 6d 70 20 6f 66 20 61 6e 20     timestamp of an 
     837:	6f 62 6a 65 63 74 0a 20 66 78 20 3c 73 72 63 20     object. fx <src 
     847:	66 69 6c 65 3e 20 3c 64 73 74 20 66 69 6c 65 3e     file> <dst file>
     857:	20 2d 20 43 6f 70 79 20 61 20 66 69 6c 65 0a 20      - Copy a file. 
     867:	66 67 20 3c 70 61 74 68 3e 20 2d 20 43 68 61 6e     fg <path> - Chan
     877:	67 65 20 63 75 72 72 65 6e 74 20 64 69 72 65 63     ge current direc
     887:	74 6f 72 79 0a 20 66 6a 20 3c 6c 64 23 3e 20 2d     tory. fj <ld#> -
     897:	20 43 68 61 6e 67 65 20 63 75 72 72 65 6e 74 20      Change current 
     8a7:	64 72 69 76 65 0a 20 66 71 20 2d 20 53 68 6f 77     drive. fq - Show
     8b7:	20 63 75 72 72 65 6e 74 20 64 69 72 65 63 74 6f      current directo
     8c7:	72 79 0a 20 66 6d 20 3c 6c 64 23 3e 20 3c 72 75     ry. fm <ld#> <ru
     8d7:	6c 65 3e 20 3c 63 6c 75 73 74 65 72 20 73 69 7a     le> <cluster siz
     8e7:	65 3e 20 2d 20 43 72 65 61 74 65 20 66 69 6c 65     e> - Create file
     8f7:	20 73 79 73 74 65 6d 0a 5b 4d 69 73 63 20 63 6f      system.[Misc co
     907:	6d 6d 61 6e 64 73 5d 0a 20 70 20 2d 20 53 74 6f     mmands]. p - Sto
     917:	72 65 20 61 20 42 69 74 6d 61 70 20 50 68 6f 74     re a Bitmap Phot
     927:	6f 20 74 6f 20 6f 70 65 6e 20 46 69 6c 65 0a 0a     o to open File..
	...

00000938 <__c.2289>:
     938:	25 30 38 6c 58 20 00                                %08lX .

0000093f <__c.2291>:
     93f:	20 25 30 32 58 00                                    %02X.

00000945 <__c.2327>:
     945:	72 63 3d 25 75 20 46 52 5f 25 53 0a 00              rc=%u FR_%S..

00000952 <__c.2314>:
     952:	46 69 6c 65 20 57 72 69 74 65 20 46 61 69 6c 20     File Write Fail 
     962:	3a 20 25 64 00                                      : %d.

00000967 <__c.2319>:
     967:	53 75 63 63 65 73 73 21 0a 00                       Success!..

00000971 <__c.2321>:
     971:	43 6c 6f 73 69 6e 67 20 46 69 6c 65 3a 20 25 64     Closing File: %d
     981:	0a 00 00                                            ...

00000984 <__ctors_end>:
     984:	11 24       	eor	r1, r1
     986:	1f be       	out	0x3f, r1	; 63
     988:	cf ef       	ldi	r28, 0xFF	; 255
     98a:	d0 e1       	ldi	r29, 0x10	; 16
     98c:	de bf       	out	0x3e, r29	; 62
     98e:	cd bf       	out	0x3d, r28	; 61

00000990 <__do_copy_data>:
     990:	12 e0       	ldi	r17, 0x02	; 2
     992:	a0 e0       	ldi	r26, 0x00	; 0
     994:	b1 e0       	ldi	r27, 0x01	; 1
     996:	e6 ec       	ldi	r30, 0xC6	; 198
     998:	ff e6       	ldi	r31, 0x6F	; 111
     99a:	02 c0       	rjmp	.+4      	; 0x9a0 <__do_copy_data+0x10>
     99c:	05 90       	lpm	r0, Z+
     99e:	0d 92       	st	X+, r0
     9a0:	ac 37       	cpi	r26, 0x7C	; 124
     9a2:	b1 07       	cpc	r27, r17
     9a4:	d9 f7       	brne	.-10     	; 0x99c <__do_copy_data+0xc>

000009a6 <__do_clear_bss>:
     9a6:	1d e0       	ldi	r17, 0x0D	; 13
     9a8:	ac e7       	ldi	r26, 0x7C	; 124
     9aa:	b2 e0       	ldi	r27, 0x02	; 2
     9ac:	01 c0       	rjmp	.+2      	; 0x9b0 <.do_clear_bss_start>

000009ae <.do_clear_bss_loop>:
     9ae:	1d 92       	st	X+, r1

000009b0 <.do_clear_bss_start>:
     9b0:	a8 38       	cpi	r26, 0x88	; 136
     9b2:	b1 07       	cpc	r27, r17
     9b4:	e1 f7       	brne	.-8      	; 0x9ae <.do_clear_bss_loop>
     9b6:	0e 94 67 2c 	call	0x58ce	; 0x58ce <main>
     9ba:	0c 94 e1 37 	jmp	0x6fc2	; 0x6fc2 <_exit>

000009be <__bad_interrupt>:
     9be:	0c 94 00 00 	jmp	0	; 0x0 <__vectors>

000009c2 <WriteBMPHeader>:
     9c2:	0f 93       	push	r16
     9c4:	1f 93       	push	r17
     9c6:	cf 93       	push	r28
     9c8:	df 93       	push	r29
     9ca:	00 d0       	rcall	.+0      	; 0x9cc <WriteBMPHeader+0xa>
     9cc:	00 d0       	rcall	.+0      	; 0x9ce <WriteBMPHeader+0xc>
     9ce:	cd b7       	in	r28, 0x3d	; 61
     9d0:	de b7       	in	r29, 0x3e	; 62
     9d2:	05 ed       	ldi	r16, 0xD5	; 213
     9d4:	14 e0       	ldi	r17, 0x04	; 4
     9d6:	c8 01       	movw	r24, r16
     9d8:	40 e0       	ldi	r20, 0x00	; 0
     9da:	50 e0       	ldi	r21, 0x00	; 0
     9dc:	ba 01       	movw	r22, r20
     9de:	0e 94 6f 1e 	call	0x3cde	; 0x3cde <f_lseek>
     9e2:	c8 01       	movw	r24, r16
     9e4:	60 e0       	ldi	r22, 0x00	; 0
     9e6:	71 e0       	ldi	r23, 0x01	; 1
     9e8:	2e e0       	ldi	r18, 0x0E	; 14
     9ea:	30 e0       	ldi	r19, 0x00	; 0
     9ec:	40 e0       	ldi	r20, 0x00	; 0
     9ee:	50 e0       	ldi	r21, 0x00	; 0
     9f0:	8e 01       	movw	r16, r28
     9f2:	0f 5f       	subi	r16, 0xFF	; 255
     9f4:	1f 4f       	sbci	r17, 0xFF	; 255
     9f6:	0e 94 5d 1b 	call	0x36ba	; 0x36ba <f_write>
     9fa:	0f 90       	pop	r0
     9fc:	0f 90       	pop	r0
     9fe:	0f 90       	pop	r0
     a00:	0f 90       	pop	r0
     a02:	df 91       	pop	r29
     a04:	cf 91       	pop	r28
     a06:	1f 91       	pop	r17
     a08:	0f 91       	pop	r16
     a0a:	08 95       	ret

00000a0c <WriteDIBHeader>:
     a0c:	0f 93       	push	r16
     a0e:	1f 93       	push	r17
     a10:	cf 93       	push	r28
     a12:	df 93       	push	r29
     a14:	00 d0       	rcall	.+0      	; 0xa16 <WriteDIBHeader+0xa>
     a16:	00 d0       	rcall	.+0      	; 0xa18 <WriteDIBHeader+0xc>
     a18:	cd b7       	in	r28, 0x3d	; 61
     a1a:	de b7       	in	r29, 0x3e	; 62
     a1c:	05 ed       	ldi	r16, 0xD5	; 213
     a1e:	14 e0       	ldi	r17, 0x04	; 4
     a20:	c8 01       	movw	r24, r16
     a22:	4e e0       	ldi	r20, 0x0E	; 14
     a24:	50 e0       	ldi	r21, 0x00	; 0
     a26:	60 e0       	ldi	r22, 0x00	; 0
     a28:	70 e0       	ldi	r23, 0x00	; 0
     a2a:	0e 94 6f 1e 	call	0x3cde	; 0x3cde <f_lseek>
     a2e:	c8 01       	movw	r24, r16
     a30:	6e e0       	ldi	r22, 0x0E	; 14
     a32:	71 e0       	ldi	r23, 0x01	; 1
     a34:	2c e7       	ldi	r18, 0x7C	; 124
     a36:	30 e0       	ldi	r19, 0x00	; 0
     a38:	40 e0       	ldi	r20, 0x00	; 0
     a3a:	50 e0       	ldi	r21, 0x00	; 0
     a3c:	8e 01       	movw	r16, r28
     a3e:	0f 5f       	subi	r16, 0xFF	; 255
     a40:	1f 4f       	sbci	r17, 0xFF	; 255
     a42:	0e 94 5d 1b 	call	0x36ba	; 0x36ba <f_write>
     a46:	0f 90       	pop	r0
     a48:	0f 90       	pop	r0
     a4a:	0f 90       	pop	r0
     a4c:	0f 90       	pop	r0
     a4e:	df 91       	pop	r29
     a50:	cf 91       	pop	r28
     a52:	1f 91       	pop	r17
     a54:	0f 91       	pop	r16
     a56:	08 95       	ret

00000a58 <IO_Init>:
     a58:	ee e6       	ldi	r30, 0x6E	; 110
     a5a:	f0 e0       	ldi	r31, 0x00	; 0
     a5c:	80 81       	ld	r24, Z
     a5e:	82 60       	ori	r24, 0x02	; 2
     a60:	80 83       	st	Z, r24
     a62:	84 b5       	in	r24, 0x24	; 36
     a64:	82 60       	ori	r24, 0x02	; 2
     a66:	84 bd       	out	0x24, r24	; 36
     a68:	85 e7       	ldi	r24, 0x75	; 117
     a6a:	87 bd       	out	0x27, r24	; 39
     a6c:	85 b5       	in	r24, 0x25	; 37
     a6e:	85 60       	ori	r24, 0x05	; 5
     a70:	85 bd       	out	0x25, r24	; 37
     a72:	78 94       	sei
     a74:	08 95       	ret

00000a76 <xchg_spi>:
     a76:	8e bd       	out	0x2e, r24	; 46
     a78:	0d b4       	in	r0, 0x2d	; 45
     a7a:	07 fe       	sbrs	r0, 7
     a7c:	fd cf       	rjmp	.-6      	; 0xa78 <xchg_spi+0x2>
     a7e:	8e b5       	in	r24, 0x2e	; 46
     a80:	08 95       	ret

00000a82 <wait_ready>:
     a82:	82 e3       	ldi	r24, 0x32	; 50
     a84:	80 93 7c 02 	sts	0x027C, r24
     a88:	8f ef       	ldi	r24, 0xFF	; 255
     a8a:	0e 94 3b 05 	call	0xa76	; 0xa76 <xchg_spi>
     a8e:	8f 3f       	cpi	r24, 0xFF	; 255
     a90:	21 f0       	breq	.+8      	; 0xa9a <wait_ready+0x18>
     a92:	90 91 7c 02 	lds	r25, 0x027C
     a96:	99 23       	and	r25, r25
     a98:	b9 f7       	brne	.-18     	; 0xa88 <wait_ready+0x6>
     a9a:	21 e0       	ldi	r18, 0x01	; 1
     a9c:	30 e0       	ldi	r19, 0x00	; 0
     a9e:	8f 3f       	cpi	r24, 0xFF	; 255
     aa0:	11 f0       	breq	.+4      	; 0xaa6 <wait_ready+0x24>
     aa2:	20 e0       	ldi	r18, 0x00	; 0
     aa4:	30 e0       	ldi	r19, 0x00	; 0
     aa6:	c9 01       	movw	r24, r18
     aa8:	08 95       	ret

00000aaa <deselect>:
     aaa:	2c 9a       	sbi	0x05, 4	; 5
     aac:	8f ef       	ldi	r24, 0xFF	; 255
     aae:	0e 94 3b 05 	call	0xa76	; 0xa76 <xchg_spi>
     ab2:	08 95       	ret

00000ab4 <select>:
     ab4:	2c 98       	cbi	0x05, 4	; 5
     ab6:	8f ef       	ldi	r24, 0xFF	; 255
     ab8:	0e 94 3b 05 	call	0xa76	; 0xa76 <xchg_spi>
     abc:	0e 94 41 05 	call	0xa82	; 0xa82 <wait_ready>
     ac0:	00 97       	sbiw	r24, 0x00	; 0
     ac2:	29 f4       	brne	.+10     	; 0xace <select+0x1a>
     ac4:	0e 94 55 05 	call	0xaaa	; 0xaaa <deselect>
     ac8:	80 e0       	ldi	r24, 0x00	; 0
     aca:	90 e0       	ldi	r25, 0x00	; 0
     acc:	08 95       	ret
     ace:	81 e0       	ldi	r24, 0x01	; 1
     ad0:	90 e0       	ldi	r25, 0x00	; 0
     ad2:	08 95       	ret

00000ad4 <send_cmd>:
     ad4:	ff 92       	push	r15
     ad6:	0f 93       	push	r16
     ad8:	1f 93       	push	r17
     ada:	cf 93       	push	r28
     adc:	df 93       	push	r29
     ade:	c8 2f       	mov	r28, r24
     ae0:	d4 2f       	mov	r29, r20
     ae2:	15 2f       	mov	r17, r21
     ae4:	06 2f       	mov	r16, r22
     ae6:	f7 2e       	mov	r15, r23
     ae8:	87 ff       	sbrs	r24, 7
     aea:	09 c0       	rjmp	.+18     	; 0xafe <send_cmd+0x2a>
     aec:	87 e3       	ldi	r24, 0x37	; 55
     aee:	40 e0       	ldi	r20, 0x00	; 0
     af0:	50 e0       	ldi	r21, 0x00	; 0
     af2:	ba 01       	movw	r22, r20
     af4:	0e 94 6a 05 	call	0xad4	; 0xad4 <send_cmd>
     af8:	82 30       	cpi	r24, 0x02	; 2
     afa:	88 f5       	brcc	.+98     	; 0xb5e <send_cmd+0x8a>
     afc:	cf 77       	andi	r28, 0x7F	; 127
     afe:	0e 94 55 05 	call	0xaaa	; 0xaaa <deselect>
     b02:	0e 94 5a 05 	call	0xab4	; 0xab4 <select>
     b06:	00 97       	sbiw	r24, 0x00	; 0
     b08:	49 f1       	breq	.+82     	; 0xb5c <send_cmd+0x88>
     b0a:	8c 2f       	mov	r24, r28
     b0c:	80 64       	ori	r24, 0x40	; 64
     b0e:	0e 94 3b 05 	call	0xa76	; 0xa76 <xchg_spi>
     b12:	8f 2d       	mov	r24, r15
     b14:	0e 94 3b 05 	call	0xa76	; 0xa76 <xchg_spi>
     b18:	80 2f       	mov	r24, r16
     b1a:	0e 94 3b 05 	call	0xa76	; 0xa76 <xchg_spi>
     b1e:	81 2f       	mov	r24, r17
     b20:	0e 94 3b 05 	call	0xa76	; 0xa76 <xchg_spi>
     b24:	8d 2f       	mov	r24, r29
     b26:	0e 94 3b 05 	call	0xa76	; 0xa76 <xchg_spi>
     b2a:	cc 23       	and	r28, r28
     b2c:	21 f0       	breq	.+8      	; 0xb36 <send_cmd+0x62>
     b2e:	c8 30       	cpi	r28, 0x08	; 8
     b30:	21 f0       	breq	.+8      	; 0xb3a <send_cmd+0x66>
     b32:	81 e0       	ldi	r24, 0x01	; 1
     b34:	03 c0       	rjmp	.+6      	; 0xb3c <send_cmd+0x68>
     b36:	85 e9       	ldi	r24, 0x95	; 149
     b38:	01 c0       	rjmp	.+2      	; 0xb3c <send_cmd+0x68>
     b3a:	87 e8       	ldi	r24, 0x87	; 135
     b3c:	0e 94 3b 05 	call	0xa76	; 0xa76 <xchg_spi>
     b40:	cc 30       	cpi	r28, 0x0C	; 12
     b42:	19 f4       	brne	.+6      	; 0xb4a <send_cmd+0x76>
     b44:	8f ef       	ldi	r24, 0xFF	; 255
     b46:	0e 94 3b 05 	call	0xa76	; 0xa76 <xchg_spi>
     b4a:	ca e0       	ldi	r28, 0x0A	; 10
     b4c:	8f ef       	ldi	r24, 0xFF	; 255
     b4e:	0e 94 3b 05 	call	0xa76	; 0xa76 <xchg_spi>
     b52:	87 ff       	sbrs	r24, 7
     b54:	04 c0       	rjmp	.+8      	; 0xb5e <send_cmd+0x8a>
     b56:	c1 50       	subi	r28, 0x01	; 1
     b58:	c9 f7       	brne	.-14     	; 0xb4c <send_cmd+0x78>
     b5a:	01 c0       	rjmp	.+2      	; 0xb5e <send_cmd+0x8a>
     b5c:	8f ef       	ldi	r24, 0xFF	; 255
     b5e:	df 91       	pop	r29
     b60:	cf 91       	pop	r28
     b62:	1f 91       	pop	r17
     b64:	0f 91       	pop	r16
     b66:	ff 90       	pop	r15
     b68:	08 95       	ret

00000b6a <rcvr_datablock>:
     b6a:	cf 92       	push	r12
     b6c:	df 92       	push	r13
     b6e:	ef 92       	push	r14
     b70:	ff 92       	push	r15
     b72:	cf 93       	push	r28
     b74:	df 93       	push	r29
     b76:	ec 01       	movw	r28, r24
     b78:	6a 01       	movw	r12, r20
     b7a:	7b 01       	movw	r14, r22
     b7c:	84 e1       	ldi	r24, 0x14	; 20
     b7e:	80 93 7d 02 	sts	0x027D, r24
     b82:	8f ef       	ldi	r24, 0xFF	; 255
     b84:	0e 94 3b 05 	call	0xa76	; 0xa76 <xchg_spi>
     b88:	8f 3f       	cpi	r24, 0xFF	; 255
     b8a:	29 f4       	brne	.+10     	; 0xb96 <rcvr_datablock+0x2c>
     b8c:	80 91 7d 02 	lds	r24, 0x027D
     b90:	88 23       	and	r24, r24
     b92:	b9 f7       	brne	.-18     	; 0xb82 <rcvr_datablock+0x18>
     b94:	26 c0       	rjmp	.+76     	; 0xbe2 <rcvr_datablock+0x78>
     b96:	8e 3f       	cpi	r24, 0xFE	; 254
     b98:	21 f5       	brne	.+72     	; 0xbe2 <rcvr_datablock+0x78>
     b9a:	8f ef       	ldi	r24, 0xFF	; 255
     b9c:	8e bd       	out	0x2e, r24	; 46
     b9e:	0d b4       	in	r0, 0x2d	; 45
     ba0:	07 fe       	sbrs	r0, 7
     ba2:	fd cf       	rjmp	.-6      	; 0xb9e <rcvr_datablock+0x34>
     ba4:	9e b5       	in	r25, 0x2e	; 46
     ba6:	98 83       	st	Y, r25
     ba8:	8e bd       	out	0x2e, r24	; 46
     baa:	0d b4       	in	r0, 0x2d	; 45
     bac:	07 fe       	sbrs	r0, 7
     bae:	fd cf       	rjmp	.-6      	; 0xbaa <rcvr_datablock+0x40>
     bb0:	9e b5       	in	r25, 0x2e	; 46
     bb2:	99 83       	std	Y+1, r25	; 0x01
     bb4:	22 96       	adiw	r28, 0x02	; 2
     bb6:	2e ef       	ldi	r18, 0xFE	; 254
     bb8:	3f ef       	ldi	r19, 0xFF	; 255
     bba:	4f ef       	ldi	r20, 0xFF	; 255
     bbc:	5f ef       	ldi	r21, 0xFF	; 255
     bbe:	c2 0e       	add	r12, r18
     bc0:	d3 1e       	adc	r13, r19
     bc2:	e4 1e       	adc	r14, r20
     bc4:	f5 1e       	adc	r15, r21
     bc6:	c1 14       	cp	r12, r1
     bc8:	d1 04       	cpc	r13, r1
     bca:	e1 04       	cpc	r14, r1
     bcc:	f1 04       	cpc	r15, r1
     bce:	31 f7       	brne	.-52     	; 0xb9c <rcvr_datablock+0x32>
     bd0:	8f ef       	ldi	r24, 0xFF	; 255
     bd2:	0e 94 3b 05 	call	0xa76	; 0xa76 <xchg_spi>
     bd6:	8f ef       	ldi	r24, 0xFF	; 255
     bd8:	0e 94 3b 05 	call	0xa76	; 0xa76 <xchg_spi>
     bdc:	81 e0       	ldi	r24, 0x01	; 1
     bde:	90 e0       	ldi	r25, 0x00	; 0
     be0:	02 c0       	rjmp	.+4      	; 0xbe6 <rcvr_datablock+0x7c>
     be2:	80 e0       	ldi	r24, 0x00	; 0
     be4:	90 e0       	ldi	r25, 0x00	; 0
     be6:	df 91       	pop	r29
     be8:	cf 91       	pop	r28
     bea:	ff 90       	pop	r15
     bec:	ef 90       	pop	r14
     bee:	df 90       	pop	r13
     bf0:	cf 90       	pop	r12
     bf2:	08 95       	ret

00000bf4 <xmit_datablock>:
     bf4:	1f 93       	push	r17
     bf6:	cf 93       	push	r28
     bf8:	df 93       	push	r29
     bfa:	ec 01       	movw	r28, r24
     bfc:	16 2f       	mov	r17, r22
     bfe:	0e 94 41 05 	call	0xa82	; 0xa82 <wait_ready>
     c02:	00 97       	sbiw	r24, 0x00	; 0
     c04:	59 f1       	breq	.+86     	; 0xc5c <xmit_datablock+0x68>
     c06:	81 2f       	mov	r24, r17
     c08:	0e 94 3b 05 	call	0xa76	; 0xa76 <xchg_spi>
     c0c:	1d 3f       	cpi	r17, 0xFD	; 253
     c0e:	19 f1       	breq	.+70     	; 0xc56 <xmit_datablock+0x62>
     c10:	ce 01       	movw	r24, r28
     c12:	80 50       	subi	r24, 0x00	; 0
     c14:	9e 4f       	sbci	r25, 0xFE	; 254
     c16:	28 81       	ld	r18, Y
     c18:	2e bd       	out	0x2e, r18	; 46
     c1a:	0d b4       	in	r0, 0x2d	; 45
     c1c:	07 fe       	sbrs	r0, 7
     c1e:	fd cf       	rjmp	.-6      	; 0xc1a <xmit_datablock+0x26>
     c20:	29 81       	ldd	r18, Y+1	; 0x01
     c22:	2e bd       	out	0x2e, r18	; 46
     c24:	22 96       	adiw	r28, 0x02	; 2
     c26:	0d b4       	in	r0, 0x2d	; 45
     c28:	07 fe       	sbrs	r0, 7
     c2a:	fd cf       	rjmp	.-6      	; 0xc26 <xmit_datablock+0x32>
     c2c:	c8 17       	cp	r28, r24
     c2e:	d9 07       	cpc	r29, r25
     c30:	91 f7       	brne	.-28     	; 0xc16 <xmit_datablock+0x22>
     c32:	8f ef       	ldi	r24, 0xFF	; 255
     c34:	0e 94 3b 05 	call	0xa76	; 0xa76 <xchg_spi>
     c38:	8f ef       	ldi	r24, 0xFF	; 255
     c3a:	0e 94 3b 05 	call	0xa76	; 0xa76 <xchg_spi>
     c3e:	8f ef       	ldi	r24, 0xFF	; 255
     c40:	0e 94 3b 05 	call	0xa76	; 0xa76 <xchg_spi>
     c44:	8f 71       	andi	r24, 0x1F	; 31
     c46:	21 e0       	ldi	r18, 0x01	; 1
     c48:	30 e0       	ldi	r19, 0x00	; 0
     c4a:	85 30       	cpi	r24, 0x05	; 5
     c4c:	11 f0       	breq	.+4      	; 0xc52 <xmit_datablock+0x5e>
     c4e:	20 e0       	ldi	r18, 0x00	; 0
     c50:	30 e0       	ldi	r19, 0x00	; 0
     c52:	c9 01       	movw	r24, r18
     c54:	05 c0       	rjmp	.+10     	; 0xc60 <xmit_datablock+0x6c>
     c56:	81 e0       	ldi	r24, 0x01	; 1
     c58:	90 e0       	ldi	r25, 0x00	; 0
     c5a:	02 c0       	rjmp	.+4      	; 0xc60 <xmit_datablock+0x6c>
     c5c:	80 e0       	ldi	r24, 0x00	; 0
     c5e:	90 e0       	ldi	r25, 0x00	; 0
     c60:	df 91       	pop	r29
     c62:	cf 91       	pop	r28
     c64:	1f 91       	pop	r17
     c66:	08 95       	ret

00000c68 <disk_initialize>:
     c68:	df 92       	push	r13
     c6a:	ef 92       	push	r14
     c6c:	ff 92       	push	r15
     c6e:	0f 93       	push	r16
     c70:	1f 93       	push	r17
     c72:	cf 93       	push	r28
     c74:	df 93       	push	r29
     c76:	00 d0       	rcall	.+0      	; 0xc78 <disk_initialize+0x10>
     c78:	00 d0       	rcall	.+0      	; 0xc7a <disk_initialize+0x12>
     c7a:	cd b7       	in	r28, 0x3d	; 61
     c7c:	de b7       	in	r29, 0x3e	; 62
     c7e:	88 23       	and	r24, r24
     c80:	09 f0       	breq	.+2      	; 0xc84 <disk_initialize+0x1c>
     c82:	ac c0       	rjmp	.+344    	; 0xddc <disk_initialize+0x174>
     c84:	1c bc       	out	0x2c, r1	; 44
     c86:	8f ee       	ldi	r24, 0xEF	; 239
     c88:	85 b9       	out	0x05, r24	; 5
     c8a:	8f e4       	ldi	r24, 0x4F	; 79
     c8c:	84 b9       	out	0x04, r24	; 4
     c8e:	80 91 8a 01 	lds	r24, 0x018A
     c92:	81 fd       	sbrc	r24, 1
     c94:	a0 c0       	rjmp	.+320    	; 0xdd6 <disk_initialize+0x16e>
     c96:	80 e1       	ldi	r24, 0x10	; 16
     c98:	85 b9       	out	0x05, r24	; 5
     c9a:	80 eb       	ldi	r24, 0xB0	; 176
     c9c:	84 b9       	out	0x04, r24	; 4
     c9e:	81 e5       	ldi	r24, 0x51	; 81
     ca0:	8c bd       	out	0x2c, r24	; 44
     ca2:	82 e5       	ldi	r24, 0x52	; 82
     ca4:	8c bd       	out	0x2c, r24	; 44
     ca6:	1a e0       	ldi	r17, 0x0A	; 10
     ca8:	8f ef       	ldi	r24, 0xFF	; 255
     caa:	0e 94 3b 05 	call	0xa76	; 0xa76 <xchg_spi>
     cae:	11 50       	subi	r17, 0x01	; 1
     cb0:	d9 f7       	brne	.-10     	; 0xca8 <disk_initialize+0x40>
     cb2:	80 e0       	ldi	r24, 0x00	; 0
     cb4:	40 e0       	ldi	r20, 0x00	; 0
     cb6:	50 e0       	ldi	r21, 0x00	; 0
     cb8:	ba 01       	movw	r22, r20
     cba:	0e 94 6a 05 	call	0xad4	; 0xad4 <send_cmd>
     cbe:	81 30       	cpi	r24, 0x01	; 1
     cc0:	09 f0       	breq	.+2      	; 0xcc4 <disk_initialize+0x5c>
     cc2:	75 c0       	rjmp	.+234    	; 0xdae <disk_initialize+0x146>
     cc4:	84 e6       	ldi	r24, 0x64	; 100
     cc6:	80 93 7d 02 	sts	0x027D, r24
     cca:	88 e0       	ldi	r24, 0x08	; 8
     ccc:	4a ea       	ldi	r20, 0xAA	; 170
     cce:	51 e0       	ldi	r21, 0x01	; 1
     cd0:	60 e0       	ldi	r22, 0x00	; 0
     cd2:	70 e0       	ldi	r23, 0x00	; 0
     cd4:	0e 94 6a 05 	call	0xad4	; 0xad4 <send_cmd>
     cd8:	81 30       	cpi	r24, 0x01	; 1
     cda:	09 f0       	breq	.+2      	; 0xcde <disk_initialize+0x76>
     cdc:	3f c0       	rjmp	.+126    	; 0xd5c <disk_initialize+0xf4>
     cde:	7e 01       	movw	r14, r28
     ce0:	08 94       	sec
     ce2:	e1 1c       	adc	r14, r1
     ce4:	f1 1c       	adc	r15, r1
     ce6:	87 01       	movw	r16, r14
     ce8:	84 e0       	ldi	r24, 0x04	; 4
     cea:	d8 2e       	mov	r13, r24
     cec:	8f ef       	ldi	r24, 0xFF	; 255
     cee:	0e 94 3b 05 	call	0xa76	; 0xa76 <xchg_spi>
     cf2:	f8 01       	movw	r30, r16
     cf4:	81 93       	st	Z+, r24
     cf6:	8f 01       	movw	r16, r30
     cf8:	da 94       	dec	r13
     cfa:	c1 f7       	brne	.-16     	; 0xcec <disk_initialize+0x84>
     cfc:	8b 81       	ldd	r24, Y+3	; 0x03
     cfe:	81 30       	cpi	r24, 0x01	; 1
     d00:	09 f0       	breq	.+2      	; 0xd04 <disk_initialize+0x9c>
     d02:	55 c0       	rjmp	.+170    	; 0xdae <disk_initialize+0x146>
     d04:	8c 81       	ldd	r24, Y+4	; 0x04
     d06:	8a 3a       	cpi	r24, 0xAA	; 170
     d08:	09 f0       	breq	.+2      	; 0xd0c <disk_initialize+0xa4>
     d0a:	51 c0       	rjmp	.+162    	; 0xdae <disk_initialize+0x146>
     d0c:	80 91 7d 02 	lds	r24, 0x027D
     d10:	88 23       	and	r24, r24
     d12:	49 f0       	breq	.+18     	; 0xd26 <disk_initialize+0xbe>
     d14:	89 ea       	ldi	r24, 0xA9	; 169
     d16:	40 e0       	ldi	r20, 0x00	; 0
     d18:	50 e0       	ldi	r21, 0x00	; 0
     d1a:	60 e0       	ldi	r22, 0x00	; 0
     d1c:	70 e4       	ldi	r23, 0x40	; 64
     d1e:	0e 94 6a 05 	call	0xad4	; 0xad4 <send_cmd>
     d22:	88 23       	and	r24, r24
     d24:	99 f7       	brne	.-26     	; 0xd0c <disk_initialize+0xa4>
     d26:	80 91 7d 02 	lds	r24, 0x027D
     d2a:	88 23       	and	r24, r24
     d2c:	09 f4       	brne	.+2      	; 0xd30 <disk_initialize+0xc8>
     d2e:	3f c0       	rjmp	.+126    	; 0xdae <disk_initialize+0x146>
     d30:	8a e3       	ldi	r24, 0x3A	; 58
     d32:	40 e0       	ldi	r20, 0x00	; 0
     d34:	50 e0       	ldi	r21, 0x00	; 0
     d36:	ba 01       	movw	r22, r20
     d38:	0e 94 6a 05 	call	0xad4	; 0xad4 <send_cmd>
     d3c:	88 23       	and	r24, r24
     d3e:	b9 f5       	brne	.+110    	; 0xdae <disk_initialize+0x146>
     d40:	14 e0       	ldi	r17, 0x04	; 4
     d42:	8f ef       	ldi	r24, 0xFF	; 255
     d44:	0e 94 3b 05 	call	0xa76	; 0xa76 <xchg_spi>
     d48:	f7 01       	movw	r30, r14
     d4a:	81 93       	st	Z+, r24
     d4c:	7f 01       	movw	r14, r30
     d4e:	11 50       	subi	r17, 0x01	; 1
     d50:	c1 f7       	brne	.-16     	; 0xd42 <disk_initialize+0xda>
     d52:	89 81       	ldd	r24, Y+1	; 0x01
     d54:	86 ff       	sbrs	r24, 6
     d56:	29 c0       	rjmp	.+82     	; 0xdaa <disk_initialize+0x142>
     d58:	0c e0       	ldi	r16, 0x0C	; 12
     d5a:	2a c0       	rjmp	.+84     	; 0xdb0 <disk_initialize+0x148>
     d5c:	89 ea       	ldi	r24, 0xA9	; 169
     d5e:	40 e0       	ldi	r20, 0x00	; 0
     d60:	50 e0       	ldi	r21, 0x00	; 0
     d62:	ba 01       	movw	r22, r20
     d64:	0e 94 6a 05 	call	0xad4	; 0xad4 <send_cmd>
     d68:	82 30       	cpi	r24, 0x02	; 2
     d6a:	18 f4       	brcc	.+6      	; 0xd72 <disk_initialize+0x10a>
     d6c:	02 e0       	ldi	r16, 0x02	; 2
     d6e:	19 ea       	ldi	r17, 0xA9	; 169
     d70:	02 c0       	rjmp	.+4      	; 0xd76 <disk_initialize+0x10e>
     d72:	01 e0       	ldi	r16, 0x01	; 1
     d74:	11 e0       	ldi	r17, 0x01	; 1
     d76:	80 91 7d 02 	lds	r24, 0x027D
     d7a:	88 23       	and	r24, r24
     d7c:	41 f0       	breq	.+16     	; 0xd8e <disk_initialize+0x126>
     d7e:	81 2f       	mov	r24, r17
     d80:	40 e0       	ldi	r20, 0x00	; 0
     d82:	50 e0       	ldi	r21, 0x00	; 0
     d84:	ba 01       	movw	r22, r20
     d86:	0e 94 6a 05 	call	0xad4	; 0xad4 <send_cmd>
     d8a:	88 23       	and	r24, r24
     d8c:	a1 f7       	brne	.-24     	; 0xd76 <disk_initialize+0x10e>
     d8e:	80 91 7d 02 	lds	r24, 0x027D
     d92:	88 23       	and	r24, r24
     d94:	61 f0       	breq	.+24     	; 0xdae <disk_initialize+0x146>
     d96:	80 e1       	ldi	r24, 0x10	; 16
     d98:	40 e0       	ldi	r20, 0x00	; 0
     d9a:	52 e0       	ldi	r21, 0x02	; 2
     d9c:	60 e0       	ldi	r22, 0x00	; 0
     d9e:	70 e0       	ldi	r23, 0x00	; 0
     da0:	0e 94 6a 05 	call	0xad4	; 0xad4 <send_cmd>
     da4:	88 23       	and	r24, r24
     da6:	19 f4       	brne	.+6      	; 0xdae <disk_initialize+0x146>
     da8:	03 c0       	rjmp	.+6      	; 0xdb0 <disk_initialize+0x148>
     daa:	04 e0       	ldi	r16, 0x04	; 4
     dac:	01 c0       	rjmp	.+2      	; 0xdb0 <disk_initialize+0x148>
     dae:	00 e0       	ldi	r16, 0x00	; 0
     db0:	00 93 7e 02 	sts	0x027E, r16
     db4:	0e 94 55 05 	call	0xaaa	; 0xaaa <deselect>
     db8:	00 23       	and	r16, r16
     dba:	41 f0       	breq	.+16     	; 0xdcc <disk_initialize+0x164>
     dbc:	80 91 8a 01 	lds	r24, 0x018A
     dc0:	8e 7f       	andi	r24, 0xFE	; 254
     dc2:	80 93 8a 01 	sts	0x018A, r24
     dc6:	80 e5       	ldi	r24, 0x50	; 80
     dc8:	8c bd       	out	0x2c, r24	; 44
     dca:	05 c0       	rjmp	.+10     	; 0xdd6 <disk_initialize+0x16e>
     dcc:	1c bc       	out	0x2c, r1	; 44
     dce:	8f ee       	ldi	r24, 0xEF	; 239
     dd0:	85 b9       	out	0x05, r24	; 5
     dd2:	8f e4       	ldi	r24, 0x4F	; 79
     dd4:	84 b9       	out	0x04, r24	; 4
     dd6:	80 91 8a 01 	lds	r24, 0x018A
     dda:	01 c0       	rjmp	.+2      	; 0xdde <disk_initialize+0x176>
     ddc:	81 e0       	ldi	r24, 0x01	; 1
     dde:	0f 90       	pop	r0
     de0:	0f 90       	pop	r0
     de2:	0f 90       	pop	r0
     de4:	0f 90       	pop	r0
     de6:	df 91       	pop	r29
     de8:	cf 91       	pop	r28
     dea:	1f 91       	pop	r17
     dec:	0f 91       	pop	r16
     dee:	ff 90       	pop	r15
     df0:	ef 90       	pop	r14
     df2:	df 90       	pop	r13
     df4:	08 95       	ret

00000df6 <disk_status>:
     df6:	88 23       	and	r24, r24
     df8:	19 f4       	brne	.+6      	; 0xe00 <disk_status+0xa>
     dfa:	80 91 8a 01 	lds	r24, 0x018A
     dfe:	08 95       	ret
     e00:	81 e0       	ldi	r24, 0x01	; 1
     e02:	08 95       	ret

00000e04 <disk_read>:
     e04:	0f 93       	push	r16
     e06:	cf 93       	push	r28
     e08:	df 93       	push	r29
     e0a:	eb 01       	movw	r28, r22
     e0c:	ba 01       	movw	r22, r20
     e0e:	a9 01       	movw	r20, r18
     e10:	88 23       	and	r24, r24
     e12:	09 f0       	breq	.+2      	; 0xe16 <disk_read+0x12>
     e14:	44 c0       	rjmp	.+136    	; 0xe9e <disk_read+0x9a>
     e16:	00 23       	and	r16, r16
     e18:	09 f4       	brne	.+2      	; 0xe1c <disk_read+0x18>
     e1a:	41 c0       	rjmp	.+130    	; 0xe9e <disk_read+0x9a>
     e1c:	80 91 8a 01 	lds	r24, 0x018A
     e20:	80 fd       	sbrc	r24, 0
     e22:	3f c0       	rjmp	.+126    	; 0xea2 <disk_read+0x9e>
     e24:	80 91 7e 02 	lds	r24, 0x027E
     e28:	83 fd       	sbrc	r24, 3
     e2a:	07 c0       	rjmp	.+14     	; 0xe3a <disk_read+0x36>
     e2c:	99 e0       	ldi	r25, 0x09	; 9
     e2e:	44 0f       	add	r20, r20
     e30:	55 1f       	adc	r21, r21
     e32:	66 1f       	adc	r22, r22
     e34:	77 1f       	adc	r23, r23
     e36:	9a 95       	dec	r25
     e38:	d1 f7       	brne	.-12     	; 0xe2e <disk_read+0x2a>
     e3a:	01 30       	cpi	r16, 0x01	; 1
     e3c:	79 f4       	brne	.+30     	; 0xe5c <disk_read+0x58>
     e3e:	81 e1       	ldi	r24, 0x11	; 17
     e40:	0e 94 6a 05 	call	0xad4	; 0xad4 <send_cmd>
     e44:	88 23       	and	r24, r24
     e46:	21 f5       	brne	.+72     	; 0xe90 <disk_read+0x8c>
     e48:	ce 01       	movw	r24, r28
     e4a:	40 e0       	ldi	r20, 0x00	; 0
     e4c:	52 e0       	ldi	r21, 0x02	; 2
     e4e:	60 e0       	ldi	r22, 0x00	; 0
     e50:	70 e0       	ldi	r23, 0x00	; 0
     e52:	0e 94 b5 05 	call	0xb6a	; 0xb6a <rcvr_datablock>
     e56:	00 97       	sbiw	r24, 0x00	; 0
     e58:	d1 f4       	brne	.+52     	; 0xe8e <disk_read+0x8a>
     e5a:	1a c0       	rjmp	.+52     	; 0xe90 <disk_read+0x8c>
     e5c:	82 e1       	ldi	r24, 0x12	; 18
     e5e:	0e 94 6a 05 	call	0xad4	; 0xad4 <send_cmd>
     e62:	88 23       	and	r24, r24
     e64:	a9 f4       	brne	.+42     	; 0xe90 <disk_read+0x8c>
     e66:	ce 01       	movw	r24, r28
     e68:	40 e0       	ldi	r20, 0x00	; 0
     e6a:	52 e0       	ldi	r21, 0x02	; 2
     e6c:	60 e0       	ldi	r22, 0x00	; 0
     e6e:	70 e0       	ldi	r23, 0x00	; 0
     e70:	0e 94 b5 05 	call	0xb6a	; 0xb6a <rcvr_datablock>
     e74:	00 97       	sbiw	r24, 0x00	; 0
     e76:	21 f0       	breq	.+8      	; 0xe80 <disk_read+0x7c>
     e78:	c0 50       	subi	r28, 0x00	; 0
     e7a:	de 4f       	sbci	r29, 0xFE	; 254
     e7c:	01 50       	subi	r16, 0x01	; 1
     e7e:	99 f7       	brne	.-26     	; 0xe66 <disk_read+0x62>
     e80:	8c e0       	ldi	r24, 0x0C	; 12
     e82:	40 e0       	ldi	r20, 0x00	; 0
     e84:	50 e0       	ldi	r21, 0x00	; 0
     e86:	ba 01       	movw	r22, r20
     e88:	0e 94 6a 05 	call	0xad4	; 0xad4 <send_cmd>
     e8c:	01 c0       	rjmp	.+2      	; 0xe90 <disk_read+0x8c>
     e8e:	00 e0       	ldi	r16, 0x00	; 0
     e90:	0e 94 55 05 	call	0xaaa	; 0xaaa <deselect>
     e94:	81 e0       	ldi	r24, 0x01	; 1
     e96:	00 23       	and	r16, r16
     e98:	29 f4       	brne	.+10     	; 0xea4 <disk_read+0xa0>
     e9a:	80 e0       	ldi	r24, 0x00	; 0
     e9c:	03 c0       	rjmp	.+6      	; 0xea4 <disk_read+0xa0>
     e9e:	84 e0       	ldi	r24, 0x04	; 4
     ea0:	01 c0       	rjmp	.+2      	; 0xea4 <disk_read+0xa0>
     ea2:	83 e0       	ldi	r24, 0x03	; 3
     ea4:	df 91       	pop	r29
     ea6:	cf 91       	pop	r28
     ea8:	0f 91       	pop	r16
     eaa:	08 95       	ret

00000eac <disk_write>:
     eac:	cf 92       	push	r12
     eae:	df 92       	push	r13
     eb0:	ef 92       	push	r14
     eb2:	ff 92       	push	r15
     eb4:	0f 93       	push	r16
     eb6:	cf 93       	push	r28
     eb8:	df 93       	push	r29
     eba:	eb 01       	movw	r28, r22
     ebc:	69 01       	movw	r12, r18
     ebe:	7a 01       	movw	r14, r20
     ec0:	88 23       	and	r24, r24
     ec2:	09 f0       	breq	.+2      	; 0xec6 <disk_write+0x1a>
     ec4:	55 c0       	rjmp	.+170    	; 0xf70 <disk_write+0xc4>
     ec6:	00 23       	and	r16, r16
     ec8:	09 f4       	brne	.+2      	; 0xecc <disk_write+0x20>
     eca:	52 c0       	rjmp	.+164    	; 0xf70 <disk_write+0xc4>
     ecc:	80 91 8a 01 	lds	r24, 0x018A
     ed0:	80 fd       	sbrc	r24, 0
     ed2:	50 c0       	rjmp	.+160    	; 0xf74 <disk_write+0xc8>
     ed4:	80 91 8a 01 	lds	r24, 0x018A
     ed8:	82 fd       	sbrc	r24, 2
     eda:	4e c0       	rjmp	.+156    	; 0xf78 <disk_write+0xcc>
     edc:	80 91 7e 02 	lds	r24, 0x027E
     ee0:	90 e0       	ldi	r25, 0x00	; 0
     ee2:	83 fd       	sbrc	r24, 3
     ee4:	07 c0       	rjmp	.+14     	; 0xef4 <disk_write+0x48>
     ee6:	29 e0       	ldi	r18, 0x09	; 9
     ee8:	cc 0c       	add	r12, r12
     eea:	dd 1c       	adc	r13, r13
     eec:	ee 1c       	adc	r14, r14
     eee:	ff 1c       	adc	r15, r15
     ef0:	2a 95       	dec	r18
     ef2:	d1 f7       	brne	.-12     	; 0xee8 <disk_write+0x3c>
     ef4:	01 30       	cpi	r16, 0x01	; 1
     ef6:	71 f4       	brne	.+28     	; 0xf14 <disk_write+0x68>
     ef8:	88 e1       	ldi	r24, 0x18	; 24
     efa:	b7 01       	movw	r22, r14
     efc:	a6 01       	movw	r20, r12
     efe:	0e 94 6a 05 	call	0xad4	; 0xad4 <send_cmd>
     f02:	88 23       	and	r24, r24
     f04:	71 f5       	brne	.+92     	; 0xf62 <disk_write+0xb6>
     f06:	ce 01       	movw	r24, r28
     f08:	6e ef       	ldi	r22, 0xFE	; 254
     f0a:	0e 94 fa 05 	call	0xbf4	; 0xbf4 <xmit_datablock>
     f0e:	00 97       	sbiw	r24, 0x00	; 0
     f10:	29 f5       	brne	.+74     	; 0xf5c <disk_write+0xb0>
     f12:	27 c0       	rjmp	.+78     	; 0xf62 <disk_write+0xb6>
     f14:	86 70       	andi	r24, 0x06	; 6
     f16:	90 70       	andi	r25, 0x00	; 0
     f18:	00 97       	sbiw	r24, 0x00	; 0
     f1a:	39 f0       	breq	.+14     	; 0xf2a <disk_write+0x7e>
     f1c:	40 2f       	mov	r20, r16
     f1e:	50 e0       	ldi	r21, 0x00	; 0
     f20:	60 e0       	ldi	r22, 0x00	; 0
     f22:	70 e0       	ldi	r23, 0x00	; 0
     f24:	87 e9       	ldi	r24, 0x97	; 151
     f26:	0e 94 6a 05 	call	0xad4	; 0xad4 <send_cmd>
     f2a:	89 e1       	ldi	r24, 0x19	; 25
     f2c:	b7 01       	movw	r22, r14
     f2e:	a6 01       	movw	r20, r12
     f30:	0e 94 6a 05 	call	0xad4	; 0xad4 <send_cmd>
     f34:	88 23       	and	r24, r24
     f36:	a9 f4       	brne	.+42     	; 0xf62 <disk_write+0xb6>
     f38:	ce 01       	movw	r24, r28
     f3a:	6c ef       	ldi	r22, 0xFC	; 252
     f3c:	0e 94 fa 05 	call	0xbf4	; 0xbf4 <xmit_datablock>
     f40:	00 97       	sbiw	r24, 0x00	; 0
     f42:	21 f0       	breq	.+8      	; 0xf4c <disk_write+0xa0>
     f44:	c0 50       	subi	r28, 0x00	; 0
     f46:	de 4f       	sbci	r29, 0xFE	; 254
     f48:	01 50       	subi	r16, 0x01	; 1
     f4a:	b1 f7       	brne	.-20     	; 0xf38 <disk_write+0x8c>
     f4c:	80 e0       	ldi	r24, 0x00	; 0
     f4e:	90 e0       	ldi	r25, 0x00	; 0
     f50:	6d ef       	ldi	r22, 0xFD	; 253
     f52:	0e 94 fa 05 	call	0xbf4	; 0xbf4 <xmit_datablock>
     f56:	00 97       	sbiw	r24, 0x00	; 0
     f58:	19 f0       	breq	.+6      	; 0xf60 <disk_write+0xb4>
     f5a:	03 c0       	rjmp	.+6      	; 0xf62 <disk_write+0xb6>
     f5c:	00 e0       	ldi	r16, 0x00	; 0
     f5e:	01 c0       	rjmp	.+2      	; 0xf62 <disk_write+0xb6>
     f60:	01 e0       	ldi	r16, 0x01	; 1
     f62:	0e 94 55 05 	call	0xaaa	; 0xaaa <deselect>
     f66:	81 e0       	ldi	r24, 0x01	; 1
     f68:	00 23       	and	r16, r16
     f6a:	39 f4       	brne	.+14     	; 0xf7a <disk_write+0xce>
     f6c:	80 e0       	ldi	r24, 0x00	; 0
     f6e:	05 c0       	rjmp	.+10     	; 0xf7a <disk_write+0xce>
     f70:	84 e0       	ldi	r24, 0x04	; 4
     f72:	03 c0       	rjmp	.+6      	; 0xf7a <disk_write+0xce>
     f74:	83 e0       	ldi	r24, 0x03	; 3
     f76:	01 c0       	rjmp	.+2      	; 0xf7a <disk_write+0xce>
     f78:	82 e0       	ldi	r24, 0x02	; 2
     f7a:	df 91       	pop	r29
     f7c:	cf 91       	pop	r28
     f7e:	0f 91       	pop	r16
     f80:	ff 90       	pop	r15
     f82:	ef 90       	pop	r14
     f84:	df 90       	pop	r13
     f86:	cf 90       	pop	r12
     f88:	08 95       	ret

00000f8a <disk_ioctl>:
     f8a:	ff 92       	push	r15
     f8c:	0f 93       	push	r16
     f8e:	1f 93       	push	r17
     f90:	cf 93       	push	r28
     f92:	df 93       	push	r29
     f94:	cd b7       	in	r28, 0x3d	; 61
     f96:	de b7       	in	r29, 0x3e	; 62
     f98:	61 97       	sbiw	r28, 0x11	; 17
     f9a:	0f b6       	in	r0, 0x3f	; 63
     f9c:	f8 94       	cli
     f9e:	de bf       	out	0x3e, r29	; 62
     fa0:	0f be       	out	0x3f, r0	; 63
     fa2:	cd bf       	out	0x3d, r28	; 61
     fa4:	8a 01       	movw	r16, r20
     fa6:	88 23       	and	r24, r24
     fa8:	09 f0       	breq	.+2      	; 0xfac <disk_ioctl+0x22>
     faa:	7c c1       	rjmp	.+760    	; 0x12a4 <__stack+0x1a5>
     fac:	65 30       	cpi	r22, 0x05	; 5
     fae:	91 f4       	brne	.+36     	; 0xfd4 <disk_ioctl+0x4a>
     fb0:	fa 01       	movw	r30, r20
     fb2:	80 81       	ld	r24, Z
     fb4:	88 23       	and	r24, r24
     fb6:	21 f0       	breq	.+8      	; 0xfc0 <disk_ioctl+0x36>
     fb8:	81 30       	cpi	r24, 0x01	; 1
     fba:	09 f0       	breq	.+2      	; 0xfbe <disk_ioctl+0x34>
     fbc:	73 c1       	rjmp	.+742    	; 0x12a4 <__stack+0x1a5>
     fbe:	06 c0       	rjmp	.+12     	; 0xfcc <disk_ioctl+0x42>
     fc0:	1c bc       	out	0x2c, r1	; 44
     fc2:	8f ee       	ldi	r24, 0xEF	; 239
     fc4:	85 b9       	out	0x05, r24	; 5
     fc6:	8f e4       	ldi	r24, 0x4F	; 79
     fc8:	84 b9       	out	0x04, r24	; 4
     fca:	02 c0       	rjmp	.+4      	; 0xfd0 <disk_ioctl+0x46>
     fcc:	fa 01       	movw	r30, r20
     fce:	81 83       	std	Z+1, r24	; 0x01
     fd0:	80 e0       	ldi	r24, 0x00	; 0
     fd2:	6b c1       	rjmp	.+726    	; 0x12aa <__stack+0x1ab>
     fd4:	80 91 8a 01 	lds	r24, 0x018A
     fd8:	80 fd       	sbrc	r24, 0
     fda:	66 c1       	rjmp	.+716    	; 0x12a8 <__stack+0x1a9>
     fdc:	6a 30       	cpi	r22, 0x0A	; 10
     fde:	09 f4       	brne	.+2      	; 0xfe2 <disk_ioctl+0x58>
     fe0:	1a c1       	rjmp	.+564    	; 0x1216 <__stack+0x117>
     fe2:	6b 30       	cpi	r22, 0x0B	; 11
     fe4:	58 f4       	brcc	.+22     	; 0xffc <disk_ioctl+0x72>
     fe6:	61 30       	cpi	r22, 0x01	; 1
     fe8:	f1 f0       	breq	.+60     	; 0x1026 <disk_ioctl+0x9c>
     fea:	61 30       	cpi	r22, 0x01	; 1
     fec:	a0 f0       	brcs	.+40     	; 0x1016 <disk_ioctl+0x8c>
     fee:	62 30       	cpi	r22, 0x02	; 2
     ff0:	09 f4       	brne	.+2      	; 0xff4 <disk_ioctl+0x6a>
     ff2:	7f c0       	rjmp	.+254    	; 0x10f2 <disk_ioctl+0x168>
     ff4:	63 30       	cpi	r22, 0x03	; 3
     ff6:	09 f0       	breq	.+2      	; 0xffa <disk_ioctl+0x70>
     ff8:	4b c1       	rjmp	.+662    	; 0x1290 <__stack+0x191>
     ffa:	81 c0       	rjmp	.+258    	; 0x10fe <disk_ioctl+0x174>
     ffc:	6c 30       	cpi	r22, 0x0C	; 12
     ffe:	09 f4       	brne	.+2      	; 0x1002 <disk_ioctl+0x78>
    1000:	11 c1       	rjmp	.+546    	; 0x1224 <__stack+0x125>
    1002:	6c 30       	cpi	r22, 0x0C	; 12
    1004:	08 f4       	brcc	.+2      	; 0x1008 <disk_ioctl+0x7e>
    1006:	0c c1       	rjmp	.+536    	; 0x1220 <__stack+0x121>
    1008:	6d 30       	cpi	r22, 0x0D	; 13
    100a:	09 f4       	brne	.+2      	; 0x100e <disk_ioctl+0x84>
    100c:	19 c1       	rjmp	.+562    	; 0x1240 <__stack+0x141>
    100e:	6e 30       	cpi	r22, 0x0E	; 14
    1010:	09 f0       	breq	.+2      	; 0x1014 <disk_ioctl+0x8a>
    1012:	3e c1       	rjmp	.+636    	; 0x1290 <__stack+0x191>
    1014:	28 c1       	rjmp	.+592    	; 0x1266 <__stack+0x167>
    1016:	0e 94 5a 05 	call	0xab4	; 0xab4 <select>
    101a:	00 97       	sbiw	r24, 0x00	; 0
    101c:	09 f4       	brne	.+2      	; 0x1020 <disk_ioctl+0x96>
    101e:	3a c1       	rjmp	.+628    	; 0x1294 <__stack+0x195>
    1020:	0e 94 55 05 	call	0xaaa	; 0xaaa <deselect>
    1024:	39 c1       	rjmp	.+626    	; 0x1298 <__stack+0x199>
    1026:	89 e0       	ldi	r24, 0x09	; 9
    1028:	40 e0       	ldi	r20, 0x00	; 0
    102a:	50 e0       	ldi	r21, 0x00	; 0
    102c:	ba 01       	movw	r22, r20
    102e:	0e 94 6a 05 	call	0xad4	; 0xad4 <send_cmd>
    1032:	88 23       	and	r24, r24
    1034:	09 f0       	breq	.+2      	; 0x1038 <disk_ioctl+0xae>
    1036:	2e c1       	rjmp	.+604    	; 0x1294 <__stack+0x195>
    1038:	ce 01       	movw	r24, r28
    103a:	01 96       	adiw	r24, 0x01	; 1
    103c:	40 e1       	ldi	r20, 0x10	; 16
    103e:	50 e0       	ldi	r21, 0x00	; 0
    1040:	60 e0       	ldi	r22, 0x00	; 0
    1042:	70 e0       	ldi	r23, 0x00	; 0
    1044:	0e 94 b5 05 	call	0xb6a	; 0xb6a <rcvr_datablock>
    1048:	00 97       	sbiw	r24, 0x00	; 0
    104a:	09 f4       	brne	.+2      	; 0x104e <disk_ioctl+0xc4>
    104c:	23 c1       	rjmp	.+582    	; 0x1294 <__stack+0x195>
    104e:	99 81       	ldd	r25, Y+1	; 0x01
    1050:	92 95       	swap	r25
    1052:	96 95       	lsr	r25
    1054:	96 95       	lsr	r25
    1056:	93 70       	andi	r25, 0x03	; 3
    1058:	88 85       	ldd	r24, Y+8	; 0x08
    105a:	91 30       	cpi	r25, 0x01	; 1
    105c:	09 f5       	brne	.+66     	; 0x10a0 <disk_ioctl+0x116>
    105e:	90 e0       	ldi	r25, 0x00	; 0
    1060:	a0 e0       	ldi	r26, 0x00	; 0
    1062:	b0 e0       	ldi	r27, 0x00	; 0
    1064:	8f 73       	andi	r24, 0x3F	; 63
    1066:	90 70       	andi	r25, 0x00	; 0
    1068:	a0 70       	andi	r26, 0x00	; 0
    106a:	b0 70       	andi	r27, 0x00	; 0
    106c:	dc 01       	movw	r26, r24
    106e:	99 27       	eor	r25, r25
    1070:	88 27       	eor	r24, r24
    1072:	01 96       	adiw	r24, 0x01	; 1
    1074:	a1 1d       	adc	r26, r1
    1076:	b1 1d       	adc	r27, r1
    1078:	39 85       	ldd	r19, Y+9	; 0x09
    107a:	20 e0       	ldi	r18, 0x00	; 0
    107c:	4a 85       	ldd	r20, Y+10	; 0x0a
    107e:	24 0f       	add	r18, r20
    1080:	31 1d       	adc	r19, r1
    1082:	a9 01       	movw	r20, r18
    1084:	60 e0       	ldi	r22, 0x00	; 0
    1086:	70 e0       	ldi	r23, 0x00	; 0
    1088:	84 0f       	add	r24, r20
    108a:	95 1f       	adc	r25, r21
    108c:	a6 1f       	adc	r26, r22
    108e:	b7 1f       	adc	r27, r23
    1090:	ea e0       	ldi	r30, 0x0A	; 10
    1092:	88 0f       	add	r24, r24
    1094:	99 1f       	adc	r25, r25
    1096:	aa 1f       	adc	r26, r26
    1098:	bb 1f       	adc	r27, r27
    109a:	ea 95       	dec	r30
    109c:	d1 f7       	brne	.-12     	; 0x1092 <disk_ioctl+0x108>
    109e:	b5 c0       	rjmp	.+362    	; 0x120a <__stack+0x10b>
    10a0:	29 85       	ldd	r18, Y+9	; 0x09
    10a2:	22 95       	swap	r18
    10a4:	26 95       	lsr	r18
    10a6:	26 95       	lsr	r18
    10a8:	23 70       	andi	r18, 0x03	; 3
    10aa:	90 e0       	ldi	r25, 0x00	; 0
    10ac:	88 0f       	add	r24, r24
    10ae:	99 1f       	adc	r25, r25
    10b0:	88 0f       	add	r24, r24
    10b2:	99 1f       	adc	r25, r25
    10b4:	82 0f       	add	r24, r18
    10b6:	91 1d       	adc	r25, r1
    10b8:	01 96       	adiw	r24, 0x01	; 1
    10ba:	2f 81       	ldd	r18, Y+7	; 0x07
    10bc:	30 e0       	ldi	r19, 0x00	; 0
    10be:	23 70       	andi	r18, 0x03	; 3
    10c0:	30 70       	andi	r19, 0x00	; 0
    10c2:	32 2f       	mov	r19, r18
    10c4:	22 27       	eor	r18, r18
    10c6:	33 0f       	add	r19, r19
    10c8:	33 0f       	add	r19, r19
    10ca:	82 0f       	add	r24, r18
    10cc:	93 1f       	adc	r25, r19
    10ce:	a0 e0       	ldi	r26, 0x00	; 0
    10d0:	b0 e0       	ldi	r27, 0x00	; 0
    10d2:	2e 81       	ldd	r18, Y+6	; 0x06
    10d4:	2f 70       	andi	r18, 0x0F	; 15
    10d6:	3b 85       	ldd	r19, Y+11	; 0x0b
    10d8:	33 1f       	adc	r19, r19
    10da:	33 27       	eor	r19, r19
    10dc:	33 1f       	adc	r19, r19
    10de:	23 0f       	add	r18, r19
    10e0:	2e 5f       	subi	r18, 0xFE	; 254
    10e2:	3a 85       	ldd	r19, Y+10	; 0x0a
    10e4:	33 70       	andi	r19, 0x03	; 3
    10e6:	33 0f       	add	r19, r19
    10e8:	23 0f       	add	r18, r19
    10ea:	30 e0       	ldi	r19, 0x00	; 0
    10ec:	29 50       	subi	r18, 0x09	; 9
    10ee:	30 40       	sbci	r19, 0x00	; 0
    10f0:	2f c0       	rjmp	.+94     	; 0x1150 <__stack+0x51>
    10f2:	80 e0       	ldi	r24, 0x00	; 0
    10f4:	92 e0       	ldi	r25, 0x02	; 2
    10f6:	fa 01       	movw	r30, r20
    10f8:	91 83       	std	Z+1, r25	; 0x01
    10fa:	80 83       	st	Z, r24
    10fc:	cd c0       	rjmp	.+410    	; 0x1298 <__stack+0x199>
    10fe:	f0 90 7e 02 	lds	r15, 0x027E
    1102:	f2 fe       	sbrs	r15, 2
    1104:	2d c0       	rjmp	.+90     	; 0x1160 <__stack+0x61>
    1106:	8d e8       	ldi	r24, 0x8D	; 141
    1108:	40 e0       	ldi	r20, 0x00	; 0
    110a:	50 e0       	ldi	r21, 0x00	; 0
    110c:	ba 01       	movw	r22, r20
    110e:	0e 94 6a 05 	call	0xad4	; 0xad4 <send_cmd>
    1112:	88 23       	and	r24, r24
    1114:	09 f0       	breq	.+2      	; 0x1118 <__stack+0x19>
    1116:	be c0       	rjmp	.+380    	; 0x1294 <__stack+0x195>
    1118:	8f ef       	ldi	r24, 0xFF	; 255
    111a:	0e 94 3b 05 	call	0xa76	; 0xa76 <xchg_spi>
    111e:	ce 01       	movw	r24, r28
    1120:	01 96       	adiw	r24, 0x01	; 1
    1122:	40 e1       	ldi	r20, 0x10	; 16
    1124:	50 e0       	ldi	r21, 0x00	; 0
    1126:	60 e0       	ldi	r22, 0x00	; 0
    1128:	70 e0       	ldi	r23, 0x00	; 0
    112a:	0e 94 b5 05 	call	0xb6a	; 0xb6a <rcvr_datablock>
    112e:	00 97       	sbiw	r24, 0x00	; 0
    1130:	09 f4       	brne	.+2      	; 0x1134 <__stack+0x35>
    1132:	b0 c0       	rjmp	.+352    	; 0x1294 <__stack+0x195>
    1134:	f0 e3       	ldi	r31, 0x30	; 48
    1136:	ff 2e       	mov	r15, r31
    1138:	8f ef       	ldi	r24, 0xFF	; 255
    113a:	0e 94 3b 05 	call	0xa76	; 0xa76 <xchg_spi>
    113e:	fa 94       	dec	r15
    1140:	d9 f7       	brne	.-10     	; 0x1138 <__stack+0x39>
    1142:	2b 85       	ldd	r18, Y+11	; 0x0b
    1144:	22 95       	swap	r18
    1146:	2f 70       	andi	r18, 0x0F	; 15
    1148:	80 e1       	ldi	r24, 0x10	; 16
    114a:	90 e0       	ldi	r25, 0x00	; 0
    114c:	a0 e0       	ldi	r26, 0x00	; 0
    114e:	b0 e0       	ldi	r27, 0x00	; 0
    1150:	04 c0       	rjmp	.+8      	; 0x115a <__stack+0x5b>
    1152:	88 0f       	add	r24, r24
    1154:	99 1f       	adc	r25, r25
    1156:	aa 1f       	adc	r26, r26
    1158:	bb 1f       	adc	r27, r27
    115a:	2a 95       	dec	r18
    115c:	d2 f7       	brpl	.-12     	; 0x1152 <__stack+0x53>
    115e:	55 c0       	rjmp	.+170    	; 0x120a <__stack+0x10b>
    1160:	89 e0       	ldi	r24, 0x09	; 9
    1162:	40 e0       	ldi	r20, 0x00	; 0
    1164:	50 e0       	ldi	r21, 0x00	; 0
    1166:	ba 01       	movw	r22, r20
    1168:	0e 94 6a 05 	call	0xad4	; 0xad4 <send_cmd>
    116c:	88 23       	and	r24, r24
    116e:	09 f0       	breq	.+2      	; 0x1172 <__stack+0x73>
    1170:	91 c0       	rjmp	.+290    	; 0x1294 <__stack+0x195>
    1172:	ce 01       	movw	r24, r28
    1174:	01 96       	adiw	r24, 0x01	; 1
    1176:	40 e1       	ldi	r20, 0x10	; 16
    1178:	50 e0       	ldi	r21, 0x00	; 0
    117a:	60 e0       	ldi	r22, 0x00	; 0
    117c:	70 e0       	ldi	r23, 0x00	; 0
    117e:	0e 94 b5 05 	call	0xb6a	; 0xb6a <rcvr_datablock>
    1182:	00 97       	sbiw	r24, 0x00	; 0
    1184:	09 f4       	brne	.+2      	; 0x1188 <__stack+0x89>
    1186:	86 c0       	rjmp	.+268    	; 0x1294 <__stack+0x195>
    1188:	8c 85       	ldd	r24, Y+12	; 0x0c
    118a:	f1 fe       	sbrs	r15, 1
    118c:	1b c0       	rjmp	.+54     	; 0x11c4 <__stack+0xc5>
    118e:	88 1f       	adc	r24, r24
    1190:	88 27       	eor	r24, r24
    1192:	88 1f       	adc	r24, r24
    1194:	90 e0       	ldi	r25, 0x00	; 0
    1196:	01 96       	adiw	r24, 0x01	; 1
    1198:	2b 85       	ldd	r18, Y+11	; 0x0b
    119a:	30 e0       	ldi	r19, 0x00	; 0
    119c:	2f 73       	andi	r18, 0x3F	; 63
    119e:	30 70       	andi	r19, 0x00	; 0
    11a0:	22 0f       	add	r18, r18
    11a2:	33 1f       	adc	r19, r19
    11a4:	82 0f       	add	r24, r18
    11a6:	93 1f       	adc	r25, r19
    11a8:	2e 85       	ldd	r18, Y+14	; 0x0e
    11aa:	22 95       	swap	r18
    11ac:	26 95       	lsr	r18
    11ae:	26 95       	lsr	r18
    11b0:	23 70       	andi	r18, 0x03	; 3
    11b2:	30 e0       	ldi	r19, 0x00	; 0
    11b4:	21 50       	subi	r18, 0x01	; 1
    11b6:	30 40       	sbci	r19, 0x00	; 0
    11b8:	02 c0       	rjmp	.+4      	; 0x11be <__stack+0xbf>
    11ba:	88 0f       	add	r24, r24
    11bc:	99 1f       	adc	r25, r25
    11be:	2a 95       	dec	r18
    11c0:	e2 f7       	brpl	.-8      	; 0x11ba <__stack+0xbb>
    11c2:	21 c0       	rjmp	.+66     	; 0x1206 <__stack+0x107>
    11c4:	48 2f       	mov	r20, r24
    11c6:	50 e0       	ldi	r21, 0x00	; 0
    11c8:	43 70       	andi	r20, 0x03	; 3
    11ca:	50 70       	andi	r21, 0x00	; 0
    11cc:	63 e0       	ldi	r22, 0x03	; 3
    11ce:	44 0f       	add	r20, r20
    11d0:	55 1f       	adc	r21, r21
    11d2:	6a 95       	dec	r22
    11d4:	e1 f7       	brne	.-8      	; 0x11ce <__stack+0xcf>
    11d6:	82 95       	swap	r24
    11d8:	86 95       	lsr	r24
    11da:	87 70       	andi	r24, 0x07	; 7
    11dc:	48 0f       	add	r20, r24
    11de:	51 1d       	adc	r21, r1
    11e0:	4f 5f       	subi	r20, 0xFF	; 255
    11e2:	5f 4f       	sbci	r21, 0xFF	; 255
    11e4:	8b 85       	ldd	r24, Y+11	; 0x0b
    11e6:	90 e0       	ldi	r25, 0x00	; 0
    11e8:	8c 77       	andi	r24, 0x7C	; 124
    11ea:	90 70       	andi	r25, 0x00	; 0
    11ec:	95 95       	asr	r25
    11ee:	87 95       	ror	r24
    11f0:	95 95       	asr	r25
    11f2:	87 95       	ror	r24
    11f4:	01 96       	adiw	r24, 0x01	; 1
    11f6:	48 9f       	mul	r20, r24
    11f8:	90 01       	movw	r18, r0
    11fa:	49 9f       	mul	r20, r25
    11fc:	30 0d       	add	r19, r0
    11fe:	58 9f       	mul	r21, r24
    1200:	30 0d       	add	r19, r0
    1202:	11 24       	eor	r1, r1
    1204:	c9 01       	movw	r24, r18
    1206:	a0 e0       	ldi	r26, 0x00	; 0
    1208:	b0 e0       	ldi	r27, 0x00	; 0
    120a:	f8 01       	movw	r30, r16
    120c:	80 83       	st	Z, r24
    120e:	91 83       	std	Z+1, r25	; 0x01
    1210:	a2 83       	std	Z+2, r26	; 0x02
    1212:	b3 83       	std	Z+3, r27	; 0x03
    1214:	41 c0       	rjmp	.+130    	; 0x1298 <__stack+0x199>
    1216:	80 91 7e 02 	lds	r24, 0x027E
    121a:	fa 01       	movw	r30, r20
    121c:	80 83       	st	Z, r24
    121e:	3c c0       	rjmp	.+120    	; 0x1298 <__stack+0x199>
    1220:	89 e0       	ldi	r24, 0x09	; 9
    1222:	01 c0       	rjmp	.+2      	; 0x1226 <__stack+0x127>
    1224:	8a e0       	ldi	r24, 0x0A	; 10
    1226:	40 e0       	ldi	r20, 0x00	; 0
    1228:	50 e0       	ldi	r21, 0x00	; 0
    122a:	ba 01       	movw	r22, r20
    122c:	0e 94 6a 05 	call	0xad4	; 0xad4 <send_cmd>
    1230:	88 23       	and	r24, r24
    1232:	81 f5       	brne	.+96     	; 0x1294 <__stack+0x195>
    1234:	c8 01       	movw	r24, r16
    1236:	40 e1       	ldi	r20, 0x10	; 16
    1238:	50 e0       	ldi	r21, 0x00	; 0
    123a:	60 e0       	ldi	r22, 0x00	; 0
    123c:	70 e0       	ldi	r23, 0x00	; 0
    123e:	23 c0       	rjmp	.+70     	; 0x1286 <__stack+0x187>
    1240:	8a e3       	ldi	r24, 0x3A	; 58
    1242:	40 e0       	ldi	r20, 0x00	; 0
    1244:	50 e0       	ldi	r21, 0x00	; 0
    1246:	ba 01       	movw	r22, r20
    1248:	0e 94 6a 05 	call	0xad4	; 0xad4 <send_cmd>
    124c:	88 23       	and	r24, r24
    124e:	11 f5       	brne	.+68     	; 0x1294 <__stack+0x195>
    1250:	34 e0       	ldi	r19, 0x04	; 4
    1252:	f3 2e       	mov	r15, r19
    1254:	8f ef       	ldi	r24, 0xFF	; 255
    1256:	0e 94 3b 05 	call	0xa76	; 0xa76 <xchg_spi>
    125a:	f8 01       	movw	r30, r16
    125c:	81 93       	st	Z+, r24
    125e:	8f 01       	movw	r16, r30
    1260:	fa 94       	dec	r15
    1262:	c1 f7       	brne	.-16     	; 0x1254 <__stack+0x155>
    1264:	19 c0       	rjmp	.+50     	; 0x1298 <__stack+0x199>
    1266:	8d e8       	ldi	r24, 0x8D	; 141
    1268:	40 e0       	ldi	r20, 0x00	; 0
    126a:	50 e0       	ldi	r21, 0x00	; 0
    126c:	ba 01       	movw	r22, r20
    126e:	0e 94 6a 05 	call	0xad4	; 0xad4 <send_cmd>
    1272:	88 23       	and	r24, r24
    1274:	79 f4       	brne	.+30     	; 0x1294 <__stack+0x195>
    1276:	8f ef       	ldi	r24, 0xFF	; 255
    1278:	0e 94 3b 05 	call	0xa76	; 0xa76 <xchg_spi>
    127c:	c8 01       	movw	r24, r16
    127e:	40 e4       	ldi	r20, 0x40	; 64
    1280:	50 e0       	ldi	r21, 0x00	; 0
    1282:	60 e0       	ldi	r22, 0x00	; 0
    1284:	70 e0       	ldi	r23, 0x00	; 0
    1286:	0e 94 b5 05 	call	0xb6a	; 0xb6a <rcvr_datablock>
    128a:	00 97       	sbiw	r24, 0x00	; 0
    128c:	29 f4       	brne	.+10     	; 0x1298 <__stack+0x199>
    128e:	02 c0       	rjmp	.+4      	; 0x1294 <__stack+0x195>
    1290:	84 e0       	ldi	r24, 0x04	; 4
    1292:	03 c0       	rjmp	.+6      	; 0x129a <__stack+0x19b>
    1294:	81 e0       	ldi	r24, 0x01	; 1
    1296:	01 c0       	rjmp	.+2      	; 0x129a <__stack+0x19b>
    1298:	80 e0       	ldi	r24, 0x00	; 0
    129a:	89 8b       	std	Y+17, r24	; 0x11
    129c:	0e 94 55 05 	call	0xaaa	; 0xaaa <deselect>
    12a0:	89 89       	ldd	r24, Y+17	; 0x11
    12a2:	03 c0       	rjmp	.+6      	; 0x12aa <__stack+0x1ab>
    12a4:	84 e0       	ldi	r24, 0x04	; 4
    12a6:	01 c0       	rjmp	.+2      	; 0x12aa <__stack+0x1ab>
    12a8:	83 e0       	ldi	r24, 0x03	; 3
    12aa:	61 96       	adiw	r28, 0x11	; 17
    12ac:	0f b6       	in	r0, 0x3f	; 63
    12ae:	f8 94       	cli
    12b0:	de bf       	out	0x3e, r29	; 62
    12b2:	0f be       	out	0x3f, r0	; 63
    12b4:	cd bf       	out	0x3d, r28	; 61
    12b6:	df 91       	pop	r29
    12b8:	cf 91       	pop	r28
    12ba:	1f 91       	pop	r17
    12bc:	0f 91       	pop	r16
    12be:	ff 90       	pop	r15
    12c0:	08 95       	ret

000012c2 <disk_timerproc>:
    12c2:	80 91 7d 02 	lds	r24, 0x027D
    12c6:	88 23       	and	r24, r24
    12c8:	19 f0       	breq	.+6      	; 0x12d0 <disk_timerproc+0xe>
    12ca:	81 50       	subi	r24, 0x01	; 1
    12cc:	80 93 7d 02 	sts	0x027D, r24
    12d0:	80 91 7c 02 	lds	r24, 0x027C
    12d4:	88 23       	and	r24, r24
    12d6:	19 f0       	breq	.+6      	; 0x12de <disk_timerproc+0x1c>
    12d8:	81 50       	subi	r24, 0x01	; 1
    12da:	80 93 7c 02 	sts	0x027C, r24
    12de:	80 91 8a 01 	lds	r24, 0x018A
    12e2:	18 9b       	sbis	0x03, 0	; 3
    12e4:	02 c0       	rjmp	.+4      	; 0x12ea <disk_timerproc+0x28>
    12e6:	84 60       	ori	r24, 0x04	; 4
    12e8:	01 c0       	rjmp	.+2      	; 0x12ec <disk_timerproc+0x2a>
    12ea:	8b 7f       	andi	r24, 0xFB	; 251
    12ec:	19 99       	sbic	0x03, 1	; 3
    12ee:	02 c0       	rjmp	.+4      	; 0x12f4 <disk_timerproc+0x32>
    12f0:	8d 7f       	andi	r24, 0xFD	; 253
    12f2:	01 c0       	rjmp	.+2      	; 0x12f6 <disk_timerproc+0x34>
    12f4:	83 60       	ori	r24, 0x03	; 3
    12f6:	80 93 8a 01 	sts	0x018A, r24
    12fa:	08 95       	ret

000012fc <mem_cpy>:
    12fc:	db 01       	movw	r26, r22
    12fe:	ba 01       	movw	r22, r20
    1300:	a9 01       	movw	r20, r18
    1302:	fd 01       	movw	r30, r26
    1304:	dc 01       	movw	r26, r24
    1306:	06 c0       	rjmp	.+12     	; 0x1314 <mem_cpy+0x18>
    1308:	81 91       	ld	r24, Z+
    130a:	8d 93       	st	X+, r24
    130c:	41 50       	subi	r20, 0x01	; 1
    130e:	50 40       	sbci	r21, 0x00	; 0
    1310:	60 40       	sbci	r22, 0x00	; 0
    1312:	70 40       	sbci	r23, 0x00	; 0
    1314:	41 15       	cp	r20, r1
    1316:	51 05       	cpc	r21, r1
    1318:	61 05       	cpc	r22, r1
    131a:	71 05       	cpc	r23, r1
    131c:	a9 f7       	brne	.-22     	; 0x1308 <mem_cpy+0xc>
    131e:	08 95       	ret

00001320 <st_clust>:
    1320:	fc 01       	movw	r30, r24
    1322:	42 8f       	std	Z+26, r20	; 0x1a
    1324:	53 8f       	std	Z+27, r21	; 0x1b
    1326:	ab 01       	movw	r20, r22
    1328:	66 27       	eor	r22, r22
    132a:	77 27       	eor	r23, r23
    132c:	44 8b       	std	Z+20, r20	; 0x14
    132e:	55 8b       	std	Z+21, r21	; 0x15
    1330:	08 95       	ret

00001332 <get_fileinfo>:
    1332:	ef 92       	push	r14
    1334:	ff 92       	push	r15
    1336:	0f 93       	push	r16
    1338:	1f 93       	push	r17
    133a:	cf 93       	push	r28
    133c:	df 93       	push	r29
    133e:	fc 01       	movw	r30, r24
    1340:	7b 01       	movw	r14, r22
    1342:	8b 01       	movw	r16, r22
    1344:	07 5f       	subi	r16, 0xF7	; 247
    1346:	1f 4f       	sbci	r17, 0xFF	; 255
    1348:	86 85       	ldd	r24, Z+14	; 0x0e
    134a:	97 85       	ldd	r25, Z+15	; 0x0f
    134c:	a0 89       	ldd	r26, Z+16	; 0x10
    134e:	b1 89       	ldd	r27, Z+17	; 0x11
    1350:	00 97       	sbiw	r24, 0x00	; 0
    1352:	a1 05       	cpc	r26, r1
    1354:	b1 05       	cpc	r27, r1
    1356:	09 f4       	brne	.+2      	; 0x135a <get_fileinfo+0x28>
    1358:	63 c0       	rjmp	.+198    	; 0x1420 <get_fileinfo+0xee>
    135a:	c2 89       	ldd	r28, Z+18	; 0x12
    135c:	d3 89       	ldd	r29, Z+19	; 0x13
    135e:	fe 01       	movw	r30, r28
    1360:	d8 01       	movw	r26, r16
    1362:	80 e0       	ldi	r24, 0x00	; 0
    1364:	90 e0       	ldi	r25, 0x00	; 0
    1366:	8d 01       	movw	r16, r26
    1368:	21 91       	ld	r18, Z+
    136a:	20 32       	cpi	r18, 0x20	; 32
    136c:	49 f0       	breq	.+18     	; 0x1380 <get_fileinfo+0x4e>
    136e:	25 30       	cpi	r18, 0x05	; 5
    1370:	09 f4       	brne	.+2      	; 0x1374 <get_fileinfo+0x42>
    1372:	25 ee       	ldi	r18, 0xE5	; 229
    1374:	2d 93       	st	X+, r18
    1376:	8d 01       	movw	r16, r26
    1378:	01 96       	adiw	r24, 0x01	; 1
    137a:	88 30       	cpi	r24, 0x08	; 8
    137c:	91 05       	cpc	r25, r1
    137e:	99 f7       	brne	.-26     	; 0x1366 <get_fileinfo+0x34>
    1380:	88 85       	ldd	r24, Y+8	; 0x08
    1382:	80 32       	cpi	r24, 0x20	; 32
    1384:	99 f0       	breq	.+38     	; 0x13ac <get_fileinfo+0x7a>
    1386:	fd 01       	movw	r30, r26
    1388:	8e e2       	ldi	r24, 0x2E	; 46
    138a:	81 93       	st	Z+, r24
    138c:	ce 01       	movw	r24, r28
    138e:	08 96       	adiw	r24, 0x08	; 8
    1390:	ad 01       	movw	r20, r26
    1392:	4c 5f       	subi	r20, 0xFC	; 252
    1394:	5f 4f       	sbci	r21, 0xFF	; 255
    1396:	8f 01       	movw	r16, r30
    1398:	dc 01       	movw	r26, r24
    139a:	2d 91       	ld	r18, X+
    139c:	cd 01       	movw	r24, r26
    139e:	20 32       	cpi	r18, 0x20	; 32
    13a0:	29 f0       	breq	.+10     	; 0x13ac <get_fileinfo+0x7a>
    13a2:	21 93       	st	Z+, r18
    13a4:	8f 01       	movw	r16, r30
    13a6:	e4 17       	cp	r30, r20
    13a8:	f5 07       	cpc	r31, r21
    13aa:	a9 f7       	brne	.-22     	; 0x1396 <get_fileinfo+0x64>
    13ac:	8b 85       	ldd	r24, Y+11	; 0x0b
    13ae:	f7 01       	movw	r30, r14
    13b0:	80 87       	std	Z+8, r24	; 0x08
    13b2:	4f 8d       	ldd	r20, Y+31	; 0x1f
    13b4:	50 e0       	ldi	r21, 0x00	; 0
    13b6:	60 e0       	ldi	r22, 0x00	; 0
    13b8:	70 e0       	ldi	r23, 0x00	; 0
    13ba:	74 2f       	mov	r23, r20
    13bc:	66 27       	eor	r22, r22
    13be:	55 27       	eor	r21, r21
    13c0:	44 27       	eor	r20, r20
    13c2:	8e 8d       	ldd	r24, Y+30	; 0x1e
    13c4:	90 e0       	ldi	r25, 0x00	; 0
    13c6:	a0 e0       	ldi	r26, 0x00	; 0
    13c8:	b0 e0       	ldi	r27, 0x00	; 0
    13ca:	dc 01       	movw	r26, r24
    13cc:	99 27       	eor	r25, r25
    13ce:	88 27       	eor	r24, r24
    13d0:	48 2b       	or	r20, r24
    13d2:	59 2b       	or	r21, r25
    13d4:	6a 2b       	or	r22, r26
    13d6:	7b 2b       	or	r23, r27
    13d8:	8c 8d       	ldd	r24, Y+28	; 0x1c
    13da:	90 e0       	ldi	r25, 0x00	; 0
    13dc:	a0 e0       	ldi	r26, 0x00	; 0
    13de:	b0 e0       	ldi	r27, 0x00	; 0
    13e0:	48 2b       	or	r20, r24
    13e2:	59 2b       	or	r21, r25
    13e4:	6a 2b       	or	r22, r26
    13e6:	7b 2b       	or	r23, r27
    13e8:	9d 8d       	ldd	r25, Y+29	; 0x1d
    13ea:	80 e0       	ldi	r24, 0x00	; 0
    13ec:	a0 e0       	ldi	r26, 0x00	; 0
    13ee:	b0 e0       	ldi	r27, 0x00	; 0
    13f0:	48 2b       	or	r20, r24
    13f2:	59 2b       	or	r21, r25
    13f4:	6a 2b       	or	r22, r26
    13f6:	7b 2b       	or	r23, r27
    13f8:	40 83       	st	Z, r20
    13fa:	51 83       	std	Z+1, r21	; 0x01
    13fc:	62 83       	std	Z+2, r22	; 0x02
    13fe:	73 83       	std	Z+3, r23	; 0x03
    1400:	39 8d       	ldd	r19, Y+25	; 0x19
    1402:	20 e0       	ldi	r18, 0x00	; 0
    1404:	88 8d       	ldd	r24, Y+24	; 0x18
    1406:	90 e0       	ldi	r25, 0x00	; 0
    1408:	82 2b       	or	r24, r18
    140a:	93 2b       	or	r25, r19
    140c:	95 83       	std	Z+5, r25	; 0x05
    140e:	84 83       	std	Z+4, r24	; 0x04
    1410:	9f 89       	ldd	r25, Y+23	; 0x17
    1412:	80 e0       	ldi	r24, 0x00	; 0
    1414:	2e 89       	ldd	r18, Y+22	; 0x16
    1416:	30 e0       	ldi	r19, 0x00	; 0
    1418:	28 2b       	or	r18, r24
    141a:	39 2b       	or	r19, r25
    141c:	37 83       	std	Z+7, r19	; 0x07
    141e:	26 83       	std	Z+6, r18	; 0x06
    1420:	f8 01       	movw	r30, r16
    1422:	10 82       	st	Z, r1
    1424:	df 91       	pop	r29
    1426:	cf 91       	pop	r28
    1428:	1f 91       	pop	r17
    142a:	0f 91       	pop	r16
    142c:	ff 90       	pop	r15
    142e:	ef 90       	pop	r14
    1430:	08 95       	ret

00001432 <move_window>:
    1432:	6f 92       	push	r6
    1434:	7f 92       	push	r7
    1436:	8f 92       	push	r8
    1438:	9f 92       	push	r9
    143a:	af 92       	push	r10
    143c:	bf 92       	push	r11
    143e:	cf 92       	push	r12
    1440:	df 92       	push	r13
    1442:	ef 92       	push	r14
    1444:	ff 92       	push	r15
    1446:	0f 93       	push	r16
    1448:	1f 93       	push	r17
    144a:	cf 93       	push	r28
    144c:	df 93       	push	r29
    144e:	ec 01       	movw	r28, r24
    1450:	4a 01       	movw	r8, r20
    1452:	5b 01       	movw	r10, r22
    1454:	ce a4       	lds	r28, 0xae
    1456:	df a4       	lds	r29, 0xaf
    1458:	e8 a8       	sts	0x88, r30
    145a:	f9 a8       	sts	0x89, r31
    145c:	c4 16       	cp	r12, r20
    145e:	d5 06       	cpc	r13, r21
    1460:	e6 06       	cpc	r14, r22
    1462:	f7 06       	cpc	r15, r23
    1464:	09 f4       	brne	.+2      	; 0x1468 <move_window+0x36>
    1466:	4c c0       	rjmp	.+152    	; 0x1500 <move_window+0xce>
    1468:	8c 81       	ldd	r24, Y+4	; 0x04
    146a:	88 23       	and	r24, r24
    146c:	a1 f1       	breq	.+104    	; 0x14d6 <move_window+0xa4>
    146e:	32 e3       	ldi	r19, 0x32	; 50
    1470:	63 2e       	mov	r6, r19
    1472:	71 2c       	mov	r7, r1
    1474:	6c 0e       	add	r6, r28
    1476:	7d 1e       	adc	r7, r29
    1478:	89 81       	ldd	r24, Y+1	; 0x01
    147a:	b3 01       	movw	r22, r6
    147c:	a7 01       	movw	r20, r14
    147e:	96 01       	movw	r18, r12
    1480:	01 e0       	ldi	r16, 0x01	; 1
    1482:	0e 94 56 07 	call	0xeac	; 0xeac <disk_write>
    1486:	88 23       	and	r24, r24
    1488:	e9 f5       	brne	.+122    	; 0x1504 <move_window+0xd2>
    148a:	1c 82       	std	Y+4, r1	; 0x04
    148c:	8e 8d       	ldd	r24, Y+30	; 0x1e
    148e:	9f 8d       	ldd	r25, Y+31	; 0x1f
    1490:	a8 a1       	lds	r26, 0x48
    1492:	b9 a1       	lds	r27, 0x49
    1494:	4a a1       	lds	r20, 0x4a
    1496:	5b a1       	lds	r21, 0x4b
    1498:	6c a1       	lds	r22, 0x4c
    149a:	7d a1       	lds	r23, 0x4d
    149c:	84 0f       	add	r24, r20
    149e:	95 1f       	adc	r25, r21
    14a0:	a6 1f       	adc	r26, r22
    14a2:	b7 1f       	adc	r27, r23
    14a4:	c8 16       	cp	r12, r24
    14a6:	d9 06       	cpc	r13, r25
    14a8:	ea 06       	cpc	r14, r26
    14aa:	fb 06       	cpc	r15, r27
    14ac:	a0 f4       	brcc	.+40     	; 0x14d6 <move_window+0xa4>
    14ae:	1b 81       	ldd	r17, Y+3	; 0x03
    14b0:	10 c0       	rjmp	.+32     	; 0x14d2 <move_window+0xa0>
    14b2:	8e 8d       	ldd	r24, Y+30	; 0x1e
    14b4:	9f 8d       	ldd	r25, Y+31	; 0x1f
    14b6:	a8 a1       	lds	r26, 0x48
    14b8:	b9 a1       	lds	r27, 0x49
    14ba:	c8 0e       	add	r12, r24
    14bc:	d9 1e       	adc	r13, r25
    14be:	ea 1e       	adc	r14, r26
    14c0:	fb 1e       	adc	r15, r27
    14c2:	89 81       	ldd	r24, Y+1	; 0x01
    14c4:	b3 01       	movw	r22, r6
    14c6:	a7 01       	movw	r20, r14
    14c8:	96 01       	movw	r18, r12
    14ca:	01 e0       	ldi	r16, 0x01	; 1
    14cc:	0e 94 56 07 	call	0xeac	; 0xeac <disk_write>
    14d0:	11 50       	subi	r17, 0x01	; 1
    14d2:	12 30       	cpi	r17, 0x02	; 2
    14d4:	70 f7       	brcc	.-36     	; 0x14b2 <move_window+0x80>
    14d6:	81 14       	cp	r8, r1
    14d8:	91 04       	cpc	r9, r1
    14da:	a1 04       	cpc	r10, r1
    14dc:	b1 04       	cpc	r11, r1
    14de:	81 f0       	breq	.+32     	; 0x1500 <move_window+0xce>
    14e0:	be 01       	movw	r22, r28
    14e2:	6e 5c       	subi	r22, 0xCE	; 206
    14e4:	7f 4f       	sbci	r23, 0xFF	; 255
    14e6:	89 81       	ldd	r24, Y+1	; 0x01
    14e8:	a5 01       	movw	r20, r10
    14ea:	94 01       	movw	r18, r8
    14ec:	01 e0       	ldi	r16, 0x01	; 1
    14ee:	0e 94 02 07 	call	0xe04	; 0xe04 <disk_read>
    14f2:	88 23       	and	r24, r24
    14f4:	39 f4       	brne	.+14     	; 0x1504 <move_window+0xd2>
    14f6:	8e a6       	lds	r24, 0xbe
    14f8:	9f a6       	lds	r25, 0xbf
    14fa:	a8 aa       	sts	0x98, r26
    14fc:	b9 aa       	sts	0x99, r27
    14fe:	03 c0       	rjmp	.+6      	; 0x1506 <move_window+0xd4>
    1500:	80 e0       	ldi	r24, 0x00	; 0
    1502:	01 c0       	rjmp	.+2      	; 0x1506 <move_window+0xd4>
    1504:	81 e0       	ldi	r24, 0x01	; 1
    1506:	df 91       	pop	r29
    1508:	cf 91       	pop	r28
    150a:	1f 91       	pop	r17
    150c:	0f 91       	pop	r16
    150e:	ff 90       	pop	r15
    1510:	ef 90       	pop	r14
    1512:	df 90       	pop	r13
    1514:	cf 90       	pop	r12
    1516:	bf 90       	pop	r11
    1518:	af 90       	pop	r10
    151a:	9f 90       	pop	r9
    151c:	8f 90       	pop	r8
    151e:	7f 90       	pop	r7
    1520:	6f 90       	pop	r6
    1522:	08 95       	ret

00001524 <sync>:
    1524:	0f 93       	push	r16
    1526:	cf 93       	push	r28
    1528:	df 93       	push	r29
    152a:	ec 01       	movw	r28, r24
    152c:	40 e0       	ldi	r20, 0x00	; 0
    152e:	50 e0       	ldi	r21, 0x00	; 0
    1530:	ba 01       	movw	r22, r20
    1532:	0e 94 19 0a 	call	0x1432	; 0x1432 <move_window>
    1536:	98 2f       	mov	r25, r24
    1538:	88 23       	and	r24, r24
    153a:	09 f0       	breq	.+2      	; 0x153e <sync+0x1a>
    153c:	75 c0       	rjmp	.+234    	; 0x1628 <sync+0x104>
    153e:	88 81       	ld	r24, Y
    1540:	83 30       	cpi	r24, 0x03	; 3
    1542:	09 f0       	breq	.+2      	; 0x1546 <sync+0x22>
    1544:	67 c0       	rjmp	.+206    	; 0x1614 <sync+0xf0>
    1546:	8d 81       	ldd	r24, Y+5	; 0x05
    1548:	88 23       	and	r24, r24
    154a:	09 f4       	brne	.+2      	; 0x154e <sync+0x2a>
    154c:	63 c0       	rjmp	.+198    	; 0x1614 <sync+0xf0>
    154e:	1e a6       	lds	r17, 0xbe
    1550:	1f a6       	lds	r17, 0xbf
    1552:	18 aa       	sts	0x98, r17
    1554:	19 aa       	sts	0x99, r17
    1556:	be 01       	movw	r22, r28
    1558:	6e 5c       	subi	r22, 0xCE	; 206
    155a:	7f 4f       	sbci	r23, 0xFF	; 255
    155c:	ce 01       	movw	r24, r28
    155e:	8e 5c       	subi	r24, 0xCE	; 206
    1560:	9d 4f       	sbci	r25, 0xFD	; 253
    1562:	fb 01       	movw	r30, r22
    1564:	01 c0       	rjmp	.+2      	; 0x1568 <sync+0x44>
    1566:	11 92       	st	Z+, r1
    1568:	e8 17       	cp	r30, r24
    156a:	f9 07       	cpc	r31, r25
    156c:	e1 f7       	brne	.-8      	; 0x1566 <sync+0x42>
    156e:	fe 01       	movw	r30, r28
    1570:	e0 5d       	subi	r30, 0xD0	; 208
    1572:	fd 4f       	sbci	r31, 0xFD	; 253
    1574:	85 e5       	ldi	r24, 0x55	; 85
    1576:	80 83       	st	Z, r24
    1578:	fe 01       	movw	r30, r28
    157a:	ef 5c       	subi	r30, 0xCF	; 207
    157c:	fd 4f       	sbci	r31, 0xFD	; 253
    157e:	8a ea       	ldi	r24, 0xAA	; 170
    1580:	80 83       	st	Z, r24
    1582:	82 e5       	ldi	r24, 0x52	; 82
    1584:	8a ab       	sts	0x5a, r24
    1586:	8b ab       	sts	0x5b, r24
    1588:	81 e6       	ldi	r24, 0x61	; 97
    158a:	8c ab       	sts	0x5c, r24
    158c:	91 e4       	ldi	r25, 0x41	; 65
    158e:	9d ab       	sts	0x5d, r25
    1590:	fe 01       	movw	r30, r28
    1592:	ea 5e       	subi	r30, 0xEA	; 234
    1594:	fd 4f       	sbci	r31, 0xFD	; 253
    1596:	22 e7       	ldi	r18, 0x72	; 114
    1598:	20 83       	st	Z, r18
    159a:	fe 01       	movw	r30, r28
    159c:	e9 5e       	subi	r30, 0xE9	; 233
    159e:	fd 4f       	sbci	r31, 0xFD	; 253
    15a0:	20 83       	st	Z, r18
    15a2:	fe 01       	movw	r30, r28
    15a4:	e8 5e       	subi	r30, 0xE8	; 232
    15a6:	fd 4f       	sbci	r31, 0xFD	; 253
    15a8:	90 83       	st	Z, r25
    15aa:	fe 01       	movw	r30, r28
    15ac:	e7 5e       	subi	r30, 0xE7	; 231
    15ae:	fd 4f       	sbci	r31, 0xFD	; 253
    15b0:	80 83       	st	Z, r24
    15b2:	3e 85       	ldd	r19, Y+14	; 0x0e
    15b4:	2f 85       	ldd	r18, Y+15	; 0x0f
    15b6:	98 89       	ldd	r25, Y+16	; 0x10
    15b8:	89 89       	ldd	r24, Y+17	; 0x11
    15ba:	fe 01       	movw	r30, r28
    15bc:	e6 5e       	subi	r30, 0xE6	; 230
    15be:	fd 4f       	sbci	r31, 0xFD	; 253
    15c0:	30 83       	st	Z, r19
    15c2:	fe 01       	movw	r30, r28
    15c4:	e5 5e       	subi	r30, 0xE5	; 229
    15c6:	fd 4f       	sbci	r31, 0xFD	; 253
    15c8:	20 83       	st	Z, r18
    15ca:	fe 01       	movw	r30, r28
    15cc:	e4 5e       	subi	r30, 0xE4	; 228
    15ce:	fd 4f       	sbci	r31, 0xFD	; 253
    15d0:	90 83       	st	Z, r25
    15d2:	fe 01       	movw	r30, r28
    15d4:	e3 5e       	subi	r30, 0xE3	; 227
    15d6:	fd 4f       	sbci	r31, 0xFD	; 253
    15d8:	80 83       	st	Z, r24
    15da:	3a 85       	ldd	r19, Y+10	; 0x0a
    15dc:	2b 85       	ldd	r18, Y+11	; 0x0b
    15de:	9c 85       	ldd	r25, Y+12	; 0x0c
    15e0:	8d 85       	ldd	r24, Y+13	; 0x0d
    15e2:	fe 01       	movw	r30, r28
    15e4:	e2 5e       	subi	r30, 0xE2	; 226
    15e6:	fd 4f       	sbci	r31, 0xFD	; 253
    15e8:	30 83       	st	Z, r19
    15ea:	fe 01       	movw	r30, r28
    15ec:	e1 5e       	subi	r30, 0xE1	; 225
    15ee:	fd 4f       	sbci	r31, 0xFD	; 253
    15f0:	20 83       	st	Z, r18
    15f2:	fe 01       	movw	r30, r28
    15f4:	e0 5e       	subi	r30, 0xE0	; 224
    15f6:	fd 4f       	sbci	r31, 0xFD	; 253
    15f8:	90 83       	st	Z, r25
    15fa:	fe 01       	movw	r30, r28
    15fc:	ef 5d       	subi	r30, 0xDF	; 223
    15fe:	fd 4f       	sbci	r31, 0xFD	; 253
    1600:	80 83       	st	Z, r24
    1602:	2a 89       	ldd	r18, Y+18	; 0x12
    1604:	3b 89       	ldd	r19, Y+19	; 0x13
    1606:	4c 89       	ldd	r20, Y+20	; 0x14
    1608:	5d 89       	ldd	r21, Y+21	; 0x15
    160a:	89 81       	ldd	r24, Y+1	; 0x01
    160c:	01 e0       	ldi	r16, 0x01	; 1
    160e:	0e 94 56 07 	call	0xeac	; 0xeac <disk_write>
    1612:	1d 82       	std	Y+5, r1	; 0x05
    1614:	89 81       	ldd	r24, Y+1	; 0x01
    1616:	60 e0       	ldi	r22, 0x00	; 0
    1618:	40 e0       	ldi	r20, 0x00	; 0
    161a:	50 e0       	ldi	r21, 0x00	; 0
    161c:	0e 94 c5 07 	call	0xf8a	; 0xf8a <disk_ioctl>
    1620:	91 e0       	ldi	r25, 0x01	; 1
    1622:	88 23       	and	r24, r24
    1624:	09 f4       	brne	.+2      	; 0x1628 <sync+0x104>
    1626:	90 e0       	ldi	r25, 0x00	; 0
    1628:	89 2f       	mov	r24, r25
    162a:	df 91       	pop	r29
    162c:	cf 91       	pop	r28
    162e:	0f 91       	pop	r16
    1630:	08 95       	ret

00001632 <ld_clust.isra.0>:
    1632:	0f 93       	push	r16
    1634:	1f 93       	push	r17
    1636:	fb 01       	movw	r30, r22
    1638:	33 8d       	ldd	r19, Z+27	; 0x1b
    163a:	20 e0       	ldi	r18, 0x00	; 0
    163c:	02 8d       	ldd	r16, Z+26	; 0x1a
    163e:	10 e0       	ldi	r17, 0x00	; 0
    1640:	02 2b       	or	r16, r18
    1642:	13 2b       	or	r17, r19
    1644:	20 e0       	ldi	r18, 0x00	; 0
    1646:	30 e0       	ldi	r19, 0x00	; 0
    1648:	83 30       	cpi	r24, 0x03	; 3
    164a:	79 f4       	brne	.+30     	; 0x166a <ld_clust.isra.0+0x38>
    164c:	55 89       	ldd	r21, Z+21	; 0x15
    164e:	40 e0       	ldi	r20, 0x00	; 0
    1650:	84 89       	ldd	r24, Z+20	; 0x14
    1652:	90 e0       	ldi	r25, 0x00	; 0
    1654:	84 2b       	or	r24, r20
    1656:	95 2b       	or	r25, r21
    1658:	a0 e0       	ldi	r26, 0x00	; 0
    165a:	b0 e0       	ldi	r27, 0x00	; 0
    165c:	dc 01       	movw	r26, r24
    165e:	99 27       	eor	r25, r25
    1660:	88 27       	eor	r24, r24
    1662:	08 2b       	or	r16, r24
    1664:	19 2b       	or	r17, r25
    1666:	2a 2b       	or	r18, r26
    1668:	3b 2b       	or	r19, r27
    166a:	b8 01       	movw	r22, r16
    166c:	c9 01       	movw	r24, r18
    166e:	1f 91       	pop	r17
    1670:	0f 91       	pop	r16
    1672:	08 95       	ret

00001674 <validate>:
    1674:	dc 01       	movw	r26, r24
    1676:	ed 91       	ld	r30, X+
    1678:	fc 91       	ld	r31, X
    167a:	11 97       	sbiw	r26, 0x01	; 1
    167c:	30 97       	sbiw	r30, 0x00	; 0
    167e:	a9 f0       	breq	.+42     	; 0x16aa <validate+0x36>
    1680:	80 81       	ld	r24, Z
    1682:	88 23       	and	r24, r24
    1684:	91 f0       	breq	.+36     	; 0x16aa <validate+0x36>
    1686:	26 81       	ldd	r18, Z+6	; 0x06
    1688:	37 81       	ldd	r19, Z+7	; 0x07
    168a:	12 96       	adiw	r26, 0x02	; 2
    168c:	8d 91       	ld	r24, X+
    168e:	9c 91       	ld	r25, X
    1690:	13 97       	sbiw	r26, 0x03	; 3
    1692:	28 17       	cp	r18, r24
    1694:	39 07       	cpc	r19, r25
    1696:	59 f4       	brne	.+22     	; 0x16ae <validate+0x3a>
    1698:	81 81       	ldd	r24, Z+1	; 0x01
    169a:	0e 94 fb 06 	call	0xdf6	; 0xdf6 <disk_status>
    169e:	80 ff       	sbrs	r24, 0
    16a0:	02 c0       	rjmp	.+4      	; 0x16a6 <validate+0x32>
    16a2:	83 e0       	ldi	r24, 0x03	; 3
    16a4:	08 95       	ret
    16a6:	80 e0       	ldi	r24, 0x00	; 0
    16a8:	08 95       	ret
    16aa:	89 e0       	ldi	r24, 0x09	; 9
    16ac:	08 95       	ret
    16ae:	89 e0       	ldi	r24, 0x09	; 9
    16b0:	08 95       	ret

000016b2 <check_fs>:
    16b2:	0f 93       	push	r16
    16b4:	cf 93       	push	r28
    16b6:	df 93       	push	r29
    16b8:	ec 01       	movw	r28, r24
    16ba:	9a 01       	movw	r18, r20
    16bc:	ab 01       	movw	r20, r22
    16be:	bc 01       	movw	r22, r24
    16c0:	6e 5c       	subi	r22, 0xCE	; 206
    16c2:	7f 4f       	sbci	r23, 0xFF	; 255
    16c4:	89 81       	ldd	r24, Y+1	; 0x01
    16c6:	01 e0       	ldi	r16, 0x01	; 1
    16c8:	0e 94 02 07 	call	0xe04	; 0xe04 <disk_read>
    16cc:	88 23       	and	r24, r24
    16ce:	09 f0       	breq	.+2      	; 0x16d2 <check_fs+0x20>
    16d0:	83 c0       	rjmp	.+262    	; 0x17d8 <check_fs+0x126>
    16d2:	fe 01       	movw	r30, r28
    16d4:	ef 5c       	subi	r30, 0xCF	; 207
    16d6:	fd 4f       	sbci	r31, 0xFD	; 253
    16d8:	90 81       	ld	r25, Z
    16da:	80 e0       	ldi	r24, 0x00	; 0
    16dc:	fe 01       	movw	r30, r28
    16de:	e0 5d       	subi	r30, 0xD0	; 208
    16e0:	fd 4f       	sbci	r31, 0xFD	; 253
    16e2:	20 81       	ld	r18, Z
    16e4:	30 e0       	ldi	r19, 0x00	; 0
    16e6:	28 2b       	or	r18, r24
    16e8:	39 2b       	or	r19, r25
    16ea:	8a ea       	ldi	r24, 0xAA	; 170
    16ec:	25 35       	cpi	r18, 0x55	; 85
    16ee:	38 07       	cpc	r19, r24
    16f0:	09 f0       	breq	.+2      	; 0x16f4 <check_fs+0x42>
    16f2:	74 c0       	rjmp	.+232    	; 0x17dc <check_fs+0x12a>
    16f4:	fe 01       	movw	r30, r28
    16f6:	e5 59       	subi	r30, 0x95	; 149
    16f8:	ff 4f       	sbci	r31, 0xFF	; 255
    16fa:	40 81       	ld	r20, Z
    16fc:	50 e0       	ldi	r21, 0x00	; 0
    16fe:	60 e0       	ldi	r22, 0x00	; 0
    1700:	70 e0       	ldi	r23, 0x00	; 0
    1702:	74 2f       	mov	r23, r20
    1704:	66 27       	eor	r22, r22
    1706:	55 27       	eor	r21, r21
    1708:	44 27       	eor	r20, r20
    170a:	fe 01       	movw	r30, r28
    170c:	e6 59       	subi	r30, 0x96	; 150
    170e:	ff 4f       	sbci	r31, 0xFF	; 255
    1710:	80 81       	ld	r24, Z
    1712:	90 e0       	ldi	r25, 0x00	; 0
    1714:	a0 e0       	ldi	r26, 0x00	; 0
    1716:	b0 e0       	ldi	r27, 0x00	; 0
    1718:	dc 01       	movw	r26, r24
    171a:	99 27       	eor	r25, r25
    171c:	88 27       	eor	r24, r24
    171e:	48 2b       	or	r20, r24
    1720:	59 2b       	or	r21, r25
    1722:	6a 2b       	or	r22, r26
    1724:	7b 2b       	or	r23, r27
    1726:	fe 01       	movw	r30, r28
    1728:	e8 59       	subi	r30, 0x98	; 152
    172a:	ff 4f       	sbci	r31, 0xFF	; 255
    172c:	80 81       	ld	r24, Z
    172e:	90 e0       	ldi	r25, 0x00	; 0
    1730:	a0 e0       	ldi	r26, 0x00	; 0
    1732:	b0 e0       	ldi	r27, 0x00	; 0
    1734:	48 2b       	or	r20, r24
    1736:	59 2b       	or	r21, r25
    1738:	6a 2b       	or	r22, r26
    173a:	7b 2b       	or	r23, r27
    173c:	fe 01       	movw	r30, r28
    173e:	e7 59       	subi	r30, 0x97	; 151
    1740:	ff 4f       	sbci	r31, 0xFF	; 255
    1742:	90 81       	ld	r25, Z
    1744:	80 e0       	ldi	r24, 0x00	; 0
    1746:	a0 e0       	ldi	r26, 0x00	; 0
    1748:	b0 e0       	ldi	r27, 0x00	; 0
    174a:	48 2b       	or	r20, r24
    174c:	59 2b       	or	r21, r25
    174e:	6a 2b       	or	r22, r26
    1750:	7b 2b       	or	r23, r27
    1752:	70 70       	andi	r23, 0x00	; 0
    1754:	46 34       	cpi	r20, 0x46	; 70
    1756:	91 e4       	ldi	r25, 0x41	; 65
    1758:	59 07       	cpc	r21, r25
    175a:	94 e5       	ldi	r25, 0x54	; 84
    175c:	69 07       	cpc	r22, r25
    175e:	90 e0       	ldi	r25, 0x00	; 0
    1760:	79 07       	cpc	r23, r25
    1762:	f1 f1       	breq	.+124    	; 0x17e0 <check_fs+0x12e>
    1764:	fe 01       	movw	r30, r28
    1766:	e9 57       	subi	r30, 0x79	; 121
    1768:	ff 4f       	sbci	r31, 0xFF	; 255
    176a:	40 81       	ld	r20, Z
    176c:	50 e0       	ldi	r21, 0x00	; 0
    176e:	60 e0       	ldi	r22, 0x00	; 0
    1770:	70 e0       	ldi	r23, 0x00	; 0
    1772:	74 2f       	mov	r23, r20
    1774:	66 27       	eor	r22, r22
    1776:	55 27       	eor	r21, r21
    1778:	44 27       	eor	r20, r20
    177a:	fe 01       	movw	r30, r28
    177c:	ea 57       	subi	r30, 0x7A	; 122
    177e:	ff 4f       	sbci	r31, 0xFF	; 255
    1780:	80 81       	ld	r24, Z
    1782:	90 e0       	ldi	r25, 0x00	; 0
    1784:	a0 e0       	ldi	r26, 0x00	; 0
    1786:	b0 e0       	ldi	r27, 0x00	; 0
    1788:	dc 01       	movw	r26, r24
    178a:	99 27       	eor	r25, r25
    178c:	88 27       	eor	r24, r24
    178e:	48 2b       	or	r20, r24
    1790:	59 2b       	or	r21, r25
    1792:	6a 2b       	or	r22, r26
    1794:	7b 2b       	or	r23, r27
    1796:	fe 01       	movw	r30, r28
    1798:	ec 57       	subi	r30, 0x7C	; 124
    179a:	ff 4f       	sbci	r31, 0xFF	; 255
    179c:	80 81       	ld	r24, Z
    179e:	90 e0       	ldi	r25, 0x00	; 0
    17a0:	a0 e0       	ldi	r26, 0x00	; 0
    17a2:	b0 e0       	ldi	r27, 0x00	; 0
    17a4:	48 2b       	or	r20, r24
    17a6:	59 2b       	or	r21, r25
    17a8:	6a 2b       	or	r22, r26
    17aa:	7b 2b       	or	r23, r27
    17ac:	fe 01       	movw	r30, r28
    17ae:	eb 57       	subi	r30, 0x7B	; 123
    17b0:	ff 4f       	sbci	r31, 0xFF	; 255
    17b2:	90 81       	ld	r25, Z
    17b4:	80 e0       	ldi	r24, 0x00	; 0
    17b6:	a0 e0       	ldi	r26, 0x00	; 0
    17b8:	b0 e0       	ldi	r27, 0x00	; 0
    17ba:	48 2b       	or	r20, r24
    17bc:	59 2b       	or	r21, r25
    17be:	6a 2b       	or	r22, r26
    17c0:	7b 2b       	or	r23, r27
    17c2:	70 70       	andi	r23, 0x00	; 0
    17c4:	81 e0       	ldi	r24, 0x01	; 1
    17c6:	46 34       	cpi	r20, 0x46	; 70
    17c8:	91 e4       	ldi	r25, 0x41	; 65
    17ca:	59 07       	cpc	r21, r25
    17cc:	94 e5       	ldi	r25, 0x54	; 84
    17ce:	69 07       	cpc	r22, r25
    17d0:	90 e0       	ldi	r25, 0x00	; 0
    17d2:	79 07       	cpc	r23, r25
    17d4:	31 f4       	brne	.+12     	; 0x17e2 <check_fs+0x130>
    17d6:	04 c0       	rjmp	.+8      	; 0x17e0 <check_fs+0x12e>
    17d8:	83 e0       	ldi	r24, 0x03	; 3
    17da:	03 c0       	rjmp	.+6      	; 0x17e2 <check_fs+0x130>
    17dc:	82 e0       	ldi	r24, 0x02	; 2
    17de:	01 c0       	rjmp	.+2      	; 0x17e2 <check_fs+0x130>
    17e0:	80 e0       	ldi	r24, 0x00	; 0
    17e2:	df 91       	pop	r29
    17e4:	cf 91       	pop	r28
    17e6:	0f 91       	pop	r16
    17e8:	08 95       	ret

000017ea <chk_mounted>:
    17ea:	3f 92       	push	r3
    17ec:	4f 92       	push	r4
    17ee:	5f 92       	push	r5
    17f0:	6f 92       	push	r6
    17f2:	7f 92       	push	r7
    17f4:	8f 92       	push	r8
    17f6:	9f 92       	push	r9
    17f8:	af 92       	push	r10
    17fa:	bf 92       	push	r11
    17fc:	cf 92       	push	r12
    17fe:	df 92       	push	r13
    1800:	ef 92       	push	r14
    1802:	ff 92       	push	r15
    1804:	0f 93       	push	r16
    1806:	1f 93       	push	r17
    1808:	cf 93       	push	r28
    180a:	df 93       	push	r29
    180c:	cd b7       	in	r28, 0x3d	; 61
    180e:	de b7       	in	r29, 0x3e	; 62
    1810:	60 97       	sbiw	r28, 0x10	; 16
    1812:	0f b6       	in	r0, 0x3f	; 63
    1814:	f8 94       	cli
    1816:	de bf       	out	0x3e, r29	; 62
    1818:	0f be       	out	0x3f, r0	; 63
    181a:	cd bf       	out	0x3d, r28	; 61
    181c:	dc 01       	movw	r26, r24
    181e:	9b 01       	movw	r18, r22
    1820:	04 2f       	mov	r16, r20
    1822:	ed 91       	ld	r30, X+
    1824:	fc 91       	ld	r31, X
    1826:	11 97       	sbiw	r26, 0x01	; 1
    1828:	40 81       	ld	r20, Z
    182a:	50 e0       	ldi	r21, 0x00	; 0
    182c:	40 53       	subi	r20, 0x30	; 48
    182e:	50 40       	sbci	r21, 0x00	; 0
    1830:	66 27       	eor	r22, r22
    1832:	57 fd       	sbrc	r21, 7
    1834:	60 95       	com	r22
    1836:	76 2f       	mov	r23, r22
    1838:	4a 30       	cpi	r20, 0x0A	; 10
    183a:	51 05       	cpc	r21, r1
    183c:	61 05       	cpc	r22, r1
    183e:	71 05       	cpc	r23, r1
    1840:	48 f4       	brcc	.+18     	; 0x1854 <chk_mounted+0x6a>
    1842:	81 81       	ldd	r24, Z+1	; 0x01
    1844:	8a 33       	cpi	r24, 0x3A	; 58
    1846:	31 f4       	brne	.+12     	; 0x1854 <chk_mounted+0x6a>
    1848:	cf 01       	movw	r24, r30
    184a:	02 96       	adiw	r24, 0x02	; 2
    184c:	11 96       	adiw	r26, 0x01	; 1
    184e:	9c 93       	st	X, r25
    1850:	8e 93       	st	-X, r24
    1852:	05 c0       	rjmp	.+10     	; 0x185e <chk_mounted+0x74>
    1854:	40 91 81 02 	lds	r20, 0x0281
    1858:	50 e0       	ldi	r21, 0x00	; 0
    185a:	60 e0       	ldi	r22, 0x00	; 0
    185c:	70 e0       	ldi	r23, 0x00	; 0
    185e:	d9 01       	movw	r26, r18
    1860:	11 96       	adiw	r26, 0x01	; 1
    1862:	1c 92       	st	X, r1
    1864:	1e 92       	st	-X, r1
    1866:	41 15       	cp	r20, r1
    1868:	51 05       	cpc	r21, r1
    186a:	61 05       	cpc	r22, r1
    186c:	71 05       	cpc	r23, r1
    186e:	09 f0       	breq	.+2      	; 0x1872 <chk_mounted+0x88>
    1870:	d4 c3       	rjmp	.+1960   	; 0x201a <chk_mounted+0x830>
    1872:	e0 91 7f 02 	lds	r30, 0x027F
    1876:	f0 91 80 02 	lds	r31, 0x0280
    187a:	f8 8b       	std	Y+16, r31	; 0x10
    187c:	ef 87       	std	Y+15, r30	; 0x0f
    187e:	30 97       	sbiw	r30, 0x00	; 0
    1880:	09 f4       	brne	.+2      	; 0x1884 <chk_mounted+0x9a>
    1882:	cd c3       	rjmp	.+1946   	; 0x201e <chk_mounted+0x834>
    1884:	11 96       	adiw	r26, 0x01	; 1
    1886:	fc 93       	st	X, r31
    1888:	ee 93       	st	-X, r30
    188a:	80 81       	ld	r24, Z
    188c:	88 23       	and	r24, r24
    188e:	59 f0       	breq	.+22     	; 0x18a6 <chk_mounted+0xbc>
    1890:	81 81       	ldd	r24, Z+1	; 0x01
    1892:	0e 94 fb 06 	call	0xdf6	; 0xdf6 <disk_status>
    1896:	80 fd       	sbrc	r24, 0
    1898:	06 c0       	rjmp	.+12     	; 0x18a6 <chk_mounted+0xbc>
    189a:	00 23       	and	r16, r16
    189c:	09 f4       	brne	.+2      	; 0x18a0 <chk_mounted+0xb6>
    189e:	c1 c3       	rjmp	.+1922   	; 0x2022 <chk_mounted+0x838>
    18a0:	82 fd       	sbrc	r24, 2
    18a2:	c3 c3       	rjmp	.+1926   	; 0x202a <chk_mounted+0x840>
    18a4:	be c3       	rjmp	.+1916   	; 0x2022 <chk_mounted+0x838>
    18a6:	af 85       	ldd	r26, Y+15	; 0x0f
    18a8:	b8 89       	ldd	r27, Y+16	; 0x10
    18aa:	1c 92       	st	X, r1
    18ac:	11 96       	adiw	r26, 0x01	; 1
    18ae:	1c 92       	st	X, r1
    18b0:	80 e0       	ldi	r24, 0x00	; 0
    18b2:	0e 94 34 06 	call	0xc68	; 0xc68 <disk_initialize>
    18b6:	80 fd       	sbrc	r24, 0
    18b8:	b6 c3       	rjmp	.+1900   	; 0x2026 <chk_mounted+0x83c>
    18ba:	00 23       	and	r16, r16
    18bc:	11 f0       	breq	.+4      	; 0x18c2 <chk_mounted+0xd8>
    18be:	82 fd       	sbrc	r24, 2
    18c0:	b4 c3       	rjmp	.+1896   	; 0x202a <chk_mounted+0x840>
    18c2:	8f 85       	ldd	r24, Y+15	; 0x0f
    18c4:	98 89       	ldd	r25, Y+16	; 0x10
    18c6:	40 e0       	ldi	r20, 0x00	; 0
    18c8:	50 e0       	ldi	r21, 0x00	; 0
    18ca:	ba 01       	movw	r22, r20
    18cc:	0e 94 59 0b 	call	0x16b2	; 0x16b2 <check_fs>
    18d0:	81 30       	cpi	r24, 0x01	; 1
    18d2:	09 f0       	breq	.+2      	; 0x18d6 <chk_mounted+0xec>
    18d4:	46 c0       	rjmp	.+140    	; 0x1962 <chk_mounted+0x178>
    18d6:	ef 85       	ldd	r30, Y+15	; 0x0f
    18d8:	f8 89       	ldd	r31, Y+16	; 0x10
    18da:	ec 50       	subi	r30, 0x0C	; 12
    18dc:	fe 4f       	sbci	r31, 0xFE	; 254
    18de:	80 81       	ld	r24, Z
    18e0:	88 23       	and	r24, r24
    18e2:	09 f4       	brne	.+2      	; 0x18e6 <chk_mounted+0xfc>
    18e4:	a6 c3       	rjmp	.+1868   	; 0x2032 <chk_mounted+0x848>
    18e6:	ef 85       	ldd	r30, Y+15	; 0x0f
    18e8:	f8 89       	ldd	r31, Y+16	; 0x10
    18ea:	e5 50       	subi	r30, 0x05	; 5
    18ec:	fe 4f       	sbci	r31, 0xFE	; 254
    18ee:	80 81       	ld	r24, Z
    18f0:	90 e0       	ldi	r25, 0x00	; 0
    18f2:	a0 e0       	ldi	r26, 0x00	; 0
    18f4:	b0 e0       	ldi	r27, 0x00	; 0
    18f6:	58 2f       	mov	r21, r24
    18f8:	44 27       	eor	r20, r20
    18fa:	33 27       	eor	r19, r19
    18fc:	22 27       	eor	r18, r18
    18fe:	ef 85       	ldd	r30, Y+15	; 0x0f
    1900:	f8 89       	ldd	r31, Y+16	; 0x10
    1902:	e6 50       	subi	r30, 0x06	; 6
    1904:	fe 4f       	sbci	r31, 0xFE	; 254
    1906:	80 81       	ld	r24, Z
    1908:	90 e0       	ldi	r25, 0x00	; 0
    190a:	a0 e0       	ldi	r26, 0x00	; 0
    190c:	b0 e0       	ldi	r27, 0x00	; 0
    190e:	dc 01       	movw	r26, r24
    1910:	99 27       	eor	r25, r25
    1912:	88 27       	eor	r24, r24
    1914:	28 2b       	or	r18, r24
    1916:	39 2b       	or	r19, r25
    1918:	4a 2b       	or	r20, r26
    191a:	5b 2b       	or	r21, r27
    191c:	ef 85       	ldd	r30, Y+15	; 0x0f
    191e:	f8 89       	ldd	r31, Y+16	; 0x10
    1920:	e8 50       	subi	r30, 0x08	; 8
    1922:	fe 4f       	sbci	r31, 0xFE	; 254
    1924:	80 81       	ld	r24, Z
    1926:	90 e0       	ldi	r25, 0x00	; 0
    1928:	a0 e0       	ldi	r26, 0x00	; 0
    192a:	b0 e0       	ldi	r27, 0x00	; 0
    192c:	28 2b       	or	r18, r24
    192e:	39 2b       	or	r19, r25
    1930:	4a 2b       	or	r20, r26
    1932:	5b 2b       	or	r21, r27
    1934:	ef 85       	ldd	r30, Y+15	; 0x0f
    1936:	f8 89       	ldd	r31, Y+16	; 0x10
    1938:	e7 50       	subi	r30, 0x07	; 7
    193a:	fe 4f       	sbci	r31, 0xFE	; 254
    193c:	90 81       	ld	r25, Z
    193e:	80 e0       	ldi	r24, 0x00	; 0
    1940:	a0 e0       	ldi	r26, 0x00	; 0
    1942:	b0 e0       	ldi	r27, 0x00	; 0
    1944:	28 2b       	or	r18, r24
    1946:	39 2b       	or	r19, r25
    1948:	4a 2b       	or	r20, r26
    194a:	5b 2b       	or	r21, r27
    194c:	29 83       	std	Y+1, r18	; 0x01
    194e:	3a 83       	std	Y+2, r19	; 0x02
    1950:	4b 83       	std	Y+3, r20	; 0x03
    1952:	5c 83       	std	Y+4, r21	; 0x04
    1954:	8f 85       	ldd	r24, Y+15	; 0x0f
    1956:	98 89       	ldd	r25, Y+16	; 0x10
    1958:	ba 01       	movw	r22, r20
    195a:	a9 01       	movw	r20, r18
    195c:	0e 94 59 0b 	call	0x16b2	; 0x16b2 <check_fs>
    1960:	04 c0       	rjmp	.+8      	; 0x196a <chk_mounted+0x180>
    1962:	19 82       	std	Y+1, r1	; 0x01
    1964:	1a 82       	std	Y+2, r1	; 0x02
    1966:	1b 82       	std	Y+3, r1	; 0x03
    1968:	1c 82       	std	Y+4, r1	; 0x04
    196a:	83 30       	cpi	r24, 0x03	; 3
    196c:	09 f4       	brne	.+2      	; 0x1970 <chk_mounted+0x186>
    196e:	5f c3       	rjmp	.+1726   	; 0x202e <chk_mounted+0x844>
    1970:	88 23       	and	r24, r24
    1972:	09 f0       	breq	.+2      	; 0x1976 <chk_mounted+0x18c>
    1974:	5e c3       	rjmp	.+1724   	; 0x2032 <chk_mounted+0x848>
    1976:	af 85       	ldd	r26, Y+15	; 0x0f
    1978:	b8 89       	ldd	r27, Y+16	; 0x10
    197a:	de 96       	adiw	r26, 0x3e	; 62
    197c:	3c 91       	ld	r19, X
    197e:	de 97       	sbiw	r26, 0x3e	; 62
    1980:	20 e0       	ldi	r18, 0x00	; 0
    1982:	dd 96       	adiw	r26, 0x3d	; 61
    1984:	8c 91       	ld	r24, X
    1986:	dd 97       	sbiw	r26, 0x3d	; 61
    1988:	90 e0       	ldi	r25, 0x00	; 0
    198a:	82 2b       	or	r24, r18
    198c:	93 2b       	or	r25, r19
    198e:	b2 e0       	ldi	r27, 0x02	; 2
    1990:	80 30       	cpi	r24, 0x00	; 0
    1992:	9b 07       	cpc	r25, r27
    1994:	09 f0       	breq	.+2      	; 0x1998 <chk_mounted+0x1ae>
    1996:	4d c3       	rjmp	.+1690   	; 0x2032 <chk_mounted+0x848>
    1998:	ef 85       	ldd	r30, Y+15	; 0x0f
    199a:	f8 89       	ldd	r31, Y+16	; 0x10
    199c:	e7 5b       	subi	r30, 0xB7	; 183
    199e:	ff 4f       	sbci	r31, 0xFF	; 255
    19a0:	90 81       	ld	r25, Z
    19a2:	80 e0       	ldi	r24, 0x00	; 0
    19a4:	ef 85       	ldd	r30, Y+15	; 0x0f
    19a6:	f8 89       	ldd	r31, Y+16	; 0x10
    19a8:	e8 5b       	subi	r30, 0xB8	; 184
    19aa:	ff 4f       	sbci	r31, 0xFF	; 255
    19ac:	20 81       	ld	r18, Z
    19ae:	30 e0       	ldi	r19, 0x00	; 0
    19b0:	28 2b       	or	r18, r24
    19b2:	39 2b       	or	r19, r25
    19b4:	a9 01       	movw	r20, r18
    19b6:	60 e0       	ldi	r22, 0x00	; 0
    19b8:	70 e0       	ldi	r23, 0x00	; 0
    19ba:	4d 83       	std	Y+5, r20	; 0x05
    19bc:	5e 83       	std	Y+6, r21	; 0x06
    19be:	6f 83       	std	Y+7, r22	; 0x07
    19c0:	78 87       	std	Y+8, r23	; 0x08
    19c2:	41 15       	cp	r20, r1
    19c4:	51 05       	cpc	r21, r1
    19c6:	61 05       	cpc	r22, r1
    19c8:	71 05       	cpc	r23, r1
    19ca:	b9 f5       	brne	.+110    	; 0x1a3a <chk_mounted+0x250>
    19cc:	ef 85       	ldd	r30, Y+15	; 0x0f
    19ce:	f8 89       	ldd	r31, Y+16	; 0x10
    19d0:	e7 5a       	subi	r30, 0xA7	; 167
    19d2:	ff 4f       	sbci	r31, 0xFF	; 255
    19d4:	80 81       	ld	r24, Z
    19d6:	90 e0       	ldi	r25, 0x00	; 0
    19d8:	a0 e0       	ldi	r26, 0x00	; 0
    19da:	b0 e0       	ldi	r27, 0x00	; 0
    19dc:	58 2f       	mov	r21, r24
    19de:	44 27       	eor	r20, r20
    19e0:	33 27       	eor	r19, r19
    19e2:	22 27       	eor	r18, r18
    19e4:	ef 85       	ldd	r30, Y+15	; 0x0f
    19e6:	f8 89       	ldd	r31, Y+16	; 0x10
    19e8:	e8 5a       	subi	r30, 0xA8	; 168
    19ea:	ff 4f       	sbci	r31, 0xFF	; 255
    19ec:	80 81       	ld	r24, Z
    19ee:	90 e0       	ldi	r25, 0x00	; 0
    19f0:	a0 e0       	ldi	r26, 0x00	; 0
    19f2:	b0 e0       	ldi	r27, 0x00	; 0
    19f4:	dc 01       	movw	r26, r24
    19f6:	99 27       	eor	r25, r25
    19f8:	88 27       	eor	r24, r24
    19fa:	28 2b       	or	r18, r24
    19fc:	39 2b       	or	r19, r25
    19fe:	4a 2b       	or	r20, r26
    1a00:	5b 2b       	or	r21, r27
    1a02:	ef 85       	ldd	r30, Y+15	; 0x0f
    1a04:	f8 89       	ldd	r31, Y+16	; 0x10
    1a06:	ea 5a       	subi	r30, 0xAA	; 170
    1a08:	ff 4f       	sbci	r31, 0xFF	; 255
    1a0a:	80 81       	ld	r24, Z
    1a0c:	90 e0       	ldi	r25, 0x00	; 0
    1a0e:	a0 e0       	ldi	r26, 0x00	; 0
    1a10:	b0 e0       	ldi	r27, 0x00	; 0
    1a12:	28 2b       	or	r18, r24
    1a14:	39 2b       	or	r19, r25
    1a16:	4a 2b       	or	r20, r26
    1a18:	5b 2b       	or	r21, r27
    1a1a:	ef 85       	ldd	r30, Y+15	; 0x0f
    1a1c:	f8 89       	ldd	r31, Y+16	; 0x10
    1a1e:	e9 5a       	subi	r30, 0xA9	; 169
    1a20:	ff 4f       	sbci	r31, 0xFF	; 255
    1a22:	90 81       	ld	r25, Z
    1a24:	80 e0       	ldi	r24, 0x00	; 0
    1a26:	a0 e0       	ldi	r26, 0x00	; 0
    1a28:	b0 e0       	ldi	r27, 0x00	; 0
    1a2a:	28 2b       	or	r18, r24
    1a2c:	39 2b       	or	r19, r25
    1a2e:	4a 2b       	or	r20, r26
    1a30:	5b 2b       	or	r21, r27
    1a32:	2d 83       	std	Y+5, r18	; 0x05
    1a34:	3e 83       	std	Y+6, r19	; 0x06
    1a36:	4f 83       	std	Y+7, r20	; 0x07
    1a38:	58 87       	std	Y+8, r21	; 0x08
    1a3a:	4d 81       	ldd	r20, Y+5	; 0x05
    1a3c:	5e 81       	ldd	r21, Y+6	; 0x06
    1a3e:	6f 81       	ldd	r22, Y+7	; 0x07
    1a40:	78 85       	ldd	r23, Y+8	; 0x08
    1a42:	af 85       	ldd	r26, Y+15	; 0x0f
    1a44:	b8 89       	ldd	r27, Y+16	; 0x10
    1a46:	5e 96       	adiw	r26, 0x1e	; 30
    1a48:	4d 93       	st	X+, r20
    1a4a:	5d 93       	st	X+, r21
    1a4c:	6d 93       	st	X+, r22
    1a4e:	7c 93       	st	X, r23
    1a50:	91 97       	sbiw	r26, 0x21	; 33
    1a52:	fd 01       	movw	r30, r26
    1a54:	ee 5b       	subi	r30, 0xBE	; 190
    1a56:	ff 4f       	sbci	r31, 0xFF	; 255
    1a58:	40 81       	ld	r20, Z
    1a5a:	13 96       	adiw	r26, 0x03	; 3
    1a5c:	4c 93       	st	X, r20
    1a5e:	13 97       	sbiw	r26, 0x03	; 3
    1a60:	84 2f       	mov	r24, r20
    1a62:	81 50       	subi	r24, 0x01	; 1
    1a64:	82 30       	cpi	r24, 0x02	; 2
    1a66:	08 f0       	brcs	.+2      	; 0x1a6a <chk_mounted+0x280>
    1a68:	e4 c2       	rjmp	.+1480   	; 0x2032 <chk_mounted+0x848>
    1a6a:	df 96       	adiw	r26, 0x3f	; 63
    1a6c:	3c 90       	ld	r3, X
    1a6e:	df 97       	sbiw	r26, 0x3f	; 63
    1a70:	12 96       	adiw	r26, 0x02	; 2
    1a72:	3c 92       	st	X, r3
    1a74:	12 97       	sbiw	r26, 0x02	; 2
    1a76:	33 20       	and	r3, r3
    1a78:	09 f4       	brne	.+2      	; 0x1a7c <chk_mounted+0x292>
    1a7a:	db c2       	rjmp	.+1462   	; 0x2032 <chk_mounted+0x848>
    1a7c:	23 2d       	mov	r18, r3
    1a7e:	30 e0       	ldi	r19, 0x00	; 0
    1a80:	c9 01       	movw	r24, r18
    1a82:	01 97       	sbiw	r24, 0x01	; 1
    1a84:	82 23       	and	r24, r18
    1a86:	93 23       	and	r25, r19
    1a88:	00 97       	sbiw	r24, 0x00	; 0
    1a8a:	09 f0       	breq	.+2      	; 0x1a8e <chk_mounted+0x2a4>
    1a8c:	d2 c2       	rjmp	.+1444   	; 0x2032 <chk_mounted+0x848>
    1a8e:	fd 01       	movw	r30, r26
    1a90:	ec 5b       	subi	r30, 0xBC	; 188
    1a92:	ff 4f       	sbci	r31, 0xFF	; 255
    1a94:	90 81       	ld	r25, Z
    1a96:	80 e0       	ldi	r24, 0x00	; 0
    1a98:	fd 01       	movw	r30, r26
    1a9a:	ed 5b       	subi	r30, 0xBD	; 189
    1a9c:	ff 4f       	sbci	r31, 0xFF	; 255
    1a9e:	20 81       	ld	r18, Z
    1aa0:	e2 2f       	mov	r30, r18
    1aa2:	f0 e0       	ldi	r31, 0x00	; 0
    1aa4:	e8 2b       	or	r30, r24
    1aa6:	f9 2b       	or	r31, r25
    1aa8:	fa 87       	std	Y+10, r31	; 0x0a
    1aaa:	e9 87       	std	Y+9, r30	; 0x09
    1aac:	19 96       	adiw	r26, 0x09	; 9
    1aae:	fc 93       	st	X, r31
    1ab0:	ee 93       	st	-X, r30
    1ab2:	18 97       	sbiw	r26, 0x08	; 8
    1ab4:	cf 01       	movw	r24, r30
    1ab6:	8f 70       	andi	r24, 0x0F	; 15
    1ab8:	90 70       	andi	r25, 0x00	; 0
    1aba:	00 97       	sbiw	r24, 0x00	; 0
    1abc:	09 f0       	breq	.+2      	; 0x1ac0 <chk_mounted+0x2d6>
    1abe:	b9 c2       	rjmp	.+1394   	; 0x2032 <chk_mounted+0x848>
    1ac0:	fd 01       	movw	r30, r26
    1ac2:	ea 5b       	subi	r30, 0xBA	; 186
    1ac4:	ff 4f       	sbci	r31, 0xFF	; 255
    1ac6:	90 81       	ld	r25, Z
    1ac8:	80 e0       	ldi	r24, 0x00	; 0
    1aca:	fd 01       	movw	r30, r26
    1acc:	eb 5b       	subi	r30, 0xBB	; 187
    1ace:	ff 4f       	sbci	r31, 0xFF	; 255
    1ad0:	80 80       	ld	r8, Z
    1ad2:	99 24       	eor	r9, r9
    1ad4:	88 2a       	or	r8, r24
    1ad6:	99 2a       	or	r9, r25
    1ad8:	aa 24       	eor	r10, r10
    1ada:	bb 24       	eor	r11, r11
    1adc:	81 14       	cp	r8, r1
    1ade:	91 04       	cpc	r9, r1
    1ae0:	a1 04       	cpc	r10, r1
    1ae2:	b1 04       	cpc	r11, r1
    1ae4:	89 f5       	brne	.+98     	; 0x1b48 <chk_mounted+0x35e>
    1ae6:	fd 01       	movw	r30, r26
    1ae8:	eb 5a       	subi	r30, 0xAB	; 171
    1aea:	ff 4f       	sbci	r31, 0xFF	; 255
    1aec:	80 80       	ld	r8, Z
    1aee:	99 24       	eor	r9, r9
    1af0:	aa 24       	eor	r10, r10
    1af2:	bb 24       	eor	r11, r11
    1af4:	b8 2c       	mov	r11, r8
    1af6:	aa 24       	eor	r10, r10
    1af8:	99 24       	eor	r9, r9
    1afa:	88 24       	eor	r8, r8
    1afc:	fd 01       	movw	r30, r26
    1afe:	ec 5a       	subi	r30, 0xAC	; 172
    1b00:	ff 4f       	sbci	r31, 0xFF	; 255
    1b02:	80 81       	ld	r24, Z
    1b04:	90 e0       	ldi	r25, 0x00	; 0
    1b06:	a0 e0       	ldi	r26, 0x00	; 0
    1b08:	b0 e0       	ldi	r27, 0x00	; 0
    1b0a:	dc 01       	movw	r26, r24
    1b0c:	99 27       	eor	r25, r25
    1b0e:	88 27       	eor	r24, r24
    1b10:	88 2a       	or	r8, r24
    1b12:	99 2a       	or	r9, r25
    1b14:	aa 2a       	or	r10, r26
    1b16:	bb 2a       	or	r11, r27
    1b18:	ef 85       	ldd	r30, Y+15	; 0x0f
    1b1a:	f8 89       	ldd	r31, Y+16	; 0x10
    1b1c:	ee 5a       	subi	r30, 0xAE	; 174
    1b1e:	ff 4f       	sbci	r31, 0xFF	; 255
    1b20:	80 81       	ld	r24, Z
    1b22:	90 e0       	ldi	r25, 0x00	; 0
    1b24:	a0 e0       	ldi	r26, 0x00	; 0
    1b26:	b0 e0       	ldi	r27, 0x00	; 0
    1b28:	88 2a       	or	r8, r24
    1b2a:	99 2a       	or	r9, r25
    1b2c:	aa 2a       	or	r10, r26
    1b2e:	bb 2a       	or	r11, r27
    1b30:	ef 85       	ldd	r30, Y+15	; 0x0f
    1b32:	f8 89       	ldd	r31, Y+16	; 0x10
    1b34:	ed 5a       	subi	r30, 0xAD	; 173
    1b36:	ff 4f       	sbci	r31, 0xFF	; 255
    1b38:	90 81       	ld	r25, Z
    1b3a:	80 e0       	ldi	r24, 0x00	; 0
    1b3c:	a0 e0       	ldi	r26, 0x00	; 0
    1b3e:	b0 e0       	ldi	r27, 0x00	; 0
    1b40:	88 2a       	or	r8, r24
    1b42:	99 2a       	or	r9, r25
    1b44:	aa 2a       	or	r10, r26
    1b46:	bb 2a       	or	r11, r27
    1b48:	ef 85       	ldd	r30, Y+15	; 0x0f
    1b4a:	f8 89       	ldd	r31, Y+16	; 0x10
    1b4c:	ef 5b       	subi	r30, 0xBF	; 191
    1b4e:	ff 4f       	sbci	r31, 0xFF	; 255
    1b50:	90 81       	ld	r25, Z
    1b52:	80 e0       	ldi	r24, 0x00	; 0
    1b54:	ef 85       	ldd	r30, Y+15	; 0x0f
    1b56:	f8 89       	ldd	r31, Y+16	; 0x10
    1b58:	e0 5c       	subi	r30, 0xC0	; 192
    1b5a:	ff 4f       	sbci	r31, 0xFF	; 255
    1b5c:	00 81       	ld	r16, Z
    1b5e:	10 e0       	ldi	r17, 0x00	; 0
    1b60:	08 2b       	or	r16, r24
    1b62:	19 2b       	or	r17, r25
    1b64:	01 15       	cp	r16, r1
    1b66:	11 05       	cpc	r17, r1
    1b68:	09 f4       	brne	.+2      	; 0x1b6c <chk_mounted+0x382>
    1b6a:	63 c2       	rjmp	.+1222   	; 0x2032 <chk_mounted+0x848>
    1b6c:	24 2f       	mov	r18, r20
    1b6e:	30 e0       	ldi	r19, 0x00	; 0
    1b70:	40 e0       	ldi	r20, 0x00	; 0
    1b72:	50 e0       	ldi	r21, 0x00	; 0
    1b74:	6d 81       	ldd	r22, Y+5	; 0x05
    1b76:	7e 81       	ldd	r23, Y+6	; 0x06
    1b78:	8f 81       	ldd	r24, Y+7	; 0x07
    1b7a:	98 85       	ldd	r25, Y+8	; 0x08
    1b7c:	0e 94 5c 37 	call	0x6eb8	; 0x6eb8 <__mulsi3>
    1b80:	6b 87       	std	Y+11, r22	; 0x0b
    1b82:	7c 87       	std	Y+12, r23	; 0x0c
    1b84:	8d 87       	std	Y+13, r24	; 0x0d
    1b86:	9e 87       	std	Y+14, r25	; 0x0e
    1b88:	28 01       	movw	r4, r16
    1b8a:	66 24       	eor	r6, r6
    1b8c:	77 24       	eor	r7, r7
    1b8e:	c9 84       	ldd	r12, Y+9	; 0x09
    1b90:	da 84       	ldd	r13, Y+10	; 0x0a
    1b92:	e4 e0       	ldi	r30, 0x04	; 4
    1b94:	d6 94       	lsr	r13
    1b96:	c7 94       	ror	r12
    1b98:	ea 95       	dec	r30
    1b9a:	e1 f7       	brne	.-8      	; 0x1b94 <chk_mounted+0x3aa>
    1b9c:	ee 24       	eor	r14, r14
    1b9e:	ff 24       	eor	r15, r15
    1ba0:	c4 0c       	add	r12, r4
    1ba2:	d5 1c       	adc	r13, r5
    1ba4:	e6 1c       	adc	r14, r6
    1ba6:	f7 1c       	adc	r15, r7
    1ba8:	c6 0e       	add	r12, r22
    1baa:	d7 1e       	adc	r13, r23
    1bac:	e8 1e       	adc	r14, r24
    1bae:	f9 1e       	adc	r15, r25
    1bb0:	8c 14       	cp	r8, r12
    1bb2:	9d 04       	cpc	r9, r13
    1bb4:	ae 04       	cpc	r10, r14
    1bb6:	bf 04       	cpc	r11, r15
    1bb8:	08 f4       	brcc	.+2      	; 0x1bbc <chk_mounted+0x3d2>
    1bba:	3b c2       	rjmp	.+1142   	; 0x2032 <chk_mounted+0x848>
    1bbc:	c5 01       	movw	r24, r10
    1bbe:	b4 01       	movw	r22, r8
    1bc0:	6c 19       	sub	r22, r12
    1bc2:	7d 09       	sbc	r23, r13
    1bc4:	8e 09       	sbc	r24, r14
    1bc6:	9f 09       	sbc	r25, r15
    1bc8:	23 2d       	mov	r18, r3
    1bca:	30 e0       	ldi	r19, 0x00	; 0
    1bcc:	40 e0       	ldi	r20, 0x00	; 0
    1bce:	50 e0       	ldi	r21, 0x00	; 0
    1bd0:	0e 94 7b 37 	call	0x6ef6	; 0x6ef6 <__udivmodsi4>
    1bd4:	89 01       	movw	r16, r18
    1bd6:	9a 01       	movw	r18, r20
    1bd8:	01 15       	cp	r16, r1
    1bda:	11 05       	cpc	r17, r1
    1bdc:	21 05       	cpc	r18, r1
    1bde:	31 05       	cpc	r19, r1
    1be0:	09 f4       	brne	.+2      	; 0x1be4 <chk_mounted+0x3fa>
    1be2:	27 c2       	rjmp	.+1102   	; 0x2032 <chk_mounted+0x848>
    1be4:	06 3f       	cpi	r16, 0xF6	; 246
    1be6:	ff e0       	ldi	r31, 0x0F	; 15
    1be8:	1f 07       	cpc	r17, r31
    1bea:	f0 e0       	ldi	r31, 0x00	; 0
    1bec:	2f 07       	cpc	r18, r31
    1bee:	f0 e0       	ldi	r31, 0x00	; 0
    1bf0:	3f 07       	cpc	r19, r31
    1bf2:	58 f0       	brcs	.+22     	; 0x1c0a <chk_mounted+0x420>
    1bf4:	06 3f       	cpi	r16, 0xF6	; 246
    1bf6:	4f ef       	ldi	r20, 0xFF	; 255
    1bf8:	14 07       	cpc	r17, r20
    1bfa:	40 e0       	ldi	r20, 0x00	; 0
    1bfc:	24 07       	cpc	r18, r20
    1bfe:	40 e0       	ldi	r20, 0x00	; 0
    1c00:	34 07       	cpc	r19, r20
    1c02:	30 f4       	brcc	.+12     	; 0x1c10 <chk_mounted+0x426>
    1c04:	62 e0       	ldi	r22, 0x02	; 2
    1c06:	36 2e       	mov	r3, r22
    1c08:	05 c0       	rjmp	.+10     	; 0x1c14 <chk_mounted+0x42a>
    1c0a:	33 24       	eor	r3, r3
    1c0c:	33 94       	inc	r3
    1c0e:	02 c0       	rjmp	.+4      	; 0x1c14 <chk_mounted+0x42a>
    1c10:	53 e0       	ldi	r21, 0x03	; 3
    1c12:	35 2e       	mov	r3, r21
    1c14:	42 e0       	ldi	r20, 0x02	; 2
    1c16:	84 2e       	mov	r8, r20
    1c18:	91 2c       	mov	r9, r1
    1c1a:	a1 2c       	mov	r10, r1
    1c1c:	b1 2c       	mov	r11, r1
    1c1e:	80 0e       	add	r8, r16
    1c20:	91 1e       	adc	r9, r17
    1c22:	a2 1e       	adc	r10, r18
    1c24:	b3 1e       	adc	r11, r19
    1c26:	af 85       	ldd	r26, Y+15	; 0x0f
    1c28:	b8 89       	ldd	r27, Y+16	; 0x10
    1c2a:	5a 96       	adiw	r26, 0x1a	; 26
    1c2c:	8d 92       	st	X+, r8
    1c2e:	9d 92       	st	X+, r9
    1c30:	ad 92       	st	X+, r10
    1c32:	bc 92       	st	X, r11
    1c34:	5d 97       	sbiw	r26, 0x1d	; 29
    1c36:	29 81       	ldd	r18, Y+1	; 0x01
    1c38:	3a 81       	ldd	r19, Y+2	; 0x02
    1c3a:	4b 81       	ldd	r20, Y+3	; 0x03
    1c3c:	5c 81       	ldd	r21, Y+4	; 0x04
    1c3e:	c2 0e       	add	r12, r18
    1c40:	d3 1e       	adc	r13, r19
    1c42:	e4 1e       	adc	r14, r20
    1c44:	f5 1e       	adc	r15, r21
    1c46:	9a 96       	adiw	r26, 0x2a	; 42
    1c48:	cd 92       	st	X+, r12
    1c4a:	dd 92       	st	X+, r13
    1c4c:	ed 92       	st	X+, r14
    1c4e:	fc 92       	st	X, r15
    1c50:	9d 97       	sbiw	r26, 0x2d	; 45
    1c52:	89 01       	movw	r16, r18
    1c54:	9a 01       	movw	r18, r20
    1c56:	04 0d       	add	r16, r4
    1c58:	15 1d       	adc	r17, r5
    1c5a:	26 1d       	adc	r18, r6
    1c5c:	37 1d       	adc	r19, r7
    1c5e:	fd 01       	movw	r30, r26
    1c60:	02 a3       	lds	r16, 0x52
    1c62:	13 a3       	lds	r17, 0x53
    1c64:	24 a3       	lds	r18, 0x54
    1c66:	35 a3       	lds	r19, 0x55
    1c68:	f3 e0       	ldi	r31, 0x03	; 3
    1c6a:	3f 16       	cp	r3, r31
    1c6c:	09 f0       	breq	.+2      	; 0x1c70 <chk_mounted+0x486>
    1c6e:	49 c0       	rjmp	.+146    	; 0x1d02 <chk_mounted+0x518>
    1c70:	29 85       	ldd	r18, Y+9	; 0x09
    1c72:	3a 85       	ldd	r19, Y+10	; 0x0a
    1c74:	21 15       	cp	r18, r1
    1c76:	31 05       	cpc	r19, r1
    1c78:	09 f0       	breq	.+2      	; 0x1c7c <chk_mounted+0x492>
    1c7a:	db c1       	rjmp	.+950    	; 0x2032 <chk_mounted+0x848>
    1c7c:	fd 01       	movw	r30, r26
    1c7e:	ef 59       	subi	r30, 0x9F	; 159
    1c80:	ff 4f       	sbci	r31, 0xFF	; 255
    1c82:	40 81       	ld	r20, Z
    1c84:	50 e0       	ldi	r21, 0x00	; 0
    1c86:	60 e0       	ldi	r22, 0x00	; 0
    1c88:	70 e0       	ldi	r23, 0x00	; 0
    1c8a:	74 2f       	mov	r23, r20
    1c8c:	66 27       	eor	r22, r22
    1c8e:	55 27       	eor	r21, r21
    1c90:	44 27       	eor	r20, r20
    1c92:	fd 01       	movw	r30, r26
    1c94:	e0 5a       	subi	r30, 0xA0	; 160
    1c96:	ff 4f       	sbci	r31, 0xFF	; 255
    1c98:	80 81       	ld	r24, Z
    1c9a:	90 e0       	ldi	r25, 0x00	; 0
    1c9c:	a0 e0       	ldi	r26, 0x00	; 0
    1c9e:	b0 e0       	ldi	r27, 0x00	; 0
    1ca0:	dc 01       	movw	r26, r24
    1ca2:	99 27       	eor	r25, r25
    1ca4:	88 27       	eor	r24, r24
    1ca6:	48 2b       	or	r20, r24
    1ca8:	59 2b       	or	r21, r25
    1caa:	6a 2b       	or	r22, r26
    1cac:	7b 2b       	or	r23, r27
    1cae:	ef 85       	ldd	r30, Y+15	; 0x0f
    1cb0:	f8 89       	ldd	r31, Y+16	; 0x10
    1cb2:	e2 5a       	subi	r30, 0xA2	; 162
    1cb4:	ff 4f       	sbci	r31, 0xFF	; 255
    1cb6:	80 81       	ld	r24, Z
    1cb8:	90 e0       	ldi	r25, 0x00	; 0
    1cba:	a0 e0       	ldi	r26, 0x00	; 0
    1cbc:	b0 e0       	ldi	r27, 0x00	; 0
    1cbe:	48 2b       	or	r20, r24
    1cc0:	59 2b       	or	r21, r25
    1cc2:	6a 2b       	or	r22, r26
    1cc4:	7b 2b       	or	r23, r27
    1cc6:	ef 85       	ldd	r30, Y+15	; 0x0f
    1cc8:	f8 89       	ldd	r31, Y+16	; 0x10
    1cca:	e1 5a       	subi	r30, 0xA1	; 161
    1ccc:	ff 4f       	sbci	r31, 0xFF	; 255
    1cce:	90 81       	ld	r25, Z
    1cd0:	80 e0       	ldi	r24, 0x00	; 0
    1cd2:	a0 e0       	ldi	r26, 0x00	; 0
    1cd4:	b0 e0       	ldi	r27, 0x00	; 0
    1cd6:	48 2b       	or	r20, r24
    1cd8:	59 2b       	or	r21, r25
    1cda:	6a 2b       	or	r22, r26
    1cdc:	7b 2b       	or	r23, r27
    1cde:	af 85       	ldd	r26, Y+15	; 0x0f
    1ce0:	b8 89       	ldd	r27, Y+16	; 0x10
    1ce2:	96 96       	adiw	r26, 0x26	; 38
    1ce4:	4d 93       	st	X+, r20
    1ce6:	5d 93       	st	X+, r21
    1ce8:	6d 93       	st	X+, r22
    1cea:	7c 93       	st	X, r23
    1cec:	99 97       	sbiw	r26, 0x29	; 41
    1cee:	d5 01       	movw	r26, r10
    1cf0:	c4 01       	movw	r24, r8
    1cf2:	22 e0       	ldi	r18, 0x02	; 2
    1cf4:	88 0f       	add	r24, r24
    1cf6:	99 1f       	adc	r25, r25
    1cf8:	aa 1f       	adc	r26, r26
    1cfa:	bb 1f       	adc	r27, r27
    1cfc:	2a 95       	dec	r18
    1cfe:	d1 f7       	brne	.-12     	; 0x1cf4 <chk_mounted+0x50a>
    1d00:	2e c0       	rjmp	.+92     	; 0x1d5e <chk_mounted+0x574>
    1d02:	e9 85       	ldd	r30, Y+9	; 0x09
    1d04:	fa 85       	ldd	r31, Y+10	; 0x0a
    1d06:	30 97       	sbiw	r30, 0x00	; 0
    1d08:	09 f4       	brne	.+2      	; 0x1d0c <chk_mounted+0x522>
    1d0a:	93 c1       	rjmp	.+806    	; 0x2032 <chk_mounted+0x848>
    1d0c:	8b 85       	ldd	r24, Y+11	; 0x0b
    1d0e:	9c 85       	ldd	r25, Y+12	; 0x0c
    1d10:	ad 85       	ldd	r26, Y+13	; 0x0d
    1d12:	be 85       	ldd	r27, Y+14	; 0x0e
    1d14:	80 0f       	add	r24, r16
    1d16:	91 1f       	adc	r25, r17
    1d18:	a2 1f       	adc	r26, r18
    1d1a:	b3 1f       	adc	r27, r19
    1d1c:	ef 85       	ldd	r30, Y+15	; 0x0f
    1d1e:	f8 89       	ldd	r31, Y+16	; 0x10
    1d20:	86 a3       	lds	r24, 0x56
    1d22:	97 a3       	lds	r25, 0x57
    1d24:	a0 a7       	lds	r26, 0x70
    1d26:	b1 a7       	lds	r27, 0x71
    1d28:	d5 01       	movw	r26, r10
    1d2a:	c4 01       	movw	r24, r8
    1d2c:	88 0f       	add	r24, r24
    1d2e:	99 1f       	adc	r25, r25
    1d30:	aa 1f       	adc	r26, r26
    1d32:	bb 1f       	adc	r27, r27
    1d34:	f2 e0       	ldi	r31, 0x02	; 2
    1d36:	3f 16       	cp	r3, r31
    1d38:	91 f0       	breq	.+36     	; 0x1d5e <chk_mounted+0x574>
    1d3a:	88 0d       	add	r24, r8
    1d3c:	99 1d       	adc	r25, r9
    1d3e:	aa 1d       	adc	r26, r10
    1d40:	bb 1d       	adc	r27, r11
    1d42:	b6 95       	lsr	r27
    1d44:	a7 95       	ror	r26
    1d46:	97 95       	ror	r25
    1d48:	87 95       	ror	r24
    1d4a:	95 01       	movw	r18, r10
    1d4c:	84 01       	movw	r16, r8
    1d4e:	01 70       	andi	r16, 0x01	; 1
    1d50:	10 70       	andi	r17, 0x00	; 0
    1d52:	20 70       	andi	r18, 0x00	; 0
    1d54:	30 70       	andi	r19, 0x00	; 0
    1d56:	80 0f       	add	r24, r16
    1d58:	91 1f       	adc	r25, r17
    1d5a:	a2 1f       	adc	r26, r18
    1d5c:	b3 1f       	adc	r27, r19
    1d5e:	81 50       	subi	r24, 0x01	; 1
    1d60:	9e 4f       	sbci	r25, 0xFE	; 254
    1d62:	af 4f       	sbci	r26, 0xFF	; 255
    1d64:	bf 4f       	sbci	r27, 0xFF	; 255
    1d66:	39 e0       	ldi	r19, 0x09	; 9
    1d68:	b6 95       	lsr	r27
    1d6a:	a7 95       	ror	r26
    1d6c:	97 95       	ror	r25
    1d6e:	87 95       	ror	r24
    1d70:	3a 95       	dec	r19
    1d72:	d1 f7       	brne	.-12     	; 0x1d68 <chk_mounted+0x57e>
    1d74:	2d 81       	ldd	r18, Y+5	; 0x05
    1d76:	3e 81       	ldd	r19, Y+6	; 0x06
    1d78:	4f 81       	ldd	r20, Y+7	; 0x07
    1d7a:	58 85       	ldd	r21, Y+8	; 0x08
    1d7c:	28 17       	cp	r18, r24
    1d7e:	39 07       	cpc	r19, r25
    1d80:	4a 07       	cpc	r20, r26
    1d82:	5b 07       	cpc	r21, r27
    1d84:	08 f4       	brcc	.+2      	; 0x1d88 <chk_mounted+0x59e>
    1d86:	55 c1       	rjmp	.+682    	; 0x2032 <chk_mounted+0x848>
    1d88:	8f ef       	ldi	r24, 0xFF	; 255
    1d8a:	9f ef       	ldi	r25, 0xFF	; 255
    1d8c:	dc 01       	movw	r26, r24
    1d8e:	ef 85       	ldd	r30, Y+15	; 0x0f
    1d90:	f8 89       	ldd	r31, Y+16	; 0x10
    1d92:	86 87       	std	Z+14, r24	; 0x0e
    1d94:	97 87       	std	Z+15, r25	; 0x0f
    1d96:	a0 8b       	std	Z+16, r26	; 0x10
    1d98:	b1 8b       	std	Z+17, r27	; 0x11
    1d9a:	12 86       	std	Z+10, r1	; 0x0a
    1d9c:	13 86       	std	Z+11, r1	; 0x0b
    1d9e:	14 86       	std	Z+12, r1	; 0x0c
    1da0:	15 86       	std	Z+13, r1	; 0x0d
    1da2:	b3 e0       	ldi	r27, 0x03	; 3
    1da4:	3b 16       	cp	r3, r27
    1da6:	09 f0       	breq	.+2      	; 0x1daa <chk_mounted+0x5c0>
    1da8:	1b c1       	rjmp	.+566    	; 0x1fe0 <chk_mounted+0x7f6>
    1daa:	15 82       	std	Z+5, r1	; 0x05
    1dac:	ed 59       	subi	r30, 0x9D	; 157
    1dae:	ff 4f       	sbci	r31, 0xFF	; 255
    1db0:	90 81       	ld	r25, Z
    1db2:	80 e0       	ldi	r24, 0x00	; 0
    1db4:	ef 85       	ldd	r30, Y+15	; 0x0f
    1db6:	f8 89       	ldd	r31, Y+16	; 0x10
    1db8:	ee 59       	subi	r30, 0x9E	; 158
    1dba:	ff 4f       	sbci	r31, 0xFF	; 255
    1dbc:	00 81       	ld	r16, Z
    1dbe:	10 e0       	ldi	r17, 0x00	; 0
    1dc0:	08 2b       	or	r16, r24
    1dc2:	19 2b       	or	r17, r25
    1dc4:	20 e0       	ldi	r18, 0x00	; 0
    1dc6:	30 e0       	ldi	r19, 0x00	; 0
    1dc8:	49 81       	ldd	r20, Y+1	; 0x01
    1dca:	5a 81       	ldd	r21, Y+2	; 0x02
    1dcc:	6b 81       	ldd	r22, Y+3	; 0x03
    1dce:	7c 81       	ldd	r23, Y+4	; 0x04
    1dd0:	04 0f       	add	r16, r20
    1dd2:	15 1f       	adc	r17, r21
    1dd4:	26 1f       	adc	r18, r22
    1dd6:	37 1f       	adc	r19, r23
    1dd8:	af 85       	ldd	r26, Y+15	; 0x0f
    1dda:	b8 89       	ldd	r27, Y+16	; 0x10
    1ddc:	52 96       	adiw	r26, 0x12	; 18
    1dde:	0d 93       	st	X+, r16
    1de0:	1d 93       	st	X+, r17
    1de2:	2d 93       	st	X+, r18
    1de4:	3c 93       	st	X, r19
    1de6:	55 97       	sbiw	r26, 0x15	; 21
    1de8:	bd 01       	movw	r22, r26
    1dea:	6e 5c       	subi	r22, 0xCE	; 206
    1dec:	7f 4f       	sbci	r23, 0xFF	; 255
    1dee:	11 96       	adiw	r26, 0x01	; 1
    1df0:	8c 91       	ld	r24, X
    1df2:	a9 01       	movw	r20, r18
    1df4:	98 01       	movw	r18, r16
    1df6:	01 e0       	ldi	r16, 0x01	; 1
    1df8:	0e 94 02 07 	call	0xe04	; 0xe04 <disk_read>
    1dfc:	88 23       	and	r24, r24
    1dfe:	09 f0       	breq	.+2      	; 0x1e02 <chk_mounted+0x618>
    1e00:	ef c0       	rjmp	.+478    	; 0x1fe0 <chk_mounted+0x7f6>
    1e02:	ef 85       	ldd	r30, Y+15	; 0x0f
    1e04:	f8 89       	ldd	r31, Y+16	; 0x10
    1e06:	ef 5c       	subi	r30, 0xCF	; 207
    1e08:	fd 4f       	sbci	r31, 0xFD	; 253
    1e0a:	90 81       	ld	r25, Z
    1e0c:	80 e0       	ldi	r24, 0x00	; 0
    1e0e:	ef 85       	ldd	r30, Y+15	; 0x0f
    1e10:	f8 89       	ldd	r31, Y+16	; 0x10
    1e12:	e0 5d       	subi	r30, 0xD0	; 208
    1e14:	fd 4f       	sbci	r31, 0xFD	; 253
    1e16:	20 81       	ld	r18, Z
    1e18:	30 e0       	ldi	r19, 0x00	; 0
    1e1a:	28 2b       	or	r18, r24
    1e1c:	39 2b       	or	r19, r25
    1e1e:	ba ea       	ldi	r27, 0xAA	; 170
    1e20:	25 35       	cpi	r18, 0x55	; 85
    1e22:	3b 07       	cpc	r19, r27
    1e24:	09 f0       	breq	.+2      	; 0x1e28 <chk_mounted+0x63e>
    1e26:	dc c0       	rjmp	.+440    	; 0x1fe0 <chk_mounted+0x7f6>
    1e28:	ef 85       	ldd	r30, Y+15	; 0x0f
    1e2a:	f8 89       	ldd	r31, Y+16	; 0x10
    1e2c:	45 a9       	sts	0x45, r20
    1e2e:	50 e0       	ldi	r21, 0x00	; 0
    1e30:	60 e0       	ldi	r22, 0x00	; 0
    1e32:	70 e0       	ldi	r23, 0x00	; 0
    1e34:	74 2f       	mov	r23, r20
    1e36:	66 27       	eor	r22, r22
    1e38:	55 27       	eor	r21, r21
    1e3a:	44 27       	eor	r20, r20
    1e3c:	84 a9       	sts	0x44, r24
    1e3e:	90 e0       	ldi	r25, 0x00	; 0
    1e40:	a0 e0       	ldi	r26, 0x00	; 0
    1e42:	b0 e0       	ldi	r27, 0x00	; 0
    1e44:	dc 01       	movw	r26, r24
    1e46:	99 27       	eor	r25, r25
    1e48:	88 27       	eor	r24, r24
    1e4a:	48 2b       	or	r20, r24
    1e4c:	59 2b       	or	r21, r25
    1e4e:	6a 2b       	or	r22, r26
    1e50:	7b 2b       	or	r23, r27
    1e52:	82 a9       	sts	0x42, r24
    1e54:	90 e0       	ldi	r25, 0x00	; 0
    1e56:	a0 e0       	ldi	r26, 0x00	; 0
    1e58:	b0 e0       	ldi	r27, 0x00	; 0
    1e5a:	48 2b       	or	r20, r24
    1e5c:	59 2b       	or	r21, r25
    1e5e:	6a 2b       	or	r22, r26
    1e60:	7b 2b       	or	r23, r27
    1e62:	93 a9       	sts	0x43, r25
    1e64:	80 e0       	ldi	r24, 0x00	; 0
    1e66:	a0 e0       	ldi	r26, 0x00	; 0
    1e68:	b0 e0       	ldi	r27, 0x00	; 0
    1e6a:	48 2b       	or	r20, r24
    1e6c:	59 2b       	or	r21, r25
    1e6e:	6a 2b       	or	r22, r26
    1e70:	7b 2b       	or	r23, r27
    1e72:	42 35       	cpi	r20, 0x52	; 82
    1e74:	f2 e5       	ldi	r31, 0x52	; 82
    1e76:	5f 07       	cpc	r21, r31
    1e78:	f1 e6       	ldi	r31, 0x61	; 97
    1e7a:	6f 07       	cpc	r22, r31
    1e7c:	f1 e4       	ldi	r31, 0x41	; 65
    1e7e:	7f 07       	cpc	r23, r31
    1e80:	09 f0       	breq	.+2      	; 0x1e84 <chk_mounted+0x69a>
    1e82:	ae c0       	rjmp	.+348    	; 0x1fe0 <chk_mounted+0x7f6>
    1e84:	ef 85       	ldd	r30, Y+15	; 0x0f
    1e86:	f8 89       	ldd	r31, Y+16	; 0x10
    1e88:	e7 5e       	subi	r30, 0xE7	; 231
    1e8a:	fd 4f       	sbci	r31, 0xFD	; 253
    1e8c:	40 81       	ld	r20, Z
    1e8e:	50 e0       	ldi	r21, 0x00	; 0
    1e90:	60 e0       	ldi	r22, 0x00	; 0
    1e92:	70 e0       	ldi	r23, 0x00	; 0
    1e94:	74 2f       	mov	r23, r20
    1e96:	66 27       	eor	r22, r22
    1e98:	55 27       	eor	r21, r21
    1e9a:	44 27       	eor	r20, r20
    1e9c:	ef 85       	ldd	r30, Y+15	; 0x0f
    1e9e:	f8 89       	ldd	r31, Y+16	; 0x10
    1ea0:	e8 5e       	subi	r30, 0xE8	; 232
    1ea2:	fd 4f       	sbci	r31, 0xFD	; 253
    1ea4:	80 81       	ld	r24, Z
    1ea6:	90 e0       	ldi	r25, 0x00	; 0
    1ea8:	a0 e0       	ldi	r26, 0x00	; 0
    1eaa:	b0 e0       	ldi	r27, 0x00	; 0
    1eac:	dc 01       	movw	r26, r24
    1eae:	99 27       	eor	r25, r25
    1eb0:	88 27       	eor	r24, r24
    1eb2:	48 2b       	or	r20, r24
    1eb4:	59 2b       	or	r21, r25
    1eb6:	6a 2b       	or	r22, r26
    1eb8:	7b 2b       	or	r23, r27
    1eba:	ef 85       	ldd	r30, Y+15	; 0x0f
    1ebc:	f8 89       	ldd	r31, Y+16	; 0x10
    1ebe:	ea 5e       	subi	r30, 0xEA	; 234
    1ec0:	fd 4f       	sbci	r31, 0xFD	; 253
    1ec2:	80 81       	ld	r24, Z
    1ec4:	90 e0       	ldi	r25, 0x00	; 0
    1ec6:	a0 e0       	ldi	r26, 0x00	; 0
    1ec8:	b0 e0       	ldi	r27, 0x00	; 0
    1eca:	48 2b       	or	r20, r24
    1ecc:	59 2b       	or	r21, r25
    1ece:	6a 2b       	or	r22, r26
    1ed0:	7b 2b       	or	r23, r27
    1ed2:	ef 85       	ldd	r30, Y+15	; 0x0f
    1ed4:	f8 89       	ldd	r31, Y+16	; 0x10
    1ed6:	e9 5e       	subi	r30, 0xE9	; 233
    1ed8:	fd 4f       	sbci	r31, 0xFD	; 253
    1eda:	90 81       	ld	r25, Z
    1edc:	80 e0       	ldi	r24, 0x00	; 0
    1ede:	a0 e0       	ldi	r26, 0x00	; 0
    1ee0:	b0 e0       	ldi	r27, 0x00	; 0
    1ee2:	48 2b       	or	r20, r24
    1ee4:	59 2b       	or	r21, r25
    1ee6:	6a 2b       	or	r22, r26
    1ee8:	7b 2b       	or	r23, r27
    1eea:	42 37       	cpi	r20, 0x72	; 114
    1eec:	22 e7       	ldi	r18, 0x72	; 114
    1eee:	52 07       	cpc	r21, r18
    1ef0:	21 e4       	ldi	r18, 0x41	; 65
    1ef2:	62 07       	cpc	r22, r18
    1ef4:	21 e6       	ldi	r18, 0x61	; 97
    1ef6:	72 07       	cpc	r23, r18
    1ef8:	09 f0       	breq	.+2      	; 0x1efc <chk_mounted+0x712>
    1efa:	72 c0       	rjmp	.+228    	; 0x1fe0 <chk_mounted+0x7f6>
    1efc:	ef 85       	ldd	r30, Y+15	; 0x0f
    1efe:	f8 89       	ldd	r31, Y+16	; 0x10
    1f00:	ef 5d       	subi	r30, 0xDF	; 223
    1f02:	fd 4f       	sbci	r31, 0xFD	; 253
    1f04:	40 81       	ld	r20, Z
    1f06:	50 e0       	ldi	r21, 0x00	; 0
    1f08:	60 e0       	ldi	r22, 0x00	; 0
    1f0a:	70 e0       	ldi	r23, 0x00	; 0
    1f0c:	74 2f       	mov	r23, r20
    1f0e:	66 27       	eor	r22, r22
    1f10:	55 27       	eor	r21, r21
    1f12:	44 27       	eor	r20, r20
    1f14:	ef 85       	ldd	r30, Y+15	; 0x0f
    1f16:	f8 89       	ldd	r31, Y+16	; 0x10
    1f18:	e0 5e       	subi	r30, 0xE0	; 224
    1f1a:	fd 4f       	sbci	r31, 0xFD	; 253
    1f1c:	80 81       	ld	r24, Z
    1f1e:	90 e0       	ldi	r25, 0x00	; 0
    1f20:	a0 e0       	ldi	r26, 0x00	; 0
    1f22:	b0 e0       	ldi	r27, 0x00	; 0
    1f24:	dc 01       	movw	r26, r24
    1f26:	99 27       	eor	r25, r25
    1f28:	88 27       	eor	r24, r24
    1f2a:	48 2b       	or	r20, r24
    1f2c:	59 2b       	or	r21, r25
    1f2e:	6a 2b       	or	r22, r26
    1f30:	7b 2b       	or	r23, r27
    1f32:	ef 85       	ldd	r30, Y+15	; 0x0f
    1f34:	f8 89       	ldd	r31, Y+16	; 0x10
    1f36:	e2 5e       	subi	r30, 0xE2	; 226
    1f38:	fd 4f       	sbci	r31, 0xFD	; 253
    1f3a:	80 81       	ld	r24, Z
    1f3c:	90 e0       	ldi	r25, 0x00	; 0
    1f3e:	a0 e0       	ldi	r26, 0x00	; 0
    1f40:	b0 e0       	ldi	r27, 0x00	; 0
    1f42:	48 2b       	or	r20, r24
    1f44:	59 2b       	or	r21, r25
    1f46:	6a 2b       	or	r22, r26
    1f48:	7b 2b       	or	r23, r27
    1f4a:	ef 85       	ldd	r30, Y+15	; 0x0f
    1f4c:	f8 89       	ldd	r31, Y+16	; 0x10
    1f4e:	e1 5e       	subi	r30, 0xE1	; 225
    1f50:	fd 4f       	sbci	r31, 0xFD	; 253
    1f52:	90 81       	ld	r25, Z
    1f54:	80 e0       	ldi	r24, 0x00	; 0
    1f56:	a0 e0       	ldi	r26, 0x00	; 0
    1f58:	b0 e0       	ldi	r27, 0x00	; 0
    1f5a:	48 2b       	or	r20, r24
    1f5c:	59 2b       	or	r21, r25
    1f5e:	6a 2b       	or	r22, r26
    1f60:	7b 2b       	or	r23, r27
    1f62:	af 85       	ldd	r26, Y+15	; 0x0f
    1f64:	b8 89       	ldd	r27, Y+16	; 0x10
    1f66:	1a 96       	adiw	r26, 0x0a	; 10
    1f68:	4d 93       	st	X+, r20
    1f6a:	5d 93       	st	X+, r21
    1f6c:	6d 93       	st	X+, r22
    1f6e:	7c 93       	st	X, r23
    1f70:	1d 97       	sbiw	r26, 0x0d	; 13
    1f72:	fd 01       	movw	r30, r26
    1f74:	e3 5e       	subi	r30, 0xE3	; 227
    1f76:	fd 4f       	sbci	r31, 0xFD	; 253
    1f78:	40 81       	ld	r20, Z
    1f7a:	50 e0       	ldi	r21, 0x00	; 0
    1f7c:	60 e0       	ldi	r22, 0x00	; 0
    1f7e:	70 e0       	ldi	r23, 0x00	; 0
    1f80:	74 2f       	mov	r23, r20
    1f82:	66 27       	eor	r22, r22
    1f84:	55 27       	eor	r21, r21
    1f86:	44 27       	eor	r20, r20
    1f88:	fd 01       	movw	r30, r26
    1f8a:	e4 5e       	subi	r30, 0xE4	; 228
    1f8c:	fd 4f       	sbci	r31, 0xFD	; 253
    1f8e:	80 81       	ld	r24, Z
    1f90:	90 e0       	ldi	r25, 0x00	; 0
    1f92:	a0 e0       	ldi	r26, 0x00	; 0
    1f94:	b0 e0       	ldi	r27, 0x00	; 0
    1f96:	dc 01       	movw	r26, r24
    1f98:	99 27       	eor	r25, r25
    1f9a:	88 27       	eor	r24, r24
    1f9c:	48 2b       	or	r20, r24
    1f9e:	59 2b       	or	r21, r25
    1fa0:	6a 2b       	or	r22, r26
    1fa2:	7b 2b       	or	r23, r27
    1fa4:	ef 85       	ldd	r30, Y+15	; 0x0f
    1fa6:	f8 89       	ldd	r31, Y+16	; 0x10
    1fa8:	e6 5e       	subi	r30, 0xE6	; 230
    1faa:	fd 4f       	sbci	r31, 0xFD	; 253
    1fac:	80 81       	ld	r24, Z
    1fae:	90 e0       	ldi	r25, 0x00	; 0
    1fb0:	a0 e0       	ldi	r26, 0x00	; 0
    1fb2:	b0 e0       	ldi	r27, 0x00	; 0
    1fb4:	48 2b       	or	r20, r24
    1fb6:	59 2b       	or	r21, r25
    1fb8:	6a 2b       	or	r22, r26
    1fba:	7b 2b       	or	r23, r27
    1fbc:	ef 85       	ldd	r30, Y+15	; 0x0f
    1fbe:	f8 89       	ldd	r31, Y+16	; 0x10
    1fc0:	e5 5e       	subi	r30, 0xE5	; 229
    1fc2:	fd 4f       	sbci	r31, 0xFD	; 253
    1fc4:	90 81       	ld	r25, Z
    1fc6:	80 e0       	ldi	r24, 0x00	; 0
    1fc8:	a0 e0       	ldi	r26, 0x00	; 0
    1fca:	b0 e0       	ldi	r27, 0x00	; 0
    1fcc:	48 2b       	or	r20, r24
    1fce:	59 2b       	or	r21, r25
    1fd0:	6a 2b       	or	r22, r26
    1fd2:	7b 2b       	or	r23, r27
    1fd4:	ef 85       	ldd	r30, Y+15	; 0x0f
    1fd6:	f8 89       	ldd	r31, Y+16	; 0x10
    1fd8:	46 87       	std	Z+14, r20	; 0x0e
    1fda:	57 87       	std	Z+15, r21	; 0x0f
    1fdc:	60 8b       	std	Z+16, r22	; 0x10
    1fde:	71 8b       	std	Z+17, r23	; 0x11
    1fe0:	af 85       	ldd	r26, Y+15	; 0x0f
    1fe2:	b8 89       	ldd	r27, Y+16	; 0x10
    1fe4:	3c 92       	st	X, r3
    1fe6:	80 91 82 02 	lds	r24, 0x0282
    1fea:	90 91 83 02 	lds	r25, 0x0283
    1fee:	01 96       	adiw	r24, 0x01	; 1
    1ff0:	90 93 83 02 	sts	0x0283, r25
    1ff4:	80 93 82 02 	sts	0x0282, r24
    1ff8:	17 96       	adiw	r26, 0x07	; 7
    1ffa:	9c 93       	st	X, r25
    1ffc:	8e 93       	st	-X, r24
    1ffe:	16 97       	sbiw	r26, 0x06	; 6
    2000:	fd 01       	movw	r30, r26
    2002:	16 a6       	lds	r17, 0xb6
    2004:	17 a6       	lds	r17, 0xb7
    2006:	10 aa       	sts	0x90, r17
    2008:	11 aa       	sts	0x91, r17
    200a:	14 82       	std	Z+4, r1	; 0x04
    200c:	56 96       	adiw	r26, 0x16	; 22
    200e:	1d 92       	st	X+, r1
    2010:	1d 92       	st	X+, r1
    2012:	1d 92       	st	X+, r1
    2014:	1c 92       	st	X, r1
    2016:	59 97       	sbiw	r26, 0x19	; 25
    2018:	04 c0       	rjmp	.+8      	; 0x2022 <chk_mounted+0x838>
    201a:	8b e0       	ldi	r24, 0x0B	; 11
    201c:	0b c0       	rjmp	.+22     	; 0x2034 <chk_mounted+0x84a>
    201e:	8c e0       	ldi	r24, 0x0C	; 12
    2020:	09 c0       	rjmp	.+18     	; 0x2034 <chk_mounted+0x84a>
    2022:	80 e0       	ldi	r24, 0x00	; 0
    2024:	07 c0       	rjmp	.+14     	; 0x2034 <chk_mounted+0x84a>
    2026:	83 e0       	ldi	r24, 0x03	; 3
    2028:	05 c0       	rjmp	.+10     	; 0x2034 <chk_mounted+0x84a>
    202a:	8a e0       	ldi	r24, 0x0A	; 10
    202c:	03 c0       	rjmp	.+6      	; 0x2034 <chk_mounted+0x84a>
    202e:	81 e0       	ldi	r24, 0x01	; 1
    2030:	01 c0       	rjmp	.+2      	; 0x2034 <chk_mounted+0x84a>
    2032:	8d e0       	ldi	r24, 0x0D	; 13
    2034:	60 96       	adiw	r28, 0x10	; 16
    2036:	0f b6       	in	r0, 0x3f	; 63
    2038:	f8 94       	cli
    203a:	de bf       	out	0x3e, r29	; 62
    203c:	0f be       	out	0x3f, r0	; 63
    203e:	cd bf       	out	0x3d, r28	; 61
    2040:	df 91       	pop	r29
    2042:	cf 91       	pop	r28
    2044:	1f 91       	pop	r17
    2046:	0f 91       	pop	r16
    2048:	ff 90       	pop	r15
    204a:	ef 90       	pop	r14
    204c:	df 90       	pop	r13
    204e:	cf 90       	pop	r12
    2050:	bf 90       	pop	r11
    2052:	af 90       	pop	r10
    2054:	9f 90       	pop	r9
    2056:	8f 90       	pop	r8
    2058:	7f 90       	pop	r7
    205a:	6f 90       	pop	r6
    205c:	5f 90       	pop	r5
    205e:	4f 90       	pop	r4
    2060:	3f 90       	pop	r3
    2062:	08 95       	ret

00002064 <get_fattime>:
    2064:	60 e0       	ldi	r22, 0x00	; 0
    2066:	70 e0       	ldi	r23, 0x00	; 0
    2068:	cb 01       	movw	r24, r22
    206a:	08 95       	ret

0000206c <clust2sect>:
    206c:	0f 93       	push	r16
    206e:	1f 93       	push	r17
    2070:	cf 93       	push	r28
    2072:	df 93       	push	r29
    2074:	ec 01       	movw	r28, r24
    2076:	db 01       	movw	r26, r22
    2078:	ca 01       	movw	r24, r20
    207a:	02 97       	sbiw	r24, 0x02	; 2
    207c:	a1 09       	sbc	r26, r1
    207e:	b1 09       	sbc	r27, r1
    2080:	4a 8d       	ldd	r20, Y+26	; 0x1a
    2082:	5b 8d       	ldd	r21, Y+27	; 0x1b
    2084:	6c 8d       	ldd	r22, Y+28	; 0x1c
    2086:	7d 8d       	ldd	r23, Y+29	; 0x1d
    2088:	42 50       	subi	r20, 0x02	; 2
    208a:	50 40       	sbci	r21, 0x00	; 0
    208c:	60 40       	sbci	r22, 0x00	; 0
    208e:	70 40       	sbci	r23, 0x00	; 0
    2090:	84 17       	cp	r24, r20
    2092:	95 07       	cpc	r25, r21
    2094:	a6 07       	cpc	r26, r22
    2096:	b7 07       	cpc	r27, r23
    2098:	98 f4       	brcc	.+38     	; 0x20c0 <clust2sect+0x54>
    209a:	2a 81       	ldd	r18, Y+2	; 0x02
    209c:	30 e0       	ldi	r19, 0x00	; 0
    209e:	40 e0       	ldi	r20, 0x00	; 0
    20a0:	50 e0       	ldi	r21, 0x00	; 0
    20a2:	bc 01       	movw	r22, r24
    20a4:	cd 01       	movw	r24, r26
    20a6:	0e 94 5c 37 	call	0x6eb8	; 0x6eb8 <__mulsi3>
    20aa:	8b 01       	movw	r16, r22
    20ac:	9c 01       	movw	r18, r24
    20ae:	8a a5       	lds	r24, 0x6a
    20b0:	9b a5       	lds	r25, 0x6b
    20b2:	ac a5       	lds	r26, 0x6c
    20b4:	bd a5       	lds	r27, 0x6d
    20b6:	08 0f       	add	r16, r24
    20b8:	19 1f       	adc	r17, r25
    20ba:	2a 1f       	adc	r18, r26
    20bc:	3b 1f       	adc	r19, r27
    20be:	03 c0       	rjmp	.+6      	; 0x20c6 <clust2sect+0x5a>
    20c0:	00 e0       	ldi	r16, 0x00	; 0
    20c2:	10 e0       	ldi	r17, 0x00	; 0
    20c4:	98 01       	movw	r18, r16
    20c6:	b8 01       	movw	r22, r16
    20c8:	c9 01       	movw	r24, r18
    20ca:	df 91       	pop	r29
    20cc:	cf 91       	pop	r28
    20ce:	1f 91       	pop	r17
    20d0:	0f 91       	pop	r16
    20d2:	08 95       	ret

000020d4 <get_fat>:
    20d4:	8f 92       	push	r8
    20d6:	9f 92       	push	r9
    20d8:	af 92       	push	r10
    20da:	bf 92       	push	r11
    20dc:	cf 92       	push	r12
    20de:	df 92       	push	r13
    20e0:	ef 92       	push	r14
    20e2:	ff 92       	push	r15
    20e4:	0f 93       	push	r16
    20e6:	1f 93       	push	r17
    20e8:	cf 93       	push	r28
    20ea:	df 93       	push	r29
    20ec:	ec 01       	movw	r28, r24
    20ee:	4a 01       	movw	r8, r20
    20f0:	5b 01       	movw	r10, r22
    20f2:	42 30       	cpi	r20, 0x02	; 2
    20f4:	51 05       	cpc	r21, r1
    20f6:	61 05       	cpc	r22, r1
    20f8:	71 05       	cpc	r23, r1
    20fa:	08 f4       	brcc	.+2      	; 0x20fe <get_fat+0x2a>
    20fc:	e9 c0       	rjmp	.+466    	; 0x22d0 <get_fat+0x1fc>
    20fe:	8a 8d       	ldd	r24, Y+26	; 0x1a
    2100:	9b 8d       	ldd	r25, Y+27	; 0x1b
    2102:	ac 8d       	ldd	r26, Y+28	; 0x1c
    2104:	bd 8d       	ldd	r27, Y+29	; 0x1d
    2106:	48 17       	cp	r20, r24
    2108:	59 07       	cpc	r21, r25
    210a:	6a 07       	cpc	r22, r26
    210c:	7b 07       	cpc	r23, r27
    210e:	08 f0       	brcs	.+2      	; 0x2112 <get_fat+0x3e>
    2110:	df c0       	rjmp	.+446    	; 0x22d0 <get_fat+0x1fc>
    2112:	88 81       	ld	r24, Y
    2114:	82 30       	cpi	r24, 0x02	; 2
    2116:	09 f4       	brne	.+2      	; 0x211a <get_fat+0x46>
    2118:	75 c0       	rjmp	.+234    	; 0x2204 <get_fat+0x130>
    211a:	83 30       	cpi	r24, 0x03	; 3
    211c:	09 f4       	brne	.+2      	; 0x2120 <get_fat+0x4c>
    211e:	93 c0       	rjmp	.+294    	; 0x2246 <get_fat+0x172>
    2120:	81 30       	cpi	r24, 0x01	; 1
    2122:	09 f0       	breq	.+2      	; 0x2126 <get_fat+0x52>
    2124:	d1 c0       	rjmp	.+418    	; 0x22c8 <get_fat+0x1f4>
    2126:	6a 01       	movw	r12, r20
    2128:	7b 01       	movw	r14, r22
    212a:	f6 94       	lsr	r15
    212c:	e7 94       	ror	r14
    212e:	d7 94       	ror	r13
    2130:	c7 94       	ror	r12
    2132:	c4 0e       	add	r12, r20
    2134:	d5 1e       	adc	r13, r21
    2136:	e6 1e       	adc	r14, r22
    2138:	f7 1e       	adc	r15, r23
    213a:	b7 01       	movw	r22, r14
    213c:	a6 01       	movw	r20, r12
    213e:	89 e0       	ldi	r24, 0x09	; 9
    2140:	76 95       	lsr	r23
    2142:	67 95       	ror	r22
    2144:	57 95       	ror	r21
    2146:	47 95       	ror	r20
    2148:	8a 95       	dec	r24
    214a:	d1 f7       	brne	.-12     	; 0x2140 <get_fat+0x6c>
    214c:	8a a1       	lds	r24, 0x4a
    214e:	9b a1       	lds	r25, 0x4b
    2150:	ac a1       	lds	r26, 0x4c
    2152:	bd a1       	lds	r27, 0x4d
    2154:	48 0f       	add	r20, r24
    2156:	59 1f       	adc	r21, r25
    2158:	6a 1f       	adc	r22, r26
    215a:	7b 1f       	adc	r23, r27
    215c:	ce 01       	movw	r24, r28
    215e:	0e 94 19 0a 	call	0x1432	; 0x1432 <move_window>
    2162:	88 23       	and	r24, r24
    2164:	09 f0       	breq	.+2      	; 0x2168 <get_fat+0x94>
    2166:	b0 c0       	rjmp	.+352    	; 0x22c8 <get_fat+0x1f4>
    2168:	d7 01       	movw	r26, r14
    216a:	c6 01       	movw	r24, r12
    216c:	91 70       	andi	r25, 0x01	; 1
    216e:	a0 70       	andi	r26, 0x00	; 0
    2170:	b0 70       	andi	r27, 0x00	; 0
    2172:	fe 01       	movw	r30, r28
    2174:	e8 0f       	add	r30, r24
    2176:	f9 1f       	adc	r31, r25
    2178:	02 a9       	sts	0x42, r16
    217a:	08 94       	sec
    217c:	c1 1c       	adc	r12, r1
    217e:	d1 1c       	adc	r13, r1
    2180:	e1 1c       	adc	r14, r1
    2182:	f1 1c       	adc	r15, r1
    2184:	b7 01       	movw	r22, r14
    2186:	a6 01       	movw	r20, r12
    2188:	19 e0       	ldi	r17, 0x09	; 9
    218a:	76 95       	lsr	r23
    218c:	67 95       	ror	r22
    218e:	57 95       	ror	r21
    2190:	47 95       	ror	r20
    2192:	1a 95       	dec	r17
    2194:	d1 f7       	brne	.-12     	; 0x218a <get_fat+0xb6>
    2196:	8a a1       	lds	r24, 0x4a
    2198:	9b a1       	lds	r25, 0x4b
    219a:	ac a1       	lds	r26, 0x4c
    219c:	bd a1       	lds	r27, 0x4d
    219e:	48 0f       	add	r20, r24
    21a0:	59 1f       	adc	r21, r25
    21a2:	6a 1f       	adc	r22, r26
    21a4:	7b 1f       	adc	r23, r27
    21a6:	ce 01       	movw	r24, r28
    21a8:	0e 94 19 0a 	call	0x1432	; 0x1432 <move_window>
    21ac:	88 23       	and	r24, r24
    21ae:	09 f0       	breq	.+2      	; 0x21b2 <get_fat+0xde>
    21b0:	8b c0       	rjmp	.+278    	; 0x22c8 <get_fat+0x1f4>
    21b2:	80 2f       	mov	r24, r16
    21b4:	90 e0       	ldi	r25, 0x00	; 0
    21b6:	a0 e0       	ldi	r26, 0x00	; 0
    21b8:	b0 e0       	ldi	r27, 0x00	; 0
    21ba:	2f ef       	ldi	r18, 0xFF	; 255
    21bc:	31 e0       	ldi	r19, 0x01	; 1
    21be:	40 e0       	ldi	r20, 0x00	; 0
    21c0:	50 e0       	ldi	r21, 0x00	; 0
    21c2:	c2 22       	and	r12, r18
    21c4:	d3 22       	and	r13, r19
    21c6:	e4 22       	and	r14, r20
    21c8:	f5 22       	and	r15, r21
    21ca:	cc 0d       	add	r28, r12
    21cc:	dd 1d       	adc	r29, r13
    21ce:	1a a9       	sts	0x4a, r17
    21d0:	00 e0       	ldi	r16, 0x00	; 0
    21d2:	22 27       	eor	r18, r18
    21d4:	17 fd       	sbrc	r17, 7
    21d6:	20 95       	com	r18
    21d8:	32 2f       	mov	r19, r18
    21da:	08 2b       	or	r16, r24
    21dc:	19 2b       	or	r17, r25
    21de:	2a 2b       	or	r18, r26
    21e0:	3b 2b       	or	r19, r27
    21e2:	f4 01       	movw	r30, r8
    21e4:	e1 70       	andi	r30, 0x01	; 1
    21e6:	f0 70       	andi	r31, 0x00	; 0
    21e8:	30 97       	sbiw	r30, 0x00	; 0
    21ea:	41 f0       	breq	.+16     	; 0x21fc <get_fat+0x128>
    21ec:	c4 e0       	ldi	r28, 0x04	; 4
    21ee:	36 95       	lsr	r19
    21f0:	27 95       	ror	r18
    21f2:	17 95       	ror	r17
    21f4:	07 95       	ror	r16
    21f6:	ca 95       	dec	r28
    21f8:	d1 f7       	brne	.-12     	; 0x21ee <get_fat+0x11a>
    21fa:	6e c0       	rjmp	.+220    	; 0x22d8 <get_fat+0x204>
    21fc:	1f 70       	andi	r17, 0x0F	; 15
    21fe:	20 70       	andi	r18, 0x00	; 0
    2200:	30 70       	andi	r19, 0x00	; 0
    2202:	6a c0       	rjmp	.+212    	; 0x22d8 <get_fat+0x204>
    2204:	45 2f       	mov	r20, r21
    2206:	56 2f       	mov	r21, r22
    2208:	67 2f       	mov	r22, r23
    220a:	77 27       	eor	r23, r23
    220c:	8a a1       	lds	r24, 0x4a
    220e:	9b a1       	lds	r25, 0x4b
    2210:	ac a1       	lds	r26, 0x4c
    2212:	bd a1       	lds	r27, 0x4d
    2214:	48 0f       	add	r20, r24
    2216:	59 1f       	adc	r21, r25
    2218:	6a 1f       	adc	r22, r26
    221a:	7b 1f       	adc	r23, r27
    221c:	ce 01       	movw	r24, r28
    221e:	0e 94 19 0a 	call	0x1432	; 0x1432 <move_window>
    2222:	88 23       	and	r24, r24
    2224:	09 f0       	breq	.+2      	; 0x2228 <get_fat+0x154>
    2226:	50 c0       	rjmp	.+160    	; 0x22c8 <get_fat+0x1f4>
    2228:	f4 01       	movw	r30, r8
    222a:	ee 0f       	add	r30, r30
    222c:	ff 1f       	adc	r31, r31
    222e:	f1 70       	andi	r31, 0x01	; 1
    2230:	ec 0f       	add	r30, r28
    2232:	fd 1f       	adc	r31, r29
    2234:	93 a9       	sts	0x43, r25
    2236:	80 e0       	ldi	r24, 0x00	; 0
    2238:	02 a9       	sts	0x42, r16
    223a:	10 e0       	ldi	r17, 0x00	; 0
    223c:	08 2b       	or	r16, r24
    223e:	19 2b       	or	r17, r25
    2240:	20 e0       	ldi	r18, 0x00	; 0
    2242:	30 e0       	ldi	r19, 0x00	; 0
    2244:	49 c0       	rjmp	.+146    	; 0x22d8 <get_fat+0x204>
    2246:	e7 e0       	ldi	r30, 0x07	; 7
    2248:	76 95       	lsr	r23
    224a:	67 95       	ror	r22
    224c:	57 95       	ror	r21
    224e:	47 95       	ror	r20
    2250:	ea 95       	dec	r30
    2252:	d1 f7       	brne	.-12     	; 0x2248 <get_fat+0x174>
    2254:	8a a1       	lds	r24, 0x4a
    2256:	9b a1       	lds	r25, 0x4b
    2258:	ac a1       	lds	r26, 0x4c
    225a:	bd a1       	lds	r27, 0x4d
    225c:	48 0f       	add	r20, r24
    225e:	59 1f       	adc	r21, r25
    2260:	6a 1f       	adc	r22, r26
    2262:	7b 1f       	adc	r23, r27
    2264:	ce 01       	movw	r24, r28
    2266:	0e 94 19 0a 	call	0x1432	; 0x1432 <move_window>
    226a:	88 23       	and	r24, r24
    226c:	69 f5       	brne	.+90     	; 0x22c8 <get_fat+0x1f4>
    226e:	f4 01       	movw	r30, r8
    2270:	ee 0f       	add	r30, r30
    2272:	ff 1f       	adc	r31, r31
    2274:	ee 0f       	add	r30, r30
    2276:	ff 1f       	adc	r31, r31
    2278:	f1 70       	andi	r31, 0x01	; 1
    227a:	ec 0f       	add	r30, r28
    227c:	fd 1f       	adc	r31, r29
    227e:	05 a9       	sts	0x45, r16
    2280:	10 e0       	ldi	r17, 0x00	; 0
    2282:	20 e0       	ldi	r18, 0x00	; 0
    2284:	30 e0       	ldi	r19, 0x00	; 0
    2286:	30 2f       	mov	r19, r16
    2288:	22 27       	eor	r18, r18
    228a:	11 27       	eor	r17, r17
    228c:	00 27       	eor	r16, r16
    228e:	84 a9       	sts	0x44, r24
    2290:	90 e0       	ldi	r25, 0x00	; 0
    2292:	a0 e0       	ldi	r26, 0x00	; 0
    2294:	b0 e0       	ldi	r27, 0x00	; 0
    2296:	dc 01       	movw	r26, r24
    2298:	99 27       	eor	r25, r25
    229a:	88 27       	eor	r24, r24
    229c:	08 2b       	or	r16, r24
    229e:	19 2b       	or	r17, r25
    22a0:	2a 2b       	or	r18, r26
    22a2:	3b 2b       	or	r19, r27
    22a4:	82 a9       	sts	0x42, r24
    22a6:	90 e0       	ldi	r25, 0x00	; 0
    22a8:	a0 e0       	ldi	r26, 0x00	; 0
    22aa:	b0 e0       	ldi	r27, 0x00	; 0
    22ac:	08 2b       	or	r16, r24
    22ae:	19 2b       	or	r17, r25
    22b0:	2a 2b       	or	r18, r26
    22b2:	3b 2b       	or	r19, r27
    22b4:	93 a9       	sts	0x43, r25
    22b6:	80 e0       	ldi	r24, 0x00	; 0
    22b8:	a0 e0       	ldi	r26, 0x00	; 0
    22ba:	b0 e0       	ldi	r27, 0x00	; 0
    22bc:	08 2b       	or	r16, r24
    22be:	19 2b       	or	r17, r25
    22c0:	2a 2b       	or	r18, r26
    22c2:	3b 2b       	or	r19, r27
    22c4:	3f 70       	andi	r19, 0x0F	; 15
    22c6:	08 c0       	rjmp	.+16     	; 0x22d8 <get_fat+0x204>
    22c8:	0f ef       	ldi	r16, 0xFF	; 255
    22ca:	1f ef       	ldi	r17, 0xFF	; 255
    22cc:	98 01       	movw	r18, r16
    22ce:	04 c0       	rjmp	.+8      	; 0x22d8 <get_fat+0x204>
    22d0:	01 e0       	ldi	r16, 0x01	; 1
    22d2:	10 e0       	ldi	r17, 0x00	; 0
    22d4:	20 e0       	ldi	r18, 0x00	; 0
    22d6:	30 e0       	ldi	r19, 0x00	; 0
    22d8:	b8 01       	movw	r22, r16
    22da:	c9 01       	movw	r24, r18
    22dc:	df 91       	pop	r29
    22de:	cf 91       	pop	r28
    22e0:	1f 91       	pop	r17
    22e2:	0f 91       	pop	r16
    22e4:	ff 90       	pop	r15
    22e6:	ef 90       	pop	r14
    22e8:	df 90       	pop	r13
    22ea:	cf 90       	pop	r12
    22ec:	bf 90       	pop	r11
    22ee:	af 90       	pop	r10
    22f0:	9f 90       	pop	r9
    22f2:	8f 90       	pop	r8
    22f4:	08 95       	ret

000022f6 <dir_sdi>:
    22f6:	ef 92       	push	r14
    22f8:	ff 92       	push	r15
    22fa:	0f 93       	push	r16
    22fc:	1f 93       	push	r17
    22fe:	cf 93       	push	r28
    2300:	df 93       	push	r29
    2302:	8c 01       	movw	r16, r24
    2304:	7b 01       	movw	r14, r22
    2306:	dc 01       	movw	r26, r24
    2308:	15 96       	adiw	r26, 0x05	; 5
    230a:	7c 93       	st	X, r23
    230c:	6e 93       	st	-X, r22
    230e:	14 97       	sbiw	r26, 0x04	; 4
    2310:	16 96       	adiw	r26, 0x06	; 6
    2312:	4d 91       	ld	r20, X+
    2314:	5d 91       	ld	r21, X+
    2316:	6d 91       	ld	r22, X+
    2318:	7c 91       	ld	r23, X
    231a:	19 97       	sbiw	r26, 0x09	; 9
    231c:	41 30       	cpi	r20, 0x01	; 1
    231e:	51 05       	cpc	r21, r1
    2320:	61 05       	cpc	r22, r1
    2322:	71 05       	cpc	r23, r1
    2324:	09 f4       	brne	.+2      	; 0x2328 <dir_sdi+0x32>
    2326:	93 c0       	rjmp	.+294    	; 0x244e <dir_sdi+0x158>
    2328:	ed 91       	ld	r30, X+
    232a:	fc 91       	ld	r31, X
    232c:	82 8d       	ldd	r24, Z+26	; 0x1a
    232e:	93 8d       	ldd	r25, Z+27	; 0x1b
    2330:	a4 8d       	ldd	r26, Z+28	; 0x1c
    2332:	b5 8d       	ldd	r27, Z+29	; 0x1d
    2334:	48 17       	cp	r20, r24
    2336:	59 07       	cpc	r21, r25
    2338:	6a 07       	cpc	r22, r26
    233a:	7b 07       	cpc	r23, r27
    233c:	08 f0       	brcs	.+2      	; 0x2340 <dir_sdi+0x4a>
    233e:	87 c0       	rjmp	.+270    	; 0x244e <dir_sdi+0x158>
    2340:	41 15       	cp	r20, r1
    2342:	51 05       	cpc	r21, r1
    2344:	61 05       	cpc	r22, r1
    2346:	71 05       	cpc	r23, r1
    2348:	31 f5       	brne	.+76     	; 0x2396 <dir_sdi+0xa0>
    234a:	80 81       	ld	r24, Z
    234c:	83 30       	cpi	r24, 0x03	; 3
    234e:	49 f4       	brne	.+18     	; 0x2362 <dir_sdi+0x6c>
    2350:	46 a1       	lds	r20, 0x46
    2352:	57 a1       	lds	r21, 0x47
    2354:	60 a5       	lds	r22, 0x60
    2356:	71 a5       	lds	r23, 0x61
    2358:	41 15       	cp	r20, r1
    235a:	51 05       	cpc	r21, r1
    235c:	61 05       	cpc	r22, r1
    235e:	71 05       	cpc	r23, r1
    2360:	d1 f4       	brne	.+52     	; 0x2396 <dir_sdi+0xa0>
    2362:	d8 01       	movw	r26, r16
    2364:	1a 96       	adiw	r26, 0x0a	; 10
    2366:	1d 92       	st	X+, r1
    2368:	1d 92       	st	X+, r1
    236a:	1d 92       	st	X+, r1
    236c:	1c 92       	st	X, r1
    236e:	1d 97       	sbiw	r26, 0x0d	; 13
    2370:	80 85       	ldd	r24, Z+8	; 0x08
    2372:	91 85       	ldd	r25, Z+9	; 0x09
    2374:	e8 16       	cp	r14, r24
    2376:	f9 06       	cpc	r15, r25
    2378:	08 f0       	brcs	.+2      	; 0x237c <dir_sdi+0x86>
    237a:	69 c0       	rjmp	.+210    	; 0x244e <dir_sdi+0x158>
    237c:	c7 01       	movw	r24, r14
    237e:	b4 e0       	ldi	r27, 0x04	; 4
    2380:	96 95       	lsr	r25
    2382:	87 95       	ror	r24
    2384:	ba 95       	dec	r27
    2386:	e1 f7       	brne	.-8      	; 0x2380 <dir_sdi+0x8a>
    2388:	a0 e0       	ldi	r26, 0x00	; 0
    238a:	b0 e0       	ldi	r27, 0x00	; 0
    238c:	46 a1       	lds	r20, 0x46
    238e:	57 a1       	lds	r21, 0x47
    2390:	60 a5       	lds	r22, 0x60
    2392:	71 a5       	lds	r23, 0x61
    2394:	3f c0       	rjmp	.+126    	; 0x2414 <dir_sdi+0x11e>
    2396:	c2 81       	ldd	r28, Z+2	; 0x02
    2398:	d0 e0       	ldi	r29, 0x00	; 0
    239a:	a4 e0       	ldi	r26, 0x04	; 4
    239c:	cc 0f       	add	r28, r28
    239e:	dd 1f       	adc	r29, r29
    23a0:	aa 95       	dec	r26
    23a2:	e1 f7       	brne	.-8      	; 0x239c <dir_sdi+0xa6>
    23a4:	21 c0       	rjmp	.+66     	; 0x23e8 <dir_sdi+0xf2>
    23a6:	0e 94 6a 10 	call	0x20d4	; 0x20d4 <get_fat>
    23aa:	ab 01       	movw	r20, r22
    23ac:	bc 01       	movw	r22, r24
    23ae:	4f 3f       	cpi	r20, 0xFF	; 255
    23b0:	ff ef       	ldi	r31, 0xFF	; 255
    23b2:	5f 07       	cpc	r21, r31
    23b4:	ff ef       	ldi	r31, 0xFF	; 255
    23b6:	6f 07       	cpc	r22, r31
    23b8:	ff ef       	ldi	r31, 0xFF	; 255
    23ba:	7f 07       	cpc	r23, r31
    23bc:	09 f4       	brne	.+2      	; 0x23c0 <dir_sdi+0xca>
    23be:	45 c0       	rjmp	.+138    	; 0x244a <dir_sdi+0x154>
    23c0:	42 30       	cpi	r20, 0x02	; 2
    23c2:	51 05       	cpc	r21, r1
    23c4:	61 05       	cpc	r22, r1
    23c6:	71 05       	cpc	r23, r1
    23c8:	08 f4       	brcc	.+2      	; 0x23cc <dir_sdi+0xd6>
    23ca:	41 c0       	rjmp	.+130    	; 0x244e <dir_sdi+0x158>
    23cc:	d8 01       	movw	r26, r16
    23ce:	ed 91       	ld	r30, X+
    23d0:	fc 91       	ld	r31, X
    23d2:	82 8d       	ldd	r24, Z+26	; 0x1a
    23d4:	93 8d       	ldd	r25, Z+27	; 0x1b
    23d6:	a4 8d       	ldd	r26, Z+28	; 0x1c
    23d8:	b5 8d       	ldd	r27, Z+29	; 0x1d
    23da:	48 17       	cp	r20, r24
    23dc:	59 07       	cpc	r21, r25
    23de:	6a 07       	cpc	r22, r26
    23e0:	7b 07       	cpc	r23, r27
    23e2:	a8 f5       	brcc	.+106    	; 0x244e <dir_sdi+0x158>
    23e4:	ec 1a       	sub	r14, r28
    23e6:	fd 0a       	sbc	r15, r29
    23e8:	f8 01       	movw	r30, r16
    23ea:	80 81       	ld	r24, Z
    23ec:	91 81       	ldd	r25, Z+1	; 0x01
    23ee:	ec 16       	cp	r14, r28
    23f0:	fd 06       	cpc	r15, r29
    23f2:	c8 f6       	brcc	.-78     	; 0x23a6 <dir_sdi+0xb0>
    23f4:	42 87       	std	Z+10, r20	; 0x0a
    23f6:	53 87       	std	Z+11, r21	; 0x0b
    23f8:	64 87       	std	Z+12, r22	; 0x0c
    23fa:	75 87       	std	Z+13, r23	; 0x0d
    23fc:	0e 94 36 10 	call	0x206c	; 0x206c <clust2sect>
    2400:	ab 01       	movw	r20, r22
    2402:	bc 01       	movw	r22, r24
    2404:	c7 01       	movw	r24, r14
    2406:	34 e0       	ldi	r19, 0x04	; 4
    2408:	96 95       	lsr	r25
    240a:	87 95       	ror	r24
    240c:	3a 95       	dec	r19
    240e:	e1 f7       	brne	.-8      	; 0x2408 <dir_sdi+0x112>
    2410:	a0 e0       	ldi	r26, 0x00	; 0
    2412:	b0 e0       	ldi	r27, 0x00	; 0
    2414:	84 0f       	add	r24, r20
    2416:	95 1f       	adc	r25, r21
    2418:	a6 1f       	adc	r26, r22
    241a:	b7 1f       	adc	r27, r23
    241c:	f8 01       	movw	r30, r16
    241e:	86 87       	std	Z+14, r24	; 0x0e
    2420:	97 87       	std	Z+15, r25	; 0x0f
    2422:	a0 8b       	std	Z+16, r26	; 0x10
    2424:	b1 8b       	std	Z+17, r27	; 0x11
    2426:	80 81       	ld	r24, Z
    2428:	91 81       	ldd	r25, Z+1	; 0x01
    242a:	c2 96       	adiw	r24, 0x32	; 50
    242c:	bf e0       	ldi	r27, 0x0F	; 15
    242e:	eb 22       	and	r14, r27
    2430:	ff 24       	eor	r15, r15
    2432:	25 e0       	ldi	r18, 0x05	; 5
    2434:	ee 0c       	add	r14, r14
    2436:	ff 1c       	adc	r15, r15
    2438:	2a 95       	dec	r18
    243a:	e1 f7       	brne	.-8      	; 0x2434 <dir_sdi+0x13e>
    243c:	8e 0d       	add	r24, r14
    243e:	9f 1d       	adc	r25, r15
    2440:	f8 01       	movw	r30, r16
    2442:	93 8b       	std	Z+19, r25	; 0x13
    2444:	82 8b       	std	Z+18, r24	; 0x12
    2446:	80 e0       	ldi	r24, 0x00	; 0
    2448:	03 c0       	rjmp	.+6      	; 0x2450 <dir_sdi+0x15a>
    244a:	81 e0       	ldi	r24, 0x01	; 1
    244c:	01 c0       	rjmp	.+2      	; 0x2450 <dir_sdi+0x15a>
    244e:	82 e0       	ldi	r24, 0x02	; 2
    2450:	df 91       	pop	r29
    2452:	cf 91       	pop	r28
    2454:	1f 91       	pop	r17
    2456:	0f 91       	pop	r16
    2458:	ff 90       	pop	r15
    245a:	ef 90       	pop	r14
    245c:	08 95       	ret

0000245e <put_fat>:
    245e:	4f 92       	push	r4
    2460:	5f 92       	push	r5
    2462:	6f 92       	push	r6
    2464:	7f 92       	push	r7
    2466:	8f 92       	push	r8
    2468:	9f 92       	push	r9
    246a:	af 92       	push	r10
    246c:	bf 92       	push	r11
    246e:	cf 92       	push	r12
    2470:	df 92       	push	r13
    2472:	ef 92       	push	r14
    2474:	ff 92       	push	r15
    2476:	0f 93       	push	r16
    2478:	1f 93       	push	r17
    247a:	cf 93       	push	r28
    247c:	df 93       	push	r29
    247e:	ec 01       	movw	r28, r24
    2480:	6a 01       	movw	r12, r20
    2482:	7b 01       	movw	r14, r22
    2484:	28 01       	movw	r4, r16
    2486:	39 01       	movw	r6, r18
    2488:	42 30       	cpi	r20, 0x02	; 2
    248a:	51 05       	cpc	r21, r1
    248c:	61 05       	cpc	r22, r1
    248e:	71 05       	cpc	r23, r1
    2490:	08 f4       	brcc	.+2      	; 0x2494 <put_fat+0x36>
    2492:	cd c0       	rjmp	.+410    	; 0x262e <put_fat+0x1d0>
    2494:	8a 8d       	ldd	r24, Y+26	; 0x1a
    2496:	9b 8d       	ldd	r25, Y+27	; 0x1b
    2498:	ac 8d       	ldd	r26, Y+28	; 0x1c
    249a:	bd 8d       	ldd	r27, Y+29	; 0x1d
    249c:	48 17       	cp	r20, r24
    249e:	59 07       	cpc	r21, r25
    24a0:	6a 07       	cpc	r22, r26
    24a2:	7b 07       	cpc	r23, r27
    24a4:	08 f0       	brcs	.+2      	; 0x24a8 <put_fat+0x4a>
    24a6:	c3 c0       	rjmp	.+390    	; 0x262e <put_fat+0x1d0>
    24a8:	88 81       	ld	r24, Y
    24aa:	82 30       	cpi	r24, 0x02	; 2
    24ac:	09 f4       	brne	.+2      	; 0x24b0 <put_fat+0x52>
    24ae:	70 c0       	rjmp	.+224    	; 0x2590 <put_fat+0x132>
    24b0:	83 30       	cpi	r24, 0x03	; 3
    24b2:	09 f4       	brne	.+2      	; 0x24b6 <put_fat+0x58>
    24b4:	87 c0       	rjmp	.+270    	; 0x25c4 <put_fat+0x166>
    24b6:	81 30       	cpi	r24, 0x01	; 1
    24b8:	09 f0       	breq	.+2      	; 0x24bc <put_fat+0x5e>
    24ba:	b5 c0       	rjmp	.+362    	; 0x2626 <put_fat+0x1c8>
    24bc:	4a 01       	movw	r8, r20
    24be:	5b 01       	movw	r10, r22
    24c0:	b6 94       	lsr	r11
    24c2:	a7 94       	ror	r10
    24c4:	97 94       	ror	r9
    24c6:	87 94       	ror	r8
    24c8:	84 0e       	add	r8, r20
    24ca:	95 1e       	adc	r9, r21
    24cc:	a6 1e       	adc	r10, r22
    24ce:	b7 1e       	adc	r11, r23
    24d0:	b5 01       	movw	r22, r10
    24d2:	a4 01       	movw	r20, r8
    24d4:	19 e0       	ldi	r17, 0x09	; 9
    24d6:	76 95       	lsr	r23
    24d8:	67 95       	ror	r22
    24da:	57 95       	ror	r21
    24dc:	47 95       	ror	r20
    24de:	1a 95       	dec	r17
    24e0:	d1 f7       	brne	.-12     	; 0x24d6 <put_fat+0x78>
    24e2:	8a a1       	lds	r24, 0x4a
    24e4:	9b a1       	lds	r25, 0x4b
    24e6:	ac a1       	lds	r26, 0x4c
    24e8:	bd a1       	lds	r27, 0x4d
    24ea:	48 0f       	add	r20, r24
    24ec:	59 1f       	adc	r21, r25
    24ee:	6a 1f       	adc	r22, r26
    24f0:	7b 1f       	adc	r23, r27
    24f2:	ce 01       	movw	r24, r28
    24f4:	0e 94 19 0a 	call	0x1432	; 0x1432 <move_window>
    24f8:	88 23       	and	r24, r24
    24fa:	09 f0       	breq	.+2      	; 0x24fe <put_fat+0xa0>
    24fc:	95 c0       	rjmp	.+298    	; 0x2628 <put_fat+0x1ca>
    24fe:	f4 01       	movw	r30, r8
    2500:	f1 70       	andi	r31, 0x01	; 1
    2502:	81 e0       	ldi	r24, 0x01	; 1
    2504:	c8 22       	and	r12, r24
    2506:	dd 24       	eor	r13, r13
    2508:	ec 0f       	add	r30, r28
    250a:	fd 1f       	adc	r31, r29
    250c:	c1 14       	cp	r12, r1
    250e:	d1 04       	cpc	r13, r1
    2510:	39 f0       	breq	.+14     	; 0x2520 <put_fat+0xc2>
    2512:	92 a9       	sts	0x42, r25
    2514:	9f 70       	andi	r25, 0x0F	; 15
    2516:	84 2d       	mov	r24, r4
    2518:	82 95       	swap	r24
    251a:	80 7f       	andi	r24, 0xF0	; 240
    251c:	89 2b       	or	r24, r25
    251e:	01 c0       	rjmp	.+2      	; 0x2522 <put_fat+0xc4>
    2520:	84 2d       	mov	r24, r4
    2522:	82 ab       	sts	0x52, r24
    2524:	08 94       	sec
    2526:	81 1c       	adc	r8, r1
    2528:	91 1c       	adc	r9, r1
    252a:	a1 1c       	adc	r10, r1
    252c:	b1 1c       	adc	r11, r1
    252e:	81 e0       	ldi	r24, 0x01	; 1
    2530:	8c 83       	std	Y+4, r24	; 0x04
    2532:	b5 01       	movw	r22, r10
    2534:	a4 01       	movw	r20, r8
    2536:	a9 e0       	ldi	r26, 0x09	; 9
    2538:	76 95       	lsr	r23
    253a:	67 95       	ror	r22
    253c:	57 95       	ror	r21
    253e:	47 95       	ror	r20
    2540:	aa 95       	dec	r26
    2542:	d1 f7       	brne	.-12     	; 0x2538 <put_fat+0xda>
    2544:	8a a1       	lds	r24, 0x4a
    2546:	9b a1       	lds	r25, 0x4b
    2548:	ac a1       	lds	r26, 0x4c
    254a:	bd a1       	lds	r27, 0x4d
    254c:	48 0f       	add	r20, r24
    254e:	59 1f       	adc	r21, r25
    2550:	6a 1f       	adc	r22, r26
    2552:	7b 1f       	adc	r23, r27
    2554:	ce 01       	movw	r24, r28
    2556:	0e 94 19 0a 	call	0x1432	; 0x1432 <move_window>
    255a:	88 23       	and	r24, r24
    255c:	09 f0       	breq	.+2      	; 0x2560 <put_fat+0x102>
    255e:	64 c0       	rjmp	.+200    	; 0x2628 <put_fat+0x1ca>
    2560:	f4 01       	movw	r30, r8
    2562:	f1 70       	andi	r31, 0x01	; 1
    2564:	ec 0f       	add	r30, r28
    2566:	fd 1f       	adc	r31, r29
    2568:	c1 14       	cp	r12, r1
    256a:	d1 04       	cpc	r13, r1
    256c:	51 f0       	breq	.+20     	; 0x2582 <put_fat+0x124>
    256e:	b3 01       	movw	r22, r6
    2570:	a2 01       	movw	r20, r4
    2572:	34 e0       	ldi	r19, 0x04	; 4
    2574:	76 95       	lsr	r23
    2576:	67 95       	ror	r22
    2578:	57 95       	ror	r21
    257a:	47 95       	ror	r20
    257c:	3a 95       	dec	r19
    257e:	d1 f7       	brne	.-12     	; 0x2574 <put_fat+0x116>
    2580:	05 c0       	rjmp	.+10     	; 0x258c <put_fat+0x12e>
    2582:	42 a9       	sts	0x42, r20
    2584:	40 7f       	andi	r20, 0xF0	; 240
    2586:	95 2d       	mov	r25, r5
    2588:	9f 70       	andi	r25, 0x0F	; 15
    258a:	49 2b       	or	r20, r25
    258c:	42 ab       	sts	0x52, r20
    258e:	4c c0       	rjmp	.+152    	; 0x2628 <put_fat+0x1ca>
    2590:	45 2f       	mov	r20, r21
    2592:	56 2f       	mov	r21, r22
    2594:	67 2f       	mov	r22, r23
    2596:	77 27       	eor	r23, r23
    2598:	8a a1       	lds	r24, 0x4a
    259a:	9b a1       	lds	r25, 0x4b
    259c:	ac a1       	lds	r26, 0x4c
    259e:	bd a1       	lds	r27, 0x4d
    25a0:	48 0f       	add	r20, r24
    25a2:	59 1f       	adc	r21, r25
    25a4:	6a 1f       	adc	r22, r26
    25a6:	7b 1f       	adc	r23, r27
    25a8:	ce 01       	movw	r24, r28
    25aa:	0e 94 19 0a 	call	0x1432	; 0x1432 <move_window>
    25ae:	88 23       	and	r24, r24
    25b0:	d9 f5       	brne	.+118    	; 0x2628 <put_fat+0x1ca>
    25b2:	f6 01       	movw	r30, r12
    25b4:	ee 0f       	add	r30, r30
    25b6:	ff 1f       	adc	r31, r31
    25b8:	f1 70       	andi	r31, 0x01	; 1
    25ba:	ec 0f       	add	r30, r28
    25bc:	fd 1f       	adc	r31, r29
    25be:	42 aa       	sts	0x92, r20
    25c0:	53 aa       	sts	0x93, r21
    25c2:	32 c0       	rjmp	.+100    	; 0x2628 <put_fat+0x1ca>
    25c4:	87 e0       	ldi	r24, 0x07	; 7
    25c6:	76 95       	lsr	r23
    25c8:	67 95       	ror	r22
    25ca:	57 95       	ror	r21
    25cc:	47 95       	ror	r20
    25ce:	8a 95       	dec	r24
    25d0:	d1 f7       	brne	.-12     	; 0x25c6 <put_fat+0x168>
    25d2:	8a a1       	lds	r24, 0x4a
    25d4:	9b a1       	lds	r25, 0x4b
    25d6:	ac a1       	lds	r26, 0x4c
    25d8:	bd a1       	lds	r27, 0x4d
    25da:	48 0f       	add	r20, r24
    25dc:	59 1f       	adc	r21, r25
    25de:	6a 1f       	adc	r22, r26
    25e0:	7b 1f       	adc	r23, r27
    25e2:	ce 01       	movw	r24, r28
    25e4:	0e 94 19 0a 	call	0x1432	; 0x1432 <move_window>
    25e8:	88 23       	and	r24, r24
    25ea:	f1 f4       	brne	.+60     	; 0x2628 <put_fat+0x1ca>
    25ec:	f6 01       	movw	r30, r12
    25ee:	ee 0f       	add	r30, r30
    25f0:	ff 1f       	adc	r31, r31
    25f2:	ee 0f       	add	r30, r30
    25f4:	ff 1f       	adc	r31, r31
    25f6:	f1 70       	andi	r31, 0x01	; 1
    25f8:	ec 0f       	add	r30, r28
    25fa:	fd 1f       	adc	r31, r29
    25fc:	45 a9       	sts	0x45, r20
    25fe:	50 e0       	ldi	r21, 0x00	; 0
    2600:	60 e0       	ldi	r22, 0x00	; 0
    2602:	70 e0       	ldi	r23, 0x00	; 0
    2604:	74 2f       	mov	r23, r20
    2606:	66 27       	eor	r22, r22
    2608:	55 27       	eor	r21, r21
    260a:	44 27       	eor	r20, r20
    260c:	40 70       	andi	r20, 0x00	; 0
    260e:	50 70       	andi	r21, 0x00	; 0
    2610:	60 70       	andi	r22, 0x00	; 0
    2612:	70 7f       	andi	r23, 0xF0	; 240
    2614:	44 29       	or	r20, r4
    2616:	55 29       	or	r21, r5
    2618:	66 29       	or	r22, r6
    261a:	77 29       	or	r23, r7
    261c:	42 ab       	sts	0x52, r20
    261e:	53 ab       	sts	0x53, r21
    2620:	64 ab       	sts	0x54, r22
    2622:	75 ab       	sts	0x55, r23
    2624:	01 c0       	rjmp	.+2      	; 0x2628 <put_fat+0x1ca>
    2626:	82 e0       	ldi	r24, 0x02	; 2
    2628:	91 e0       	ldi	r25, 0x01	; 1
    262a:	9c 83       	std	Y+4, r25	; 0x04
    262c:	01 c0       	rjmp	.+2      	; 0x2630 <put_fat+0x1d2>
    262e:	82 e0       	ldi	r24, 0x02	; 2
    2630:	df 91       	pop	r29
    2632:	cf 91       	pop	r28
    2634:	1f 91       	pop	r17
    2636:	0f 91       	pop	r16
    2638:	ff 90       	pop	r15
    263a:	ef 90       	pop	r14
    263c:	df 90       	pop	r13
    263e:	cf 90       	pop	r12
    2640:	bf 90       	pop	r11
    2642:	af 90       	pop	r10
    2644:	9f 90       	pop	r9
    2646:	8f 90       	pop	r8
    2648:	7f 90       	pop	r7
    264a:	6f 90       	pop	r6
    264c:	5f 90       	pop	r5
    264e:	4f 90       	pop	r4
    2650:	08 95       	ret

00002652 <create_chain>:
    2652:	4f 92       	push	r4
    2654:	5f 92       	push	r5
    2656:	6f 92       	push	r6
    2658:	7f 92       	push	r7
    265a:	8f 92       	push	r8
    265c:	9f 92       	push	r9
    265e:	af 92       	push	r10
    2660:	bf 92       	push	r11
    2662:	cf 92       	push	r12
    2664:	df 92       	push	r13
    2666:	ef 92       	push	r14
    2668:	ff 92       	push	r15
    266a:	0f 93       	push	r16
    266c:	1f 93       	push	r17
    266e:	cf 93       	push	r28
    2670:	df 93       	push	r29
    2672:	ec 01       	movw	r28, r24
    2674:	2a 01       	movw	r4, r20
    2676:	3b 01       	movw	r6, r22
    2678:	41 15       	cp	r20, r1
    267a:	51 05       	cpc	r21, r1
    267c:	61 05       	cpc	r22, r1
    267e:	71 05       	cpc	r23, r1
    2680:	99 f4       	brne	.+38     	; 0x26a8 <create_chain+0x56>
    2682:	8a 84       	ldd	r8, Y+10	; 0x0a
    2684:	9b 84       	ldd	r9, Y+11	; 0x0b
    2686:	ac 84       	ldd	r10, Y+12	; 0x0c
    2688:	bd 84       	ldd	r11, Y+13	; 0x0d
    268a:	81 14       	cp	r8, r1
    268c:	91 04       	cpc	r9, r1
    268e:	a1 04       	cpc	r10, r1
    2690:	b1 04       	cpc	r11, r1
    2692:	09 f1       	breq	.+66     	; 0x26d6 <create_chain+0x84>
    2694:	8a 8d       	ldd	r24, Y+26	; 0x1a
    2696:	9b 8d       	ldd	r25, Y+27	; 0x1b
    2698:	ac 8d       	ldd	r26, Y+28	; 0x1c
    269a:	bd 8d       	ldd	r27, Y+29	; 0x1d
    269c:	88 16       	cp	r8, r24
    269e:	99 06       	cpc	r9, r25
    26a0:	aa 06       	cpc	r10, r26
    26a2:	bb 06       	cpc	r11, r27
    26a4:	c0 f4       	brcc	.+48     	; 0x26d6 <create_chain+0x84>
    26a6:	1c c0       	rjmp	.+56     	; 0x26e0 <create_chain+0x8e>
    26a8:	0e 94 6a 10 	call	0x20d4	; 0x20d4 <get_fat>
    26ac:	8b 01       	movw	r16, r22
    26ae:	9c 01       	movw	r18, r24
    26b0:	62 30       	cpi	r22, 0x02	; 2
    26b2:	71 05       	cpc	r23, r1
    26b4:	81 05       	cpc	r24, r1
    26b6:	91 05       	cpc	r25, r1
    26b8:	08 f4       	brcc	.+2      	; 0x26bc <create_chain+0x6a>
    26ba:	93 c0       	rjmp	.+294    	; 0x27e2 <create_chain+0x190>
    26bc:	8a 8d       	ldd	r24, Y+26	; 0x1a
    26be:	9b 8d       	ldd	r25, Y+27	; 0x1b
    26c0:	ac 8d       	ldd	r26, Y+28	; 0x1c
    26c2:	bd 8d       	ldd	r27, Y+29	; 0x1d
    26c4:	08 17       	cp	r16, r24
    26c6:	19 07       	cpc	r17, r25
    26c8:	2a 07       	cpc	r18, r26
    26ca:	3b 07       	cpc	r19, r27
    26cc:	08 f4       	brcc	.+2      	; 0x26d0 <create_chain+0x7e>
    26ce:	8d c0       	rjmp	.+282    	; 0x27ea <create_chain+0x198>
    26d0:	53 01       	movw	r10, r6
    26d2:	42 01       	movw	r8, r4
    26d4:	05 c0       	rjmp	.+10     	; 0x26e0 <create_chain+0x8e>
    26d6:	81 e0       	ldi	r24, 0x01	; 1
    26d8:	88 2e       	mov	r8, r24
    26da:	91 2c       	mov	r9, r1
    26dc:	a1 2c       	mov	r10, r1
    26de:	b1 2c       	mov	r11, r1
    26e0:	75 01       	movw	r14, r10
    26e2:	64 01       	movw	r12, r8
    26e4:	08 94       	sec
    26e6:	c1 1c       	adc	r12, r1
    26e8:	d1 1c       	adc	r13, r1
    26ea:	e1 1c       	adc	r14, r1
    26ec:	f1 1c       	adc	r15, r1
    26ee:	8a 8d       	ldd	r24, Y+26	; 0x1a
    26f0:	9b 8d       	ldd	r25, Y+27	; 0x1b
    26f2:	ac 8d       	ldd	r26, Y+28	; 0x1c
    26f4:	bd 8d       	ldd	r27, Y+29	; 0x1d
    26f6:	c8 16       	cp	r12, r24
    26f8:	d9 06       	cpc	r13, r25
    26fa:	ea 06       	cpc	r14, r26
    26fc:	fb 06       	cpc	r15, r27
    26fe:	60 f0       	brcs	.+24     	; 0x2718 <create_chain+0xc6>
    2700:	22 e0       	ldi	r18, 0x02	; 2
    2702:	82 16       	cp	r8, r18
    2704:	91 04       	cpc	r9, r1
    2706:	a1 04       	cpc	r10, r1
    2708:	b1 04       	cpc	r11, r1
    270a:	08 f4       	brcc	.+2      	; 0x270e <create_chain+0xbc>
    270c:	63 c0       	rjmp	.+198    	; 0x27d4 <create_chain+0x182>
    270e:	02 e0       	ldi	r16, 0x02	; 2
    2710:	c0 2e       	mov	r12, r16
    2712:	d1 2c       	mov	r13, r1
    2714:	e1 2c       	mov	r14, r1
    2716:	f1 2c       	mov	r15, r1
    2718:	ce 01       	movw	r24, r28
    271a:	b7 01       	movw	r22, r14
    271c:	a6 01       	movw	r20, r12
    271e:	0e 94 6a 10 	call	0x20d4	; 0x20d4 <get_fat>
    2722:	8b 01       	movw	r16, r22
    2724:	9c 01       	movw	r18, r24
    2726:	61 15       	cp	r22, r1
    2728:	71 05       	cpc	r23, r1
    272a:	81 05       	cpc	r24, r1
    272c:	91 05       	cpc	r25, r1
    272e:	a9 f0       	breq	.+42     	; 0x275a <create_chain+0x108>
    2730:	0f 3f       	cpi	r16, 0xFF	; 255
    2732:	8f ef       	ldi	r24, 0xFF	; 255
    2734:	18 07       	cpc	r17, r24
    2736:	8f ef       	ldi	r24, 0xFF	; 255
    2738:	28 07       	cpc	r18, r24
    273a:	8f ef       	ldi	r24, 0xFF	; 255
    273c:	38 07       	cpc	r19, r24
    273e:	09 f4       	brne	.+2      	; 0x2742 <create_chain+0xf0>
    2740:	54 c0       	rjmp	.+168    	; 0x27ea <create_chain+0x198>
    2742:	01 30       	cpi	r16, 0x01	; 1
    2744:	11 05       	cpc	r17, r1
    2746:	21 05       	cpc	r18, r1
    2748:	31 05       	cpc	r19, r1
    274a:	09 f4       	brne	.+2      	; 0x274e <create_chain+0xfc>
    274c:	4e c0       	rjmp	.+156    	; 0x27ea <create_chain+0x198>
    274e:	c8 14       	cp	r12, r8
    2750:	d9 04       	cpc	r13, r9
    2752:	ea 04       	cpc	r14, r10
    2754:	fb 04       	cpc	r15, r11
    2756:	31 f6       	brne	.-116    	; 0x26e4 <create_chain+0x92>
    2758:	3d c0       	rjmp	.+122    	; 0x27d4 <create_chain+0x182>
    275a:	8c 2c       	mov	r8, r12
    275c:	bd 2c       	mov	r11, r13
    275e:	ae 2c       	mov	r10, r14
    2760:	9f 2c       	mov	r9, r15
    2762:	ce 01       	movw	r24, r28
    2764:	a6 01       	movw	r20, r12
    2766:	b7 01       	movw	r22, r14
    2768:	0f ef       	ldi	r16, 0xFF	; 255
    276a:	1f ef       	ldi	r17, 0xFF	; 255
    276c:	2f ef       	ldi	r18, 0xFF	; 255
    276e:	3f e0       	ldi	r19, 0x0F	; 15
    2770:	0e 94 2f 12 	call	0x245e	; 0x245e <put_fat>
    2774:	88 23       	and	r24, r24
    2776:	41 f5       	brne	.+80     	; 0x27c8 <create_chain+0x176>
    2778:	41 14       	cp	r4, r1
    277a:	51 04       	cpc	r5, r1
    277c:	61 04       	cpc	r6, r1
    277e:	71 04       	cpc	r7, r1
    2780:	49 f0       	breq	.+18     	; 0x2794 <create_chain+0x142>
    2782:	ce 01       	movw	r24, r28
    2784:	b3 01       	movw	r22, r6
    2786:	a2 01       	movw	r20, r4
    2788:	86 01       	movw	r16, r12
    278a:	97 01       	movw	r18, r14
    278c:	0e 94 2f 12 	call	0x245e	; 0x245e <put_fat>
    2790:	88 23       	and	r24, r24
    2792:	d1 f4       	brne	.+52     	; 0x27c8 <create_chain+0x176>
    2794:	8a 86       	std	Y+10, r8	; 0x0a
    2796:	bb 86       	std	Y+11, r11	; 0x0b
    2798:	ac 86       	std	Y+12, r10	; 0x0c
    279a:	9d 86       	std	Y+13, r9	; 0x0d
    279c:	8e 85       	ldd	r24, Y+14	; 0x0e
    279e:	9f 85       	ldd	r25, Y+15	; 0x0f
    27a0:	a8 89       	ldd	r26, Y+16	; 0x10
    27a2:	b9 89       	ldd	r27, Y+17	; 0x11
    27a4:	8f 3f       	cpi	r24, 0xFF	; 255
    27a6:	2f ef       	ldi	r18, 0xFF	; 255
    27a8:	92 07       	cpc	r25, r18
    27aa:	2f ef       	ldi	r18, 0xFF	; 255
    27ac:	a2 07       	cpc	r26, r18
    27ae:	2f ef       	ldi	r18, 0xFF	; 255
    27b0:	b2 07       	cpc	r27, r18
    27b2:	a1 f0       	breq	.+40     	; 0x27dc <create_chain+0x18a>
    27b4:	01 97       	sbiw	r24, 0x01	; 1
    27b6:	a1 09       	sbc	r26, r1
    27b8:	b1 09       	sbc	r27, r1
    27ba:	8e 87       	std	Y+14, r24	; 0x0e
    27bc:	9f 87       	std	Y+15, r25	; 0x0f
    27be:	a8 8b       	std	Y+16, r26	; 0x10
    27c0:	b9 8b       	std	Y+17, r27	; 0x11
    27c2:	81 e0       	ldi	r24, 0x01	; 1
    27c4:	8d 83       	std	Y+5, r24	; 0x05
    27c6:	0a c0       	rjmp	.+20     	; 0x27dc <create_chain+0x18a>
    27c8:	81 30       	cpi	r24, 0x01	; 1
    27ca:	59 f4       	brne	.+22     	; 0x27e2 <create_chain+0x190>
    27cc:	0f ef       	ldi	r16, 0xFF	; 255
    27ce:	1f ef       	ldi	r17, 0xFF	; 255
    27d0:	98 01       	movw	r18, r16
    27d2:	0b c0       	rjmp	.+22     	; 0x27ea <create_chain+0x198>
    27d4:	00 e0       	ldi	r16, 0x00	; 0
    27d6:	10 e0       	ldi	r17, 0x00	; 0
    27d8:	98 01       	movw	r18, r16
    27da:	07 c0       	rjmp	.+14     	; 0x27ea <create_chain+0x198>
    27dc:	97 01       	movw	r18, r14
    27de:	86 01       	movw	r16, r12
    27e0:	04 c0       	rjmp	.+8      	; 0x27ea <create_chain+0x198>
    27e2:	01 e0       	ldi	r16, 0x01	; 1
    27e4:	10 e0       	ldi	r17, 0x00	; 0
    27e6:	20 e0       	ldi	r18, 0x00	; 0
    27e8:	30 e0       	ldi	r19, 0x00	; 0
    27ea:	b8 01       	movw	r22, r16
    27ec:	c9 01       	movw	r24, r18
    27ee:	df 91       	pop	r29
    27f0:	cf 91       	pop	r28
    27f2:	1f 91       	pop	r17
    27f4:	0f 91       	pop	r16
    27f6:	ff 90       	pop	r15
    27f8:	ef 90       	pop	r14
    27fa:	df 90       	pop	r13
    27fc:	cf 90       	pop	r12
    27fe:	bf 90       	pop	r11
    2800:	af 90       	pop	r10
    2802:	9f 90       	pop	r9
    2804:	8f 90       	pop	r8
    2806:	7f 90       	pop	r7
    2808:	6f 90       	pop	r6
    280a:	5f 90       	pop	r5
    280c:	4f 90       	pop	r4
    280e:	08 95       	ret

00002810 <dir_next>:
    2810:	8f 92       	push	r8
    2812:	9f 92       	push	r9
    2814:	af 92       	push	r10
    2816:	bf 92       	push	r11
    2818:	cf 92       	push	r12
    281a:	df 92       	push	r13
    281c:	ef 92       	push	r14
    281e:	ff 92       	push	r15
    2820:	0f 93       	push	r16
    2822:	1f 93       	push	r17
    2824:	cf 93       	push	r28
    2826:	df 93       	push	r29
    2828:	8c 01       	movw	r16, r24
    282a:	eb 01       	movw	r28, r22
    282c:	dc 01       	movw	r26, r24
    282e:	14 96       	adiw	r26, 0x04	; 4
    2830:	ad 90       	ld	r10, X+
    2832:	bc 90       	ld	r11, X
    2834:	15 97       	sbiw	r26, 0x05	; 5
    2836:	08 94       	sec
    2838:	a1 1c       	adc	r10, r1
    283a:	b1 1c       	adc	r11, r1
    283c:	a1 14       	cp	r10, r1
    283e:	b1 04       	cpc	r11, r1
    2840:	09 f4       	brne	.+2      	; 0x2844 <dir_next+0x34>
    2842:	01 c1       	rjmp	.+514    	; 0x2a46 <dir_next+0x236>
    2844:	1e 96       	adiw	r26, 0x0e	; 14
    2846:	8d 91       	ld	r24, X+
    2848:	9d 91       	ld	r25, X+
    284a:	0d 90       	ld	r0, X+
    284c:	bc 91       	ld	r27, X
    284e:	a0 2d       	mov	r26, r0
    2850:	00 97       	sbiw	r24, 0x00	; 0
    2852:	a1 05       	cpc	r26, r1
    2854:	b1 05       	cpc	r27, r1
    2856:	09 f4       	brne	.+2      	; 0x285a <dir_next+0x4a>
    2858:	f6 c0       	rjmp	.+492    	; 0x2a46 <dir_next+0x236>
    285a:	2f e0       	ldi	r18, 0x0F	; 15
    285c:	82 2e       	mov	r8, r18
    285e:	91 2c       	mov	r9, r1
    2860:	8a 20       	and	r8, r10
    2862:	9b 20       	and	r9, r11
    2864:	81 14       	cp	r8, r1
    2866:	91 04       	cpc	r9, r1
    2868:	09 f0       	breq	.+2      	; 0x286c <dir_next+0x5c>
    286a:	d7 c0       	rjmp	.+430    	; 0x2a1a <dir_next+0x20a>
    286c:	01 96       	adiw	r24, 0x01	; 1
    286e:	a1 1d       	adc	r26, r1
    2870:	b1 1d       	adc	r27, r1
    2872:	f8 01       	movw	r30, r16
    2874:	86 87       	std	Z+14, r24	; 0x0e
    2876:	97 87       	std	Z+15, r25	; 0x0f
    2878:	a0 8b       	std	Z+16, r26	; 0x10
    287a:	b1 8b       	std	Z+17, r27	; 0x11
    287c:	42 85       	ldd	r20, Z+10	; 0x0a
    287e:	53 85       	ldd	r21, Z+11	; 0x0b
    2880:	64 85       	ldd	r22, Z+12	; 0x0c
    2882:	75 85       	ldd	r23, Z+13	; 0x0d
    2884:	01 90       	ld	r0, Z+
    2886:	f0 81       	ld	r31, Z
    2888:	e0 2d       	mov	r30, r0
    288a:	41 15       	cp	r20, r1
    288c:	51 05       	cpc	r21, r1
    288e:	61 05       	cpc	r22, r1
    2890:	71 05       	cpc	r23, r1
    2892:	39 f4       	brne	.+14     	; 0x28a2 <dir_next+0x92>
    2894:	80 85       	ldd	r24, Z+8	; 0x08
    2896:	91 85       	ldd	r25, Z+9	; 0x09
    2898:	a8 16       	cp	r10, r24
    289a:	b9 06       	cpc	r11, r25
    289c:	08 f0       	brcs	.+2      	; 0x28a0 <dir_next+0x90>
    289e:	d3 c0       	rjmp	.+422    	; 0x2a46 <dir_next+0x236>
    28a0:	bc c0       	rjmp	.+376    	; 0x2a1a <dir_next+0x20a>
    28a2:	82 81       	ldd	r24, Z+2	; 0x02
    28a4:	90 e0       	ldi	r25, 0x00	; 0
    28a6:	01 97       	sbiw	r24, 0x01	; 1
    28a8:	95 01       	movw	r18, r10
    28aa:	a4 e0       	ldi	r26, 0x04	; 4
    28ac:	36 95       	lsr	r19
    28ae:	27 95       	ror	r18
    28b0:	aa 95       	dec	r26
    28b2:	e1 f7       	brne	.-8      	; 0x28ac <dir_next+0x9c>
    28b4:	82 23       	and	r24, r18
    28b6:	93 23       	and	r25, r19
    28b8:	00 97       	sbiw	r24, 0x00	; 0
    28ba:	09 f0       	breq	.+2      	; 0x28be <dir_next+0xae>
    28bc:	ae c0       	rjmp	.+348    	; 0x2a1a <dir_next+0x20a>
    28be:	cf 01       	movw	r24, r30
    28c0:	0e 94 6a 10 	call	0x20d4	; 0x20d4 <get_fat>
    28c4:	6b 01       	movw	r12, r22
    28c6:	7c 01       	movw	r14, r24
    28c8:	62 30       	cpi	r22, 0x02	; 2
    28ca:	71 05       	cpc	r23, r1
    28cc:	81 05       	cpc	r24, r1
    28ce:	91 05       	cpc	r25, r1
    28d0:	08 f4       	brcc	.+2      	; 0x28d4 <dir_next+0xc4>
    28d2:	bd c0       	rjmp	.+378    	; 0x2a4e <dir_next+0x23e>
    28d4:	8f ef       	ldi	r24, 0xFF	; 255
    28d6:	c8 16       	cp	r12, r24
    28d8:	8f ef       	ldi	r24, 0xFF	; 255
    28da:	d8 06       	cpc	r13, r24
    28dc:	8f ef       	ldi	r24, 0xFF	; 255
    28de:	e8 06       	cpc	r14, r24
    28e0:	8f ef       	ldi	r24, 0xFF	; 255
    28e2:	f8 06       	cpc	r15, r24
    28e4:	09 f4       	brne	.+2      	; 0x28e8 <dir_next+0xd8>
    28e6:	b5 c0       	rjmp	.+362    	; 0x2a52 <dir_next+0x242>
    28e8:	d8 01       	movw	r26, r16
    28ea:	ed 91       	ld	r30, X+
    28ec:	fc 91       	ld	r31, X
    28ee:	82 8d       	ldd	r24, Z+26	; 0x1a
    28f0:	93 8d       	ldd	r25, Z+27	; 0x1b
    28f2:	a4 8d       	ldd	r26, Z+28	; 0x1c
    28f4:	b5 8d       	ldd	r27, Z+29	; 0x1d
    28f6:	c8 16       	cp	r12, r24
    28f8:	d9 06       	cpc	r13, r25
    28fa:	ea 06       	cpc	r14, r26
    28fc:	fb 06       	cpc	r15, r27
    28fe:	08 f4       	brcc	.+2      	; 0x2902 <dir_next+0xf2>
    2900:	7a c0       	rjmp	.+244    	; 0x29f6 <dir_next+0x1e6>
    2902:	20 97       	sbiw	r28, 0x00	; 0
    2904:	09 f4       	brne	.+2      	; 0x2908 <dir_next+0xf8>
    2906:	9f c0       	rjmp	.+318    	; 0x2a46 <dir_next+0x236>
    2908:	d8 01       	movw	r26, r16
    290a:	1a 96       	adiw	r26, 0x0a	; 10
    290c:	4d 91       	ld	r20, X+
    290e:	5d 91       	ld	r21, X+
    2910:	6d 91       	ld	r22, X+
    2912:	7c 91       	ld	r23, X
    2914:	1d 97       	sbiw	r26, 0x0d	; 13
    2916:	cf 01       	movw	r24, r30
    2918:	0e 94 29 13 	call	0x2652	; 0x2652 <create_chain>
    291c:	6b 01       	movw	r12, r22
    291e:	7c 01       	movw	r14, r24
    2920:	61 15       	cp	r22, r1
    2922:	71 05       	cpc	r23, r1
    2924:	81 05       	cpc	r24, r1
    2926:	91 05       	cpc	r25, r1
    2928:	09 f4       	brne	.+2      	; 0x292c <dir_next+0x11c>
    292a:	8f c0       	rjmp	.+286    	; 0x2a4a <dir_next+0x23a>
    292c:	61 30       	cpi	r22, 0x01	; 1
    292e:	71 05       	cpc	r23, r1
    2930:	81 05       	cpc	r24, r1
    2932:	91 05       	cpc	r25, r1
    2934:	09 f4       	brne	.+2      	; 0x2938 <dir_next+0x128>
    2936:	8b c0       	rjmp	.+278    	; 0x2a4e <dir_next+0x23e>
    2938:	6f 3f       	cpi	r22, 0xFF	; 255
    293a:	ef ef       	ldi	r30, 0xFF	; 255
    293c:	7e 07       	cpc	r23, r30
    293e:	ef ef       	ldi	r30, 0xFF	; 255
    2940:	8e 07       	cpc	r24, r30
    2942:	ef ef       	ldi	r30, 0xFF	; 255
    2944:	9e 07       	cpc	r25, r30
    2946:	09 f4       	brne	.+2      	; 0x294a <dir_next+0x13a>
    2948:	84 c0       	rjmp	.+264    	; 0x2a52 <dir_next+0x242>
    294a:	d8 01       	movw	r26, r16
    294c:	8d 91       	ld	r24, X+
    294e:	9c 91       	ld	r25, X
    2950:	40 e0       	ldi	r20, 0x00	; 0
    2952:	50 e0       	ldi	r21, 0x00	; 0
    2954:	ba 01       	movw	r22, r20
    2956:	0e 94 19 0a 	call	0x1432	; 0x1432 <move_window>
    295a:	88 23       	and	r24, r24
    295c:	09 f0       	breq	.+2      	; 0x2960 <dir_next+0x150>
    295e:	79 c0       	rjmp	.+242    	; 0x2a52 <dir_next+0x242>
    2960:	f8 01       	movw	r30, r16
    2962:	80 81       	ld	r24, Z
    2964:	91 81       	ldd	r25, Z+1	; 0x01
    2966:	fc 01       	movw	r30, r24
    2968:	f2 96       	adiw	r30, 0x32	; 50
    296a:	8e 5c       	subi	r24, 0xCE	; 206
    296c:	9d 4f       	sbci	r25, 0xFD	; 253
    296e:	01 c0       	rjmp	.+2      	; 0x2972 <dir_next+0x162>
    2970:	11 92       	st	Z+, r1
    2972:	e8 17       	cp	r30, r24
    2974:	f9 07       	cpc	r31, r25
    2976:	e1 f7       	brne	.-8      	; 0x2970 <dir_next+0x160>
    2978:	d8 01       	movw	r26, r16
    297a:	cd 91       	ld	r28, X+
    297c:	dc 91       	ld	r29, X
    297e:	ce 01       	movw	r24, r28
    2980:	b7 01       	movw	r22, r14
    2982:	a6 01       	movw	r20, r12
    2984:	0e 94 36 10 	call	0x206c	; 0x206c <clust2sect>
    2988:	dc 01       	movw	r26, r24
    298a:	cb 01       	movw	r24, r22
    298c:	8e a7       	lds	r24, 0x7e
    298e:	9f a7       	lds	r25, 0x7f
    2990:	a8 ab       	sts	0x58, r26
    2992:	b9 ab       	sts	0x59, r27
    2994:	c0 e0       	ldi	r28, 0x00	; 0
    2996:	d1 e0       	ldi	r29, 0x01	; 1
    2998:	1b c0       	rjmp	.+54     	; 0x29d0 <dir_next+0x1c0>
    299a:	d4 83       	std	Z+4, r29	; 0x04
    299c:	f8 01       	movw	r30, r16
    299e:	80 81       	ld	r24, Z
    29a0:	91 81       	ldd	r25, Z+1	; 0x01
    29a2:	40 e0       	ldi	r20, 0x00	; 0
    29a4:	50 e0       	ldi	r21, 0x00	; 0
    29a6:	ba 01       	movw	r22, r20
    29a8:	0e 94 19 0a 	call	0x1432	; 0x1432 <move_window>
    29ac:	88 23       	and	r24, r24
    29ae:	09 f0       	breq	.+2      	; 0x29b2 <dir_next+0x1a2>
    29b0:	50 c0       	rjmp	.+160    	; 0x2a52 <dir_next+0x242>
    29b2:	d8 01       	movw	r26, r16
    29b4:	ed 91       	ld	r30, X+
    29b6:	fc 91       	ld	r31, X
    29b8:	86 a5       	lds	r24, 0x66
    29ba:	97 a5       	lds	r25, 0x67
    29bc:	a0 a9       	sts	0x40, r26
    29be:	b1 a9       	sts	0x41, r27
    29c0:	01 96       	adiw	r24, 0x01	; 1
    29c2:	a1 1d       	adc	r26, r1
    29c4:	b1 1d       	adc	r27, r1
    29c6:	86 a7       	lds	r24, 0x76
    29c8:	97 a7       	lds	r25, 0x77
    29ca:	a0 ab       	sts	0x50, r26
    29cc:	b1 ab       	sts	0x51, r27
    29ce:	cf 5f       	subi	r28, 0xFF	; 255
    29d0:	d8 01       	movw	r26, r16
    29d2:	ed 91       	ld	r30, X+
    29d4:	fc 91       	ld	r31, X
    29d6:	11 97       	sbiw	r26, 0x01	; 1
    29d8:	82 81       	ldd	r24, Z+2	; 0x02
    29da:	c8 17       	cp	r28, r24
    29dc:	f0 f2       	brcs	.-68     	; 0x299a <dir_next+0x18a>
    29de:	86 a5       	lds	r24, 0x66
    29e0:	97 a5       	lds	r25, 0x67
    29e2:	a0 a9       	sts	0x40, r26
    29e4:	b1 a9       	sts	0x41, r27
    29e6:	8c 1b       	sub	r24, r28
    29e8:	91 09       	sbc	r25, r1
    29ea:	a1 09       	sbc	r26, r1
    29ec:	b1 09       	sbc	r27, r1
    29ee:	86 a7       	lds	r24, 0x76
    29f0:	97 a7       	lds	r25, 0x77
    29f2:	a0 ab       	sts	0x50, r26
    29f4:	b1 ab       	sts	0x51, r27
    29f6:	f8 01       	movw	r30, r16
    29f8:	c2 86       	std	Z+10, r12	; 0x0a
    29fa:	d3 86       	std	Z+11, r13	; 0x0b
    29fc:	e4 86       	std	Z+12, r14	; 0x0c
    29fe:	f5 86       	std	Z+13, r15	; 0x0d
    2a00:	80 81       	ld	r24, Z
    2a02:	91 81       	ldd	r25, Z+1	; 0x01
    2a04:	b7 01       	movw	r22, r14
    2a06:	a6 01       	movw	r20, r12
    2a08:	0e 94 36 10 	call	0x206c	; 0x206c <clust2sect>
    2a0c:	dc 01       	movw	r26, r24
    2a0e:	cb 01       	movw	r24, r22
    2a10:	f8 01       	movw	r30, r16
    2a12:	86 87       	std	Z+14, r24	; 0x0e
    2a14:	97 87       	std	Z+15, r25	; 0x0f
    2a16:	a0 8b       	std	Z+16, r26	; 0x10
    2a18:	b1 8b       	std	Z+17, r27	; 0x11
    2a1a:	d8 01       	movw	r26, r16
    2a1c:	15 96       	adiw	r26, 0x05	; 5
    2a1e:	bc 92       	st	X, r11
    2a20:	ae 92       	st	-X, r10
    2a22:	14 97       	sbiw	r26, 0x04	; 4
    2a24:	8d 91       	ld	r24, X+
    2a26:	9c 91       	ld	r25, X
    2a28:	11 97       	sbiw	r26, 0x01	; 1
    2a2a:	c2 96       	adiw	r24, 0x32	; 50
    2a2c:	25 e0       	ldi	r18, 0x05	; 5
    2a2e:	88 0c       	add	r8, r8
    2a30:	99 1c       	adc	r9, r9
    2a32:	2a 95       	dec	r18
    2a34:	e1 f7       	brne	.-8      	; 0x2a2e <dir_next+0x21e>
    2a36:	88 0d       	add	r24, r8
    2a38:	99 1d       	adc	r25, r9
    2a3a:	53 96       	adiw	r26, 0x13	; 19
    2a3c:	9c 93       	st	X, r25
    2a3e:	8e 93       	st	-X, r24
    2a40:	52 97       	sbiw	r26, 0x12	; 18
    2a42:	80 e0       	ldi	r24, 0x00	; 0
    2a44:	07 c0       	rjmp	.+14     	; 0x2a54 <dir_next+0x244>
    2a46:	84 e0       	ldi	r24, 0x04	; 4
    2a48:	05 c0       	rjmp	.+10     	; 0x2a54 <dir_next+0x244>
    2a4a:	87 e0       	ldi	r24, 0x07	; 7
    2a4c:	03 c0       	rjmp	.+6      	; 0x2a54 <dir_next+0x244>
    2a4e:	82 e0       	ldi	r24, 0x02	; 2
    2a50:	01 c0       	rjmp	.+2      	; 0x2a54 <dir_next+0x244>
    2a52:	81 e0       	ldi	r24, 0x01	; 1
    2a54:	df 91       	pop	r29
    2a56:	cf 91       	pop	r28
    2a58:	1f 91       	pop	r17
    2a5a:	0f 91       	pop	r16
    2a5c:	ff 90       	pop	r15
    2a5e:	ef 90       	pop	r14
    2a60:	df 90       	pop	r13
    2a62:	cf 90       	pop	r12
    2a64:	bf 90       	pop	r11
    2a66:	af 90       	pop	r10
    2a68:	9f 90       	pop	r9
    2a6a:	8f 90       	pop	r8
    2a6c:	08 95       	ret

00002a6e <follow_path>:
    2a6e:	2f 92       	push	r2
    2a70:	3f 92       	push	r3
    2a72:	4f 92       	push	r4
    2a74:	5f 92       	push	r5
    2a76:	6f 92       	push	r6
    2a78:	7f 92       	push	r7
    2a7a:	8f 92       	push	r8
    2a7c:	9f 92       	push	r9
    2a7e:	af 92       	push	r10
    2a80:	bf 92       	push	r11
    2a82:	cf 92       	push	r12
    2a84:	df 92       	push	r13
    2a86:	ef 92       	push	r14
    2a88:	ff 92       	push	r15
    2a8a:	0f 93       	push	r16
    2a8c:	1f 93       	push	r17
    2a8e:	cf 93       	push	r28
    2a90:	df 93       	push	r29
    2a92:	00 d0       	rcall	.+0      	; 0x2a94 <follow_path+0x26>
    2a94:	00 d0       	rcall	.+0      	; 0x2a96 <follow_path+0x28>
    2a96:	0f 92       	push	r0
    2a98:	cd b7       	in	r28, 0x3d	; 61
    2a9a:	de b7       	in	r29, 0x3e	; 62
    2a9c:	8c 01       	movw	r16, r24
    2a9e:	2b 01       	movw	r4, r22
    2aa0:	db 01       	movw	r26, r22
    2aa2:	8c 91       	ld	r24, X
    2aa4:	8f 32       	cpi	r24, 0x2F	; 47
    2aa6:	11 f0       	breq	.+4      	; 0x2aac <follow_path+0x3e>
    2aa8:	8c 35       	cpi	r24, 0x5C	; 92
    2aaa:	49 f4       	brne	.+18     	; 0x2abe <follow_path+0x50>
    2aac:	08 94       	sec
    2aae:	41 1c       	adc	r4, r1
    2ab0:	51 1c       	adc	r5, r1
    2ab2:	f8 01       	movw	r30, r16
    2ab4:	16 82       	std	Z+6, r1	; 0x06
    2ab6:	17 82       	std	Z+7, r1	; 0x07
    2ab8:	10 86       	std	Z+8, r1	; 0x08
    2aba:	11 86       	std	Z+9, r1	; 0x09
    2abc:	0c c0       	rjmp	.+24     	; 0x2ad6 <follow_path+0x68>
    2abe:	d8 01       	movw	r26, r16
    2ac0:	ed 91       	ld	r30, X+
    2ac2:	fc 91       	ld	r31, X
    2ac4:	86 89       	ldd	r24, Z+22	; 0x16
    2ac6:	97 89       	ldd	r25, Z+23	; 0x17
    2ac8:	a0 8d       	ldd	r26, Z+24	; 0x18
    2aca:	b1 8d       	ldd	r27, Z+25	; 0x19
    2acc:	f8 01       	movw	r30, r16
    2ace:	86 83       	std	Z+6, r24	; 0x06
    2ad0:	97 83       	std	Z+7, r25	; 0x07
    2ad2:	a0 87       	std	Z+8, r26	; 0x08
    2ad4:	b1 87       	std	Z+9, r27	; 0x09
    2ad6:	d2 01       	movw	r26, r4
    2ad8:	8c 91       	ld	r24, X
    2ada:	80 32       	cpi	r24, 0x20	; 32
    2adc:	48 f4       	brcc	.+18     	; 0x2af0 <follow_path+0x82>
    2ade:	c8 01       	movw	r24, r16
    2ae0:	60 e0       	ldi	r22, 0x00	; 0
    2ae2:	70 e0       	ldi	r23, 0x00	; 0
    2ae4:	0e 94 7b 11 	call	0x22f6	; 0x22f6 <dir_sdi>
    2ae8:	f8 01       	movw	r30, r16
    2aea:	13 8a       	std	Z+19, r1	; 0x13
    2aec:	12 8a       	std	Z+18, r1	; 0x12
    2aee:	84 c1       	rjmp	.+776    	; 0x2df8 <follow_path+0x38a>
    2af0:	f0 e2       	ldi	r31, 0x20	; 32
    2af2:	3f 2e       	mov	r3, r31
    2af4:	a5 e0       	ldi	r26, 0x05	; 5
    2af6:	2a 2e       	mov	r2, r26
    2af8:	92 01       	movw	r18, r4
    2afa:	29 01       	movw	r4, r18
    2afc:	d9 01       	movw	r26, r18
    2afe:	8c 91       	ld	r24, X
    2b00:	2f 5f       	subi	r18, 0xFF	; 255
    2b02:	3f 4f       	sbci	r19, 0xFF	; 255
    2b04:	8f 32       	cpi	r24, 0x2F	; 47
    2b06:	c9 f3       	breq	.-14     	; 0x2afa <follow_path+0x8c>
    2b08:	8c 35       	cpi	r24, 0x5C	; 92
    2b0a:	b9 f3       	breq	.-18     	; 0x2afa <follow_path+0x8c>
    2b0c:	f8 01       	movw	r30, r16
    2b0e:	64 88       	ldd	r6, Z+20	; 0x14
    2b10:	75 88       	ldd	r7, Z+21	; 0x15
    2b12:	c3 01       	movw	r24, r6
    2b14:	0b 96       	adiw	r24, 0x0b	; 11
    2b16:	f3 01       	movw	r30, r6
    2b18:	01 c0       	rjmp	.+2      	; 0x2b1c <follow_path+0xae>
    2b1a:	31 92       	st	Z+, r3
    2b1c:	e8 17       	cp	r30, r24
    2b1e:	f9 07       	cpc	r31, r25
    2b20:	e1 f7       	brne	.-8      	; 0x2b1a <follow_path+0xac>
    2b22:	d2 01       	movw	r26, r4
    2b24:	8c 91       	ld	r24, X
    2b26:	8e 32       	cpi	r24, 0x2E	; 46
    2b28:	59 f5       	brne	.+86     	; 0x2b80 <follow_path+0x112>
    2b2a:	f3 01       	movw	r30, r6
    2b2c:	80 83       	st	Z, r24
    2b2e:	11 96       	adiw	r26, 0x01	; 1
    2b30:	2c 91       	ld	r18, X
    2b32:	11 97       	sbiw	r26, 0x01	; 1
    2b34:	2e 32       	cpi	r18, 0x2E	; 46
    2b36:	41 f4       	brne	.+16     	; 0x2b48 <follow_path+0xda>
    2b38:	21 83       	std	Z+1, r18	; 0x01
    2b3a:	12 96       	adiw	r26, 0x02	; 2
    2b3c:	2c 91       	ld	r18, X
    2b3e:	83 e0       	ldi	r24, 0x03	; 3
    2b40:	90 e0       	ldi	r25, 0x00	; 0
    2b42:	a0 e0       	ldi	r26, 0x00	; 0
    2b44:	b0 e0       	ldi	r27, 0x00	; 0
    2b46:	04 c0       	rjmp	.+8      	; 0x2b50 <follow_path+0xe2>
    2b48:	82 e0       	ldi	r24, 0x02	; 2
    2b4a:	90 e0       	ldi	r25, 0x00	; 0
    2b4c:	a0 e0       	ldi	r26, 0x00	; 0
    2b4e:	b0 e0       	ldi	r27, 0x00	; 0
    2b50:	2f 32       	cpi	r18, 0x2F	; 47
    2b52:	29 f0       	breq	.+10     	; 0x2b5e <follow_path+0xf0>
    2b54:	2c 35       	cpi	r18, 0x5C	; 92
    2b56:	19 f0       	breq	.+6      	; 0x2b5e <follow_path+0xf0>
    2b58:	21 32       	cpi	r18, 0x21	; 33
    2b5a:	08 f0       	brcs	.+2      	; 0x2b5e <follow_path+0xf0>
    2b5c:	4a c1       	rjmp	.+660    	; 0x2df2 <follow_path+0x384>
    2b5e:	48 0e       	add	r4, r24
    2b60:	59 1e       	adc	r5, r25
    2b62:	21 32       	cpi	r18, 0x21	; 33
    2b64:	10 f4       	brcc	.+4      	; 0x2b6a <follow_path+0xfc>
    2b66:	84 e2       	ldi	r24, 0x24	; 36
    2b68:	01 c0       	rjmp	.+2      	; 0x2b6c <follow_path+0xfe>
    2b6a:	80 e2       	ldi	r24, 0x20	; 32
    2b6c:	d3 01       	movw	r26, r6
    2b6e:	1b 96       	adiw	r26, 0x0b	; 11
    2b70:	8c 93       	st	X, r24
    2b72:	1b 97       	sbiw	r26, 0x0b	; 11
    2b74:	59 c1       	rjmp	.+690    	; 0x2e28 <follow_path+0x3ba>
    2b76:	49 81       	ldd	r20, Y+1	; 0x01
    2b78:	5a 81       	ldd	r21, Y+2	; 0x02
    2b7a:	6b 81       	ldd	r22, Y+3	; 0x03
    2b7c:	7c 81       	ldd	r23, Y+4	; 0x04
    2b7e:	0c c0       	rjmp	.+24     	; 0x2b98 <follow_path+0x12a>
    2b80:	cc 24       	eor	r12, r12
    2b82:	dd 24       	eor	r13, r13
    2b84:	76 01       	movw	r14, r12
    2b86:	40 e0       	ldi	r20, 0x00	; 0
    2b88:	50 e0       	ldi	r21, 0x00	; 0
    2b8a:	ba 01       	movw	r22, r20
    2b8c:	e8 e0       	ldi	r30, 0x08	; 8
    2b8e:	8e 2e       	mov	r8, r30
    2b90:	91 2c       	mov	r9, r1
    2b92:	a1 2c       	mov	r10, r1
    2b94:	b1 2c       	mov	r11, r1
    2b96:	20 e0       	ldi	r18, 0x00	; 0
    2b98:	f2 01       	movw	r30, r4
    2b9a:	e4 0f       	add	r30, r20
    2b9c:	f5 1f       	adc	r31, r21
    2b9e:	30 81       	ld	r19, Z
    2ba0:	db 01       	movw	r26, r22
    2ba2:	ca 01       	movw	r24, r20
    2ba4:	01 96       	adiw	r24, 0x01	; 1
    2ba6:	a1 1d       	adc	r26, r1
    2ba8:	b1 1d       	adc	r27, r1
    2baa:	89 83       	std	Y+1, r24	; 0x01
    2bac:	9a 83       	std	Y+2, r25	; 0x02
    2bae:	ab 83       	std	Y+3, r26	; 0x03
    2bb0:	bc 83       	std	Y+4, r27	; 0x04
    2bb2:	31 32       	cpi	r19, 0x21	; 33
    2bb4:	08 f4       	brcc	.+2      	; 0x2bb8 <follow_path+0x14a>
    2bb6:	89 c0       	rjmp	.+274    	; 0x2cca <follow_path+0x25c>
    2bb8:	3f 32       	cpi	r19, 0x2F	; 47
    2bba:	09 f4       	brne	.+2      	; 0x2bbe <follow_path+0x150>
    2bbc:	88 c0       	rjmp	.+272    	; 0x2cce <follow_path+0x260>
    2bbe:	3c 35       	cpi	r19, 0x5C	; 92
    2bc0:	09 f4       	brne	.+2      	; 0x2bc4 <follow_path+0x156>
    2bc2:	85 c0       	rjmp	.+266    	; 0x2cce <follow_path+0x260>
    2bc4:	3e 32       	cpi	r19, 0x2E	; 46
    2bc6:	29 f0       	breq	.+10     	; 0x2bd2 <follow_path+0x164>
    2bc8:	c8 14       	cp	r12, r8
    2bca:	d9 04       	cpc	r13, r9
    2bcc:	ea 04       	cpc	r14, r10
    2bce:	fb 04       	cpc	r15, r11
    2bd0:	b8 f0       	brcs	.+46     	; 0x2c00 <follow_path+0x192>
    2bd2:	98 e0       	ldi	r25, 0x08	; 8
    2bd4:	89 16       	cp	r8, r25
    2bd6:	91 04       	cpc	r9, r1
    2bd8:	a1 04       	cpc	r10, r1
    2bda:	b1 04       	cpc	r11, r1
    2bdc:	09 f0       	breq	.+2      	; 0x2be0 <follow_path+0x172>
    2bde:	09 c1       	rjmp	.+530    	; 0x2df2 <follow_path+0x384>
    2be0:	3e 32       	cpi	r19, 0x2E	; 46
    2be2:	09 f0       	breq	.+2      	; 0x2be6 <follow_path+0x178>
    2be4:	06 c1       	rjmp	.+524    	; 0x2df2 <follow_path+0x384>
    2be6:	22 0f       	add	r18, r18
    2be8:	22 0f       	add	r18, r18
    2bea:	38 e0       	ldi	r19, 0x08	; 8
    2bec:	c3 2e       	mov	r12, r19
    2bee:	d1 2c       	mov	r13, r1
    2bf0:	e1 2c       	mov	r14, r1
    2bf2:	f1 2c       	mov	r15, r1
    2bf4:	4b e0       	ldi	r20, 0x0B	; 11
    2bf6:	84 2e       	mov	r8, r20
    2bf8:	91 2c       	mov	r9, r1
    2bfa:	a1 2c       	mov	r10, r1
    2bfc:	b1 2c       	mov	r11, r1
    2bfe:	bb cf       	rjmp	.-138    	; 0x2b76 <follow_path+0x108>
    2c00:	37 fd       	sbrc	r19, 7
    2c02:	23 60       	ori	r18, 0x03	; 3
    2c04:	83 2f       	mov	r24, r19
    2c06:	81 58       	subi	r24, 0x81	; 129
    2c08:	8f 31       	cpi	r24, 0x1F	; 31
    2c0a:	18 f0       	brcs	.+6      	; 0x2c12 <follow_path+0x1a4>
    2c0c:	8f 55       	subi	r24, 0x5F	; 95
    2c0e:	8d 31       	cpi	r24, 0x1D	; 29
    2c10:	d0 f5       	brcc	.+116    	; 0x2c86 <follow_path+0x218>
    2c12:	e9 81       	ldd	r30, Y+1	; 0x01
    2c14:	fa 81       	ldd	r31, Y+2	; 0x02
    2c16:	e4 0d       	add	r30, r4
    2c18:	f5 1d       	adc	r31, r5
    2c1a:	a0 81       	ld	r26, Z
    2c1c:	ad 83       	std	Y+5, r26	; 0x05
    2c1e:	8a 2f       	mov	r24, r26
    2c20:	80 54       	subi	r24, 0x40	; 64
    2c22:	8f 33       	cpi	r24, 0x3F	; 63
    2c24:	20 f0       	brcs	.+8      	; 0x2c2e <follow_path+0x1c0>
    2c26:	80 54       	subi	r24, 0x40	; 64
    2c28:	8d 37       	cpi	r24, 0x7D	; 125
    2c2a:	08 f0       	brcs	.+2      	; 0x2c2e <follow_path+0x1c0>
    2c2c:	e2 c0       	rjmp	.+452    	; 0x2df2 <follow_path+0x384>
    2c2e:	d5 01       	movw	r26, r10
    2c30:	c4 01       	movw	r24, r8
    2c32:	01 97       	sbiw	r24, 0x01	; 1
    2c34:	a1 09       	sbc	r26, r1
    2c36:	b1 09       	sbc	r27, r1
    2c38:	c8 16       	cp	r12, r24
    2c3a:	d9 06       	cpc	r13, r25
    2c3c:	ea 06       	cpc	r14, r26
    2c3e:	fb 06       	cpc	r15, r27
    2c40:	08 f0       	brcs	.+2      	; 0x2c44 <follow_path+0x1d6>
    2c42:	d7 c0       	rjmp	.+430    	; 0x2df2 <follow_path+0x384>
    2c44:	db 01       	movw	r26, r22
    2c46:	ca 01       	movw	r24, r20
    2c48:	02 96       	adiw	r24, 0x02	; 2
    2c4a:	a1 1d       	adc	r26, r1
    2c4c:	b1 1d       	adc	r27, r1
    2c4e:	89 83       	std	Y+1, r24	; 0x01
    2c50:	9a 83       	std	Y+2, r25	; 0x02
    2c52:	ab 83       	std	Y+3, r26	; 0x03
    2c54:	bc 83       	std	Y+4, r27	; 0x04
    2c56:	f3 01       	movw	r30, r6
    2c58:	ec 0d       	add	r30, r12
    2c5a:	fd 1d       	adc	r31, r13
    2c5c:	30 83       	st	Z, r19
    2c5e:	b7 01       	movw	r22, r14
    2c60:	a6 01       	movw	r20, r12
    2c62:	4f 5f       	subi	r20, 0xFF	; 255
    2c64:	5f 4f       	sbci	r21, 0xFF	; 255
    2c66:	6f 4f       	sbci	r22, 0xFF	; 255
    2c68:	7f 4f       	sbci	r23, 0xFF	; 255
    2c6a:	46 0d       	add	r20, r6
    2c6c:	57 1d       	adc	r21, r7
    2c6e:	ed 81       	ldd	r30, Y+5	; 0x05
    2c70:	da 01       	movw	r26, r20
    2c72:	ec 93       	st	X, r30
    2c74:	82 e0       	ldi	r24, 0x02	; 2
    2c76:	90 e0       	ldi	r25, 0x00	; 0
    2c78:	a0 e0       	ldi	r26, 0x00	; 0
    2c7a:	b0 e0       	ldi	r27, 0x00	; 0
    2c7c:	c8 0e       	add	r12, r24
    2c7e:	d9 1e       	adc	r13, r25
    2c80:	ea 1e       	adc	r14, r26
    2c82:	fb 1e       	adc	r15, r27
    2c84:	78 cf       	rjmp	.-272    	; 0x2b76 <follow_path+0x108>
    2c86:	43 2f       	mov	r20, r19
    2c88:	50 e0       	ldi	r21, 0x00	; 0
    2c8a:	eb e8       	ldi	r30, 0x8B	; 139
    2c8c:	f1 e0       	ldi	r31, 0x01	; 1
    2c8e:	81 91       	ld	r24, Z+
    2c90:	88 23       	and	r24, r24
    2c92:	29 f0       	breq	.+10     	; 0x2c9e <follow_path+0x230>
    2c94:	90 e0       	ldi	r25, 0x00	; 0
    2c96:	84 17       	cp	r24, r20
    2c98:	95 07       	cpc	r25, r21
    2c9a:	c9 f7       	brne	.-14     	; 0x2c8e <follow_path+0x220>
    2c9c:	aa c0       	rjmp	.+340    	; 0x2df2 <follow_path+0x384>
    2c9e:	83 2f       	mov	r24, r19
    2ca0:	81 54       	subi	r24, 0x41	; 65
    2ca2:	8a 31       	cpi	r24, 0x1A	; 26
    2ca4:	10 f4       	brcc	.+4      	; 0x2caa <follow_path+0x23c>
    2ca6:	22 60       	ori	r18, 0x02	; 2
    2ca8:	06 c0       	rjmp	.+12     	; 0x2cb6 <follow_path+0x248>
    2caa:	83 2f       	mov	r24, r19
    2cac:	81 56       	subi	r24, 0x61	; 97
    2cae:	8a 31       	cpi	r24, 0x1A	; 26
    2cb0:	10 f4       	brcc	.+4      	; 0x2cb6 <follow_path+0x248>
    2cb2:	21 60       	ori	r18, 0x01	; 1
    2cb4:	30 52       	subi	r19, 0x20	; 32
    2cb6:	f3 01       	movw	r30, r6
    2cb8:	ec 0d       	add	r30, r12
    2cba:	fd 1d       	adc	r31, r13
    2cbc:	30 83       	st	Z, r19
    2cbe:	08 94       	sec
    2cc0:	c1 1c       	adc	r12, r1
    2cc2:	d1 1c       	adc	r13, r1
    2cc4:	e1 1c       	adc	r14, r1
    2cc6:	f1 1c       	adc	r15, r1
    2cc8:	56 cf       	rjmp	.-340    	; 0x2b76 <follow_path+0x108>
    2cca:	44 e0       	ldi	r20, 0x04	; 4
    2ccc:	01 c0       	rjmp	.+2      	; 0x2cd0 <follow_path+0x262>
    2cce:	40 e0       	ldi	r20, 0x00	; 0
    2cd0:	c1 14       	cp	r12, r1
    2cd2:	d1 04       	cpc	r13, r1
    2cd4:	e1 04       	cpc	r14, r1
    2cd6:	f1 04       	cpc	r15, r1
    2cd8:	09 f4       	brne	.+2      	; 0x2cdc <follow_path+0x26e>
    2cda:	8b c0       	rjmp	.+278    	; 0x2df2 <follow_path+0x384>
    2cdc:	d3 01       	movw	r26, r6
    2cde:	8c 91       	ld	r24, X
    2ce0:	85 3e       	cpi	r24, 0xE5	; 229
    2ce2:	09 f4       	brne	.+2      	; 0x2ce6 <follow_path+0x278>
    2ce4:	2c 92       	st	X, r2
    2ce6:	b8 e0       	ldi	r27, 0x08	; 8
    2ce8:	8b 16       	cp	r8, r27
    2cea:	91 04       	cpc	r9, r1
    2cec:	a1 04       	cpc	r10, r1
    2cee:	b1 04       	cpc	r11, r1
    2cf0:	11 f4       	brne	.+4      	; 0x2cf6 <follow_path+0x288>
    2cf2:	22 0f       	add	r18, r18
    2cf4:	22 0f       	add	r18, r18
    2cf6:	82 2f       	mov	r24, r18
    2cf8:	90 e0       	ldi	r25, 0x00	; 0
    2cfa:	9c 01       	movw	r18, r24
    2cfc:	23 70       	andi	r18, 0x03	; 3
    2cfe:	30 70       	andi	r19, 0x00	; 0
    2d00:	21 30       	cpi	r18, 0x01	; 1
    2d02:	31 05       	cpc	r19, r1
    2d04:	09 f4       	brne	.+2      	; 0x2d08 <follow_path+0x29a>
    2d06:	40 61       	ori	r20, 0x10	; 16
    2d08:	8c 70       	andi	r24, 0x0C	; 12
    2d0a:	90 70       	andi	r25, 0x00	; 0
    2d0c:	84 30       	cpi	r24, 0x04	; 4
    2d0e:	91 05       	cpc	r25, r1
    2d10:	09 f4       	brne	.+2      	; 0x2d14 <follow_path+0x2a6>
    2d12:	48 60       	ori	r20, 0x08	; 8
    2d14:	e9 81       	ldd	r30, Y+1	; 0x01
    2d16:	fa 81       	ldd	r31, Y+2	; 0x02
    2d18:	4e 0e       	add	r4, r30
    2d1a:	5f 1e       	adc	r5, r31
    2d1c:	d3 01       	movw	r26, r6
    2d1e:	1b 96       	adiw	r26, 0x0b	; 11
    2d20:	4c 93       	st	X, r20
    2d22:	1b 97       	sbiw	r26, 0x0b	; 11
    2d24:	81 c0       	rjmp	.+258    	; 0x2e28 <follow_path+0x3ba>
    2d26:	f8 01       	movw	r30, r16
    2d28:	46 85       	ldd	r20, Z+14	; 0x0e
    2d2a:	57 85       	ldd	r21, Z+15	; 0x0f
    2d2c:	60 89       	ldd	r22, Z+16	; 0x10
    2d2e:	71 89       	ldd	r23, Z+17	; 0x11
    2d30:	80 81       	ld	r24, Z
    2d32:	91 81       	ldd	r25, Z+1	; 0x01
    2d34:	0e 94 19 0a 	call	0x1432	; 0x1432 <move_window>
    2d38:	88 23       	and	r24, r24
    2d3a:	11 f5       	brne	.+68     	; 0x2d80 <follow_path+0x312>
    2d3c:	d8 01       	movw	r26, r16
    2d3e:	52 96       	adiw	r26, 0x12	; 18
    2d40:	ed 91       	ld	r30, X+
    2d42:	fc 91       	ld	r31, X
    2d44:	53 97       	sbiw	r26, 0x13	; 19
    2d46:	90 81       	ld	r25, Z
    2d48:	99 23       	and	r25, r25
    2d4a:	c9 f0       	breq	.+50     	; 0x2d7e <follow_path+0x310>
    2d4c:	93 85       	ldd	r25, Z+11	; 0x0b
    2d4e:	93 fd       	sbrc	r25, 3
    2d50:	10 c0       	rjmp	.+32     	; 0x2d72 <follow_path+0x304>
    2d52:	54 96       	adiw	r26, 0x14	; 20
    2d54:	6d 91       	ld	r22, X+
    2d56:	7c 91       	ld	r23, X
    2d58:	55 97       	sbiw	r26, 0x15	; 21
    2d5a:	9f 01       	movw	r18, r30
    2d5c:	25 5f       	subi	r18, 0xF5	; 245
    2d5e:	3f 4f       	sbci	r19, 0xFF	; 255
    2d60:	e2 17       	cp	r30, r18
    2d62:	f3 07       	cpc	r31, r19
    2d64:	69 f0       	breq	.+26     	; 0x2d80 <follow_path+0x312>
    2d66:	41 91       	ld	r20, Z+
    2d68:	db 01       	movw	r26, r22
    2d6a:	9d 91       	ld	r25, X+
    2d6c:	bd 01       	movw	r22, r26
    2d6e:	49 17       	cp	r20, r25
    2d70:	b9 f3       	breq	.-18     	; 0x2d60 <follow_path+0x2f2>
    2d72:	c8 01       	movw	r24, r16
    2d74:	60 e0       	ldi	r22, 0x00	; 0
    2d76:	70 e0       	ldi	r23, 0x00	; 0
    2d78:	0e 94 08 14 	call	0x2810	; 0x2810 <dir_next>
    2d7c:	5a c0       	rjmp	.+180    	; 0x2e32 <follow_path+0x3c4>
    2d7e:	84 e0       	ldi	r24, 0x04	; 4
    2d80:	d8 01       	movw	r26, r16
    2d82:	54 96       	adiw	r26, 0x14	; 20
    2d84:	ed 91       	ld	r30, X+
    2d86:	fc 91       	ld	r31, X
    2d88:	55 97       	sbiw	r26, 0x15	; 21
    2d8a:	43 85       	ldd	r20, Z+11	; 0x0b
    2d8c:	88 23       	and	r24, r24
    2d8e:	c9 f0       	breq	.+50     	; 0x2dc2 <follow_path+0x354>
    2d90:	84 30       	cpi	r24, 0x04	; 4
    2d92:	91 f5       	brne	.+100    	; 0x2df8 <follow_path+0x38a>
    2d94:	50 e0       	ldi	r21, 0x00	; 0
    2d96:	9a 01       	movw	r18, r20
    2d98:	24 70       	andi	r18, 0x04	; 4
    2d9a:	30 70       	andi	r19, 0x00	; 0
    2d9c:	45 ff       	sbrs	r20, 5
    2d9e:	0d c0       	rjmp	.+26     	; 0x2dba <follow_path+0x34c>
    2da0:	f8 01       	movw	r30, r16
    2da2:	16 82       	std	Z+6, r1	; 0x06
    2da4:	17 82       	std	Z+7, r1	; 0x07
    2da6:	10 86       	std	Z+8, r1	; 0x08
    2da8:	11 86       	std	Z+9, r1	; 0x09
    2daa:	13 8a       	std	Z+19, r1	; 0x13
    2dac:	12 8a       	std	Z+18, r1	; 0x12
    2dae:	21 15       	cp	r18, r1
    2db0:	31 05       	cpc	r19, r1
    2db2:	09 f4       	brne	.+2      	; 0x2db6 <follow_path+0x348>
    2db4:	a1 ce       	rjmp	.-702    	; 0x2af8 <follow_path+0x8a>
    2db6:	80 e0       	ldi	r24, 0x00	; 0
    2db8:	1f c0       	rjmp	.+62     	; 0x2df8 <follow_path+0x38a>
    2dba:	21 15       	cp	r18, r1
    2dbc:	31 05       	cpc	r19, r1
    2dbe:	d9 f0       	breq	.+54     	; 0x2df6 <follow_path+0x388>
    2dc0:	1b c0       	rjmp	.+54     	; 0x2df8 <follow_path+0x38a>
    2dc2:	42 fd       	sbrc	r20, 2
    2dc4:	19 c0       	rjmp	.+50     	; 0x2df8 <follow_path+0x38a>
    2dc6:	d8 01       	movw	r26, r16
    2dc8:	52 96       	adiw	r26, 0x12	; 18
    2dca:	6d 91       	ld	r22, X+
    2dcc:	7c 91       	ld	r23, X
    2dce:	53 97       	sbiw	r26, 0x13	; 19
    2dd0:	fb 01       	movw	r30, r22
    2dd2:	83 85       	ldd	r24, Z+11	; 0x0b
    2dd4:	84 ff       	sbrs	r24, 4
    2dd6:	0f c0       	rjmp	.+30     	; 0x2df6 <follow_path+0x388>
    2dd8:	ed 91       	ld	r30, X+
    2dda:	fc 91       	ld	r31, X
    2ddc:	80 81       	ld	r24, Z
    2dde:	0e 94 19 0b 	call	0x1632	; 0x1632 <ld_clust.isra.0>
    2de2:	dc 01       	movw	r26, r24
    2de4:	cb 01       	movw	r24, r22
    2de6:	f8 01       	movw	r30, r16
    2de8:	86 83       	std	Z+6, r24	; 0x06
    2dea:	97 83       	std	Z+7, r25	; 0x07
    2dec:	a0 87       	std	Z+8, r26	; 0x08
    2dee:	b1 87       	std	Z+9, r27	; 0x09
    2df0:	83 ce       	rjmp	.-762    	; 0x2af8 <follow_path+0x8a>
    2df2:	86 e0       	ldi	r24, 0x06	; 6
    2df4:	01 c0       	rjmp	.+2      	; 0x2df8 <follow_path+0x38a>
    2df6:	85 e0       	ldi	r24, 0x05	; 5
    2df8:	0f 90       	pop	r0
    2dfa:	0f 90       	pop	r0
    2dfc:	0f 90       	pop	r0
    2dfe:	0f 90       	pop	r0
    2e00:	0f 90       	pop	r0
    2e02:	df 91       	pop	r29
    2e04:	cf 91       	pop	r28
    2e06:	1f 91       	pop	r17
    2e08:	0f 91       	pop	r16
    2e0a:	ff 90       	pop	r15
    2e0c:	ef 90       	pop	r14
    2e0e:	df 90       	pop	r13
    2e10:	cf 90       	pop	r12
    2e12:	bf 90       	pop	r11
    2e14:	af 90       	pop	r10
    2e16:	9f 90       	pop	r9
    2e18:	8f 90       	pop	r8
    2e1a:	7f 90       	pop	r7
    2e1c:	6f 90       	pop	r6
    2e1e:	5f 90       	pop	r5
    2e20:	4f 90       	pop	r4
    2e22:	3f 90       	pop	r3
    2e24:	2f 90       	pop	r2
    2e26:	08 95       	ret
    2e28:	c8 01       	movw	r24, r16
    2e2a:	60 e0       	ldi	r22, 0x00	; 0
    2e2c:	70 e0       	ldi	r23, 0x00	; 0
    2e2e:	0e 94 7b 11 	call	0x22f6	; 0x22f6 <dir_sdi>
    2e32:	88 23       	and	r24, r24
    2e34:	09 f4       	brne	.+2      	; 0x2e38 <follow_path+0x3ca>
    2e36:	77 cf       	rjmp	.-274    	; 0x2d26 <follow_path+0x2b8>
    2e38:	a3 cf       	rjmp	.-186    	; 0x2d80 <follow_path+0x312>

00002e3a <dir_register>:
    2e3a:	0f 93       	push	r16
    2e3c:	1f 93       	push	r17
    2e3e:	cf 93       	push	r28
    2e40:	8c 01       	movw	r16, r24
    2e42:	60 e0       	ldi	r22, 0x00	; 0
    2e44:	70 e0       	ldi	r23, 0x00	; 0
    2e46:	0e 94 7b 11 	call	0x22f6	; 0x22f6 <dir_sdi>
    2e4a:	c8 2f       	mov	r28, r24
    2e4c:	88 23       	and	r24, r24
    2e4e:	d9 f5       	brne	.+118    	; 0x2ec6 <dir_register+0x8c>
    2e50:	d8 01       	movw	r26, r16
    2e52:	1e 96       	adiw	r26, 0x0e	; 14
    2e54:	4d 91       	ld	r20, X+
    2e56:	5d 91       	ld	r21, X+
    2e58:	6d 91       	ld	r22, X+
    2e5a:	7c 91       	ld	r23, X
    2e5c:	51 97       	sbiw	r26, 0x11	; 17
    2e5e:	8d 91       	ld	r24, X+
    2e60:	9c 91       	ld	r25, X
    2e62:	0e 94 19 0a 	call	0x1432	; 0x1432 <move_window>
    2e66:	c8 2f       	mov	r28, r24
    2e68:	88 23       	and	r24, r24
    2e6a:	69 f5       	brne	.+90     	; 0x2ec6 <dir_register+0x8c>
    2e6c:	d8 01       	movw	r26, r16
    2e6e:	52 96       	adiw	r26, 0x12	; 18
    2e70:	ed 91       	ld	r30, X+
    2e72:	fc 91       	ld	r31, X
    2e74:	53 97       	sbiw	r26, 0x13	; 19
    2e76:	80 81       	ld	r24, Z
    2e78:	85 3e       	cpi	r24, 0xE5	; 229
    2e7a:	51 f1       	breq	.+84     	; 0x2ed0 <dir_register+0x96>
    2e7c:	88 23       	and	r24, r24
    2e7e:	41 f1       	breq	.+80     	; 0x2ed0 <dir_register+0x96>
    2e80:	c8 01       	movw	r24, r16
    2e82:	61 e0       	ldi	r22, 0x01	; 1
    2e84:	70 e0       	ldi	r23, 0x00	; 0
    2e86:	0e 94 08 14 	call	0x2810	; 0x2810 <dir_next>
    2e8a:	df cf       	rjmp	.-66     	; 0x2e4a <dir_register+0x10>
    2e8c:	f8 01       	movw	r30, r16
    2e8e:	22 89       	ldd	r18, Z+18	; 0x12
    2e90:	33 89       	ldd	r19, Z+19	; 0x13
    2e92:	c9 01       	movw	r24, r18
    2e94:	80 96       	adiw	r24, 0x20	; 32
    2e96:	f9 01       	movw	r30, r18
    2e98:	01 c0       	rjmp	.+2      	; 0x2e9c <dir_register+0x62>
    2e9a:	11 92       	st	Z+, r1
    2e9c:	e8 17       	cp	r30, r24
    2e9e:	f9 07       	cpc	r31, r25
    2ea0:	e1 f7       	brne	.-8      	; 0x2e9a <dir_register+0x60>
    2ea2:	d8 01       	movw	r26, r16
    2ea4:	54 96       	adiw	r26, 0x14	; 20
    2ea6:	6d 91       	ld	r22, X+
    2ea8:	7c 91       	ld	r23, X
    2eaa:	55 97       	sbiw	r26, 0x15	; 21
    2eac:	c9 01       	movw	r24, r18
    2eae:	2b e0       	ldi	r18, 0x0B	; 11
    2eb0:	30 e0       	ldi	r19, 0x00	; 0
    2eb2:	40 e0       	ldi	r20, 0x00	; 0
    2eb4:	50 e0       	ldi	r21, 0x00	; 0
    2eb6:	0e 94 7e 09 	call	0x12fc	; 0x12fc <mem_cpy>
    2eba:	d8 01       	movw	r26, r16
    2ebc:	ed 91       	ld	r30, X+
    2ebe:	fc 91       	ld	r31, X
    2ec0:	11 97       	sbiw	r26, 0x01	; 1
    2ec2:	81 e0       	ldi	r24, 0x01	; 1
    2ec4:	84 83       	std	Z+4, r24	; 0x04
    2ec6:	8c 2f       	mov	r24, r28
    2ec8:	cf 91       	pop	r28
    2eca:	1f 91       	pop	r17
    2ecc:	0f 91       	pop	r16
    2ece:	08 95       	ret
    2ed0:	f8 01       	movw	r30, r16
    2ed2:	46 85       	ldd	r20, Z+14	; 0x0e
    2ed4:	57 85       	ldd	r21, Z+15	; 0x0f
    2ed6:	60 89       	ldd	r22, Z+16	; 0x10
    2ed8:	71 89       	ldd	r23, Z+17	; 0x11
    2eda:	80 81       	ld	r24, Z
    2edc:	91 81       	ldd	r25, Z+1	; 0x01
    2ede:	0e 94 19 0a 	call	0x1432	; 0x1432 <move_window>
    2ee2:	c8 2f       	mov	r28, r24
    2ee4:	88 23       	and	r24, r24
    2ee6:	91 f2       	breq	.-92     	; 0x2e8c <dir_register+0x52>
    2ee8:	ee cf       	rjmp	.-36     	; 0x2ec6 <dir_register+0x8c>

00002eea <dir_read>:
    2eea:	cf 93       	push	r28
    2eec:	df 93       	push	r29
    2eee:	ec 01       	movw	r28, r24
    2ef0:	94 e0       	ldi	r25, 0x04	; 4
    2ef2:	18 c0       	rjmp	.+48     	; 0x2f24 <dir_read+0x3a>
    2ef4:	88 81       	ld	r24, Y
    2ef6:	99 81       	ldd	r25, Y+1	; 0x01
    2ef8:	0e 94 19 0a 	call	0x1432	; 0x1432 <move_window>
    2efc:	88 23       	and	r24, r24
    2efe:	39 f5       	brne	.+78     	; 0x2f4e <dir_read+0x64>
    2f00:	ea 89       	ldd	r30, Y+18	; 0x12
    2f02:	fb 89       	ldd	r31, Y+19	; 0x13
    2f04:	90 81       	ld	r25, Z
    2f06:	99 23       	and	r25, r25
    2f08:	09 f1       	breq	.+66     	; 0x2f4c <dir_read+0x62>
    2f0a:	95 3e       	cpi	r25, 0xE5	; 229
    2f0c:	19 f0       	breq	.+6      	; 0x2f14 <dir_read+0x2a>
    2f0e:	93 85       	ldd	r25, Z+11	; 0x0b
    2f10:	93 ff       	sbrs	r25, 3
    2f12:	19 c0       	rjmp	.+50     	; 0x2f46 <dir_read+0x5c>
    2f14:	ce 01       	movw	r24, r28
    2f16:	60 e0       	ldi	r22, 0x00	; 0
    2f18:	70 e0       	ldi	r23, 0x00	; 0
    2f1a:	0e 94 08 14 	call	0x2810	; 0x2810 <dir_next>
    2f1e:	98 2f       	mov	r25, r24
    2f20:	88 23       	and	r24, r24
    2f22:	a9 f4       	brne	.+42     	; 0x2f4e <dir_read+0x64>
    2f24:	4e 85       	ldd	r20, Y+14	; 0x0e
    2f26:	5f 85       	ldd	r21, Y+15	; 0x0f
    2f28:	68 89       	ldd	r22, Y+16	; 0x10
    2f2a:	79 89       	ldd	r23, Y+17	; 0x11
    2f2c:	41 15       	cp	r20, r1
    2f2e:	51 05       	cpc	r21, r1
    2f30:	61 05       	cpc	r22, r1
    2f32:	71 05       	cpc	r23, r1
    2f34:	f9 f6       	brne	.-66     	; 0x2ef4 <dir_read+0xa>
    2f36:	89 2f       	mov	r24, r25
    2f38:	99 23       	and	r25, r25
    2f3a:	29 f0       	breq	.+10     	; 0x2f46 <dir_read+0x5c>
    2f3c:	1e 86       	std	Y+14, r1	; 0x0e
    2f3e:	1f 86       	std	Y+15, r1	; 0x0f
    2f40:	18 8a       	std	Y+16, r1	; 0x10
    2f42:	19 8a       	std	Y+17, r1	; 0x11
    2f44:	89 2f       	mov	r24, r25
    2f46:	df 91       	pop	r29
    2f48:	cf 91       	pop	r28
    2f4a:	08 95       	ret
    2f4c:	84 e0       	ldi	r24, 0x04	; 4
    2f4e:	98 2f       	mov	r25, r24
    2f50:	f5 cf       	rjmp	.-22     	; 0x2f3c <dir_read+0x52>

00002f52 <remove_chain>:
    2f52:	7f 92       	push	r7
    2f54:	8f 92       	push	r8
    2f56:	9f 92       	push	r9
    2f58:	af 92       	push	r10
    2f5a:	bf 92       	push	r11
    2f5c:	cf 92       	push	r12
    2f5e:	df 92       	push	r13
    2f60:	ef 92       	push	r14
    2f62:	ff 92       	push	r15
    2f64:	0f 93       	push	r16
    2f66:	1f 93       	push	r17
    2f68:	cf 93       	push	r28
    2f6a:	df 93       	push	r29
    2f6c:	ec 01       	movw	r28, r24
    2f6e:	6a 01       	movw	r12, r20
    2f70:	7b 01       	movw	r14, r22
    2f72:	42 30       	cpi	r20, 0x02	; 2
    2f74:	51 05       	cpc	r21, r1
    2f76:	61 05       	cpc	r22, r1
    2f78:	71 05       	cpc	r23, r1
    2f7a:	08 f4       	brcc	.+2      	; 0x2f7e <remove_chain+0x2c>
    2f7c:	57 c0       	rjmp	.+174    	; 0x302c <remove_chain+0xda>
    2f7e:	8a 8d       	ldd	r24, Y+26	; 0x1a
    2f80:	9b 8d       	ldd	r25, Y+27	; 0x1b
    2f82:	ac 8d       	ldd	r26, Y+28	; 0x1c
    2f84:	bd 8d       	ldd	r27, Y+29	; 0x1d
    2f86:	48 17       	cp	r20, r24
    2f88:	59 07       	cpc	r21, r25
    2f8a:	6a 07       	cpc	r22, r26
    2f8c:	7b 07       	cpc	r23, r27
    2f8e:	08 f0       	brcs	.+2      	; 0x2f92 <remove_chain+0x40>
    2f90:	4d c0       	rjmp	.+154    	; 0x302c <remove_chain+0xda>
    2f92:	3c c0       	rjmp	.+120    	; 0x300c <remove_chain+0xba>
    2f94:	ce 01       	movw	r24, r28
    2f96:	b7 01       	movw	r22, r14
    2f98:	a6 01       	movw	r20, r12
    2f9a:	0e 94 6a 10 	call	0x20d4	; 0x20d4 <get_fat>
    2f9e:	4b 01       	movw	r8, r22
    2fa0:	5c 01       	movw	r10, r24
    2fa2:	61 15       	cp	r22, r1
    2fa4:	71 05       	cpc	r23, r1
    2fa6:	81 05       	cpc	r24, r1
    2fa8:	91 05       	cpc	r25, r1
    2faa:	e1 f1       	breq	.+120    	; 0x3024 <remove_chain+0xd2>
    2fac:	81 e0       	ldi	r24, 0x01	; 1
    2fae:	88 16       	cp	r8, r24
    2fb0:	91 04       	cpc	r9, r1
    2fb2:	a1 04       	cpc	r10, r1
    2fb4:	b1 04       	cpc	r11, r1
    2fb6:	d1 f1       	breq	.+116    	; 0x302c <remove_chain+0xda>
    2fb8:	2f ef       	ldi	r18, 0xFF	; 255
    2fba:	82 16       	cp	r8, r18
    2fbc:	2f ef       	ldi	r18, 0xFF	; 255
    2fbe:	92 06       	cpc	r9, r18
    2fc0:	2f ef       	ldi	r18, 0xFF	; 255
    2fc2:	a2 06       	cpc	r10, r18
    2fc4:	2f ef       	ldi	r18, 0xFF	; 255
    2fc6:	b2 06       	cpc	r11, r18
    2fc8:	79 f1       	breq	.+94     	; 0x3028 <remove_chain+0xd6>
    2fca:	ce 01       	movw	r24, r28
    2fcc:	b7 01       	movw	r22, r14
    2fce:	a6 01       	movw	r20, r12
    2fd0:	00 e0       	ldi	r16, 0x00	; 0
    2fd2:	10 e0       	ldi	r17, 0x00	; 0
    2fd4:	98 01       	movw	r18, r16
    2fd6:	0e 94 2f 12 	call	0x245e	; 0x245e <put_fat>
    2fda:	88 23       	and	r24, r24
    2fdc:	41 f5       	brne	.+80     	; 0x302e <remove_chain+0xdc>
    2fde:	8e 85       	ldd	r24, Y+14	; 0x0e
    2fe0:	9f 85       	ldd	r25, Y+15	; 0x0f
    2fe2:	a8 89       	ldd	r26, Y+16	; 0x10
    2fe4:	b9 89       	ldd	r27, Y+17	; 0x11
    2fe6:	8f 3f       	cpi	r24, 0xFF	; 255
    2fe8:	2f ef       	ldi	r18, 0xFF	; 255
    2fea:	92 07       	cpc	r25, r18
    2fec:	2f ef       	ldi	r18, 0xFF	; 255
    2fee:	a2 07       	cpc	r26, r18
    2ff0:	2f ef       	ldi	r18, 0xFF	; 255
    2ff2:	b2 07       	cpc	r27, r18
    2ff4:	41 f0       	breq	.+16     	; 0x3006 <remove_chain+0xb4>
    2ff6:	01 96       	adiw	r24, 0x01	; 1
    2ff8:	a1 1d       	adc	r26, r1
    2ffa:	b1 1d       	adc	r27, r1
    2ffc:	8e 87       	std	Y+14, r24	; 0x0e
    2ffe:	9f 87       	std	Y+15, r25	; 0x0f
    3000:	a8 8b       	std	Y+16, r26	; 0x10
    3002:	b9 8b       	std	Y+17, r27	; 0x11
    3004:	7d 82       	std	Y+5, r7	; 0x05
    3006:	75 01       	movw	r14, r10
    3008:	64 01       	movw	r12, r8
    300a:	02 c0       	rjmp	.+4      	; 0x3010 <remove_chain+0xbe>
    300c:	77 24       	eor	r7, r7
    300e:	73 94       	inc	r7
    3010:	8a 8d       	ldd	r24, Y+26	; 0x1a
    3012:	9b 8d       	ldd	r25, Y+27	; 0x1b
    3014:	ac 8d       	ldd	r26, Y+28	; 0x1c
    3016:	bd 8d       	ldd	r27, Y+29	; 0x1d
    3018:	c8 16       	cp	r12, r24
    301a:	d9 06       	cpc	r13, r25
    301c:	ea 06       	cpc	r14, r26
    301e:	fb 06       	cpc	r15, r27
    3020:	08 f4       	brcc	.+2      	; 0x3024 <remove_chain+0xd2>
    3022:	b8 cf       	rjmp	.-144    	; 0x2f94 <remove_chain+0x42>
    3024:	80 e0       	ldi	r24, 0x00	; 0
    3026:	03 c0       	rjmp	.+6      	; 0x302e <remove_chain+0xdc>
    3028:	81 e0       	ldi	r24, 0x01	; 1
    302a:	01 c0       	rjmp	.+2      	; 0x302e <remove_chain+0xdc>
    302c:	82 e0       	ldi	r24, 0x02	; 2
    302e:	df 91       	pop	r29
    3030:	cf 91       	pop	r28
    3032:	1f 91       	pop	r17
    3034:	0f 91       	pop	r16
    3036:	ff 90       	pop	r15
    3038:	ef 90       	pop	r14
    303a:	df 90       	pop	r13
    303c:	cf 90       	pop	r12
    303e:	bf 90       	pop	r11
    3040:	af 90       	pop	r10
    3042:	9f 90       	pop	r9
    3044:	8f 90       	pop	r8
    3046:	7f 90       	pop	r7
    3048:	08 95       	ret

0000304a <f_mount>:
    304a:	88 23       	and	r24, r24
    304c:	91 f4       	brne	.+36     	; 0x3072 <f_mount+0x28>
    304e:	e0 91 7f 02 	lds	r30, 0x027F
    3052:	f0 91 80 02 	lds	r31, 0x0280
    3056:	30 97       	sbiw	r30, 0x00	; 0
    3058:	09 f0       	breq	.+2      	; 0x305c <f_mount+0x12>
    305a:	10 82       	st	Z, r1
    305c:	61 15       	cp	r22, r1
    305e:	71 05       	cpc	r23, r1
    3060:	11 f0       	breq	.+4      	; 0x3066 <f_mount+0x1c>
    3062:	fb 01       	movw	r30, r22
    3064:	10 82       	st	Z, r1
    3066:	70 93 80 02 	sts	0x0280, r23
    306a:	60 93 7f 02 	sts	0x027F, r22
    306e:	80 e0       	ldi	r24, 0x00	; 0
    3070:	08 95       	ret
    3072:	8b e0       	ldi	r24, 0x0B	; 11
    3074:	08 95       	ret

00003076 <f_open>:
    3076:	4f 92       	push	r4
    3078:	5f 92       	push	r5
    307a:	6f 92       	push	r6
    307c:	7f 92       	push	r7
    307e:	8f 92       	push	r8
    3080:	9f 92       	push	r9
    3082:	af 92       	push	r10
    3084:	bf 92       	push	r11
    3086:	cf 92       	push	r12
    3088:	df 92       	push	r13
    308a:	ef 92       	push	r14
    308c:	ff 92       	push	r15
    308e:	0f 93       	push	r16
    3090:	1f 93       	push	r17
    3092:	cf 93       	push	r28
    3094:	df 93       	push	r29
    3096:	cd b7       	in	r28, 0x3d	; 61
    3098:	de b7       	in	r29, 0x3e	; 62
    309a:	a4 97       	sbiw	r28, 0x24	; 36
    309c:	0f b6       	in	r0, 0x3f	; 63
    309e:	f8 94       	cli
    30a0:	de bf       	out	0x3e, r29	; 62
    30a2:	0f be       	out	0x3f, r0	; 63
    30a4:	cd bf       	out	0x3d, r28	; 61
    30a6:	6c 01       	movw	r12, r24
    30a8:	7c a3       	lds	r23, 0x5c
    30aa:	6b a3       	lds	r22, 0x5b
    30ac:	00 97       	sbiw	r24, 0x00	; 0
    30ae:	09 f4       	brne	.+2      	; 0x30b2 <f_open+0x3c>
    30b0:	ec c0       	rjmp	.+472    	; 0x328a <f_open+0x214>
    30b2:	fc 01       	movw	r30, r24
    30b4:	11 82       	std	Z+1, r1	; 0x01
    30b6:	10 82       	st	Z, r1
    30b8:	5f e1       	ldi	r21, 0x1F	; 31
    30ba:	f5 2e       	mov	r15, r21
    30bc:	f4 22       	and	r15, r20
    30be:	4e 71       	andi	r20, 0x1E	; 30
    30c0:	ce 01       	movw	r24, r28
    30c2:	83 96       	adiw	r24, 0x23	; 35
    30c4:	be 01       	movw	r22, r28
    30c6:	63 5f       	subi	r22, 0xF3	; 243
    30c8:	7f 4f       	sbci	r23, 0xFF	; 255
    30ca:	0e 94 f5 0b 	call	0x17ea	; 0x17ea <chk_mounted>
    30ce:	e8 2e       	mov	r14, r24
    30d0:	88 23       	and	r24, r24
    30d2:	09 f0       	breq	.+2      	; 0x30d6 <f_open+0x60>
    30d4:	dc c0       	rjmp	.+440    	; 0x328e <f_open+0x218>
    30d6:	ce 01       	movw	r24, r28
    30d8:	01 96       	adiw	r24, 0x01	; 1
    30da:	9a a3       	lds	r25, 0x5a
    30dc:	89 a3       	lds	r24, 0x59
    30de:	6b a1       	lds	r22, 0x4b
    30e0:	7c a1       	lds	r23, 0x4c
    30e2:	ce 01       	movw	r24, r28
    30e4:	0d 96       	adiw	r24, 0x0d	; 13
    30e6:	0e 94 37 15 	call	0x2a6e	; 0x2a6e <follow_path>
    30ea:	0f 8d       	ldd	r16, Y+31	; 0x1f
    30ec:	18 a1       	lds	r17, 0x48
    30ee:	88 23       	and	r24, r24
    30f0:	21 f4       	brne	.+8      	; 0x30fa <f_open+0x84>
    30f2:	01 15       	cp	r16, r1
    30f4:	11 05       	cpc	r17, r1
    30f6:	09 f4       	brne	.+2      	; 0x30fa <f_open+0x84>
    30f8:	86 e0       	ldi	r24, 0x06	; 6
    30fa:	4f 2d       	mov	r20, r15
    30fc:	50 e0       	ldi	r21, 0x00	; 0
    30fe:	9a 01       	movw	r18, r20
    3100:	2c 71       	andi	r18, 0x1C	; 28
    3102:	30 70       	andi	r19, 0x00	; 0
    3104:	21 15       	cp	r18, r1
    3106:	31 05       	cpc	r19, r1
    3108:	09 f4       	brne	.+2      	; 0x310c <f_open+0x96>
    310a:	59 c0       	rjmp	.+178    	; 0x31be <f_open+0x148>
    310c:	88 23       	and	r24, r24
    310e:	71 f0       	breq	.+28     	; 0x312c <f_open+0xb6>
    3110:	84 30       	cpi	r24, 0x04	; 4
    3112:	21 f4       	brne	.+8      	; 0x311c <f_open+0xa6>
    3114:	ce 01       	movw	r24, r28
    3116:	0d 96       	adiw	r24, 0x0d	; 13
    3118:	0e 94 1d 17 	call	0x2e3a	; 0x2e3a <dir_register>
    311c:	0f 8d       	ldd	r16, Y+31	; 0x1f
    311e:	18 a1       	lds	r17, 0x48
    3120:	88 23       	and	r24, r24
    3122:	09 f0       	breq	.+2      	; 0x3126 <f_open+0xb0>
    3124:	b0 c0       	rjmp	.+352    	; 0x3286 <f_open+0x210>
    3126:	f8 e0       	ldi	r31, 0x08	; 8
    3128:	ff 2a       	or	r15, r31
    312a:	07 c0       	rjmp	.+14     	; 0x313a <f_open+0xc4>
    312c:	f8 01       	movw	r30, r16
    312e:	83 85       	ldd	r24, Z+11	; 0x0b
    3130:	81 71       	andi	r24, 0x11	; 17
    3132:	09 f0       	breq	.+2      	; 0x3136 <f_open+0xc0>
    3134:	c8 c0       	rjmp	.+400    	; 0x32c6 <f_open+0x250>
    3136:	f2 fc       	sbrc	r15, 2
    3138:	c2 c0       	rjmp	.+388    	; 0x32be <f_open+0x248>
    313a:	f3 fe       	sbrs	r15, 3
    313c:	4b c0       	rjmp	.+150    	; 0x31d4 <f_open+0x15e>
    313e:	f8 01       	movw	r30, r16
    3140:	16 86       	std	Z+14, r1	; 0x0e
    3142:	17 86       	std	Z+15, r1	; 0x0f
    3144:	10 8a       	std	Z+16, r1	; 0x10
    3146:	11 8a       	std	Z+17, r1	; 0x11
    3148:	13 86       	std	Z+11, r1	; 0x0b
    314a:	14 8e       	std	Z+28, r1	; 0x1c
    314c:	15 8e       	std	Z+29, r1	; 0x1d
    314e:	16 8e       	std	Z+30, r1	; 0x1e
    3150:	17 8e       	std	Z+31, r1	; 0x1f
    3152:	ed 85       	ldd	r30, Y+13	; 0x0d
    3154:	fe 85       	ldd	r31, Y+14	; 0x0e
    3156:	80 81       	ld	r24, Z
    3158:	b8 01       	movw	r22, r16
    315a:	0e 94 19 0b 	call	0x1632	; 0x1632 <ld_clust.isra.0>
    315e:	4b 01       	movw	r8, r22
    3160:	5c 01       	movw	r10, r24
    3162:	c8 01       	movw	r24, r16
    3164:	40 e0       	ldi	r20, 0x00	; 0
    3166:	50 e0       	ldi	r21, 0x00	; 0
    3168:	ba 01       	movw	r22, r20
    316a:	0e 94 90 09 	call	0x1320	; 0x1320 <st_clust>
    316e:	8d 85       	ldd	r24, Y+13	; 0x0d
    3170:	9e 85       	ldd	r25, Y+14	; 0x0e
    3172:	21 e0       	ldi	r18, 0x01	; 1
    3174:	fc 01       	movw	r30, r24
    3176:	24 83       	std	Z+4, r18	; 0x04
    3178:	81 14       	cp	r8, r1
    317a:	91 04       	cpc	r9, r1
    317c:	a1 04       	cpc	r10, r1
    317e:	b1 04       	cpc	r11, r1
    3180:	49 f1       	breq	.+82     	; 0x31d4 <f_open+0x15e>
    3182:	46 a4       	lds	r20, 0xa6
    3184:	57 a4       	lds	r21, 0xa7
    3186:	60 a8       	sts	0x00, r22
    3188:	71 a8       	sts	0x81, r23
    318a:	b5 01       	movw	r22, r10
    318c:	a4 01       	movw	r20, r8
    318e:	0e 94 a9 17 	call	0x2f52	; 0x2f52 <remove_chain>
    3192:	88 23       	and	r24, r24
    3194:	09 f0       	breq	.+2      	; 0x3198 <f_open+0x122>
    3196:	77 c0       	rjmp	.+238    	; 0x3286 <f_open+0x210>
    3198:	ed 85       	ldd	r30, Y+13	; 0x0d
    319a:	fe 85       	ldd	r31, Y+14	; 0x0e
    319c:	d5 01       	movw	r26, r10
    319e:	c4 01       	movw	r24, r8
    31a0:	01 97       	sbiw	r24, 0x01	; 1
    31a2:	a1 09       	sbc	r26, r1
    31a4:	b1 09       	sbc	r27, r1
    31a6:	82 87       	std	Z+10, r24	; 0x0a
    31a8:	93 87       	std	Z+11, r25	; 0x0b
    31aa:	a4 87       	std	Z+12, r26	; 0x0c
    31ac:	b5 87       	std	Z+13, r27	; 0x0d
    31ae:	cf 01       	movw	r24, r30
    31b0:	b3 01       	movw	r22, r6
    31b2:	a2 01       	movw	r20, r4
    31b4:	0e 94 19 0a 	call	0x1432	; 0x1432 <move_window>
    31b8:	88 23       	and	r24, r24
    31ba:	61 f0       	breq	.+24     	; 0x31d4 <f_open+0x15e>
    31bc:	64 c0       	rjmp	.+200    	; 0x3286 <f_open+0x210>
    31be:	88 23       	and	r24, r24
    31c0:	09 f0       	breq	.+2      	; 0x31c4 <f_open+0x14e>
    31c2:	61 c0       	rjmp	.+194    	; 0x3286 <f_open+0x210>
    31c4:	f8 01       	movw	r30, r16
    31c6:	83 85       	ldd	r24, Z+11	; 0x0b
    31c8:	84 fd       	sbrc	r24, 4
    31ca:	7b c0       	rjmp	.+246    	; 0x32c2 <f_open+0x24c>
    31cc:	f1 fe       	sbrs	r15, 1
    31ce:	02 c0       	rjmp	.+4      	; 0x31d4 <f_open+0x15e>
    31d0:	80 fd       	sbrc	r24, 0
    31d2:	79 c0       	rjmp	.+242    	; 0x32c6 <f_open+0x250>
    31d4:	f3 fe       	sbrs	r15, 3
    31d6:	02 c0       	rjmp	.+4      	; 0x31dc <f_open+0x166>
    31d8:	f0 e2       	ldi	r31, 0x20	; 32
    31da:	ff 2a       	or	r15, r31
    31dc:	8d 84       	ldd	r8, Y+13	; 0x0d
    31de:	9e 84       	ldd	r9, Y+14	; 0x0e
    31e0:	f4 01       	movw	r30, r8
    31e2:	86 a5       	lds	r24, 0x66
    31e4:	97 a5       	lds	r25, 0x67
    31e6:	a0 a9       	sts	0x40, r26
    31e8:	b1 a9       	sts	0x41, r27
    31ea:	f6 01       	movw	r30, r12
    31ec:	82 8f       	std	Z+26, r24	; 0x1a
    31ee:	93 8f       	std	Z+27, r25	; 0x1b
    31f0:	a4 8f       	std	Z+28, r26	; 0x1c
    31f2:	b5 8f       	std	Z+29, r27	; 0x1d
    31f4:	17 8f       	std	Z+31, r17	; 0x1f
    31f6:	06 8f       	std	Z+30, r16	; 0x1e
    31f8:	f4 82       	std	Z+4, r15	; 0x04
    31fa:	f4 01       	movw	r30, r8
    31fc:	80 81       	ld	r24, Z
    31fe:	b8 01       	movw	r22, r16
    3200:	0e 94 19 0b 	call	0x1632	; 0x1632 <ld_clust.isra.0>
    3204:	dc 01       	movw	r26, r24
    3206:	cb 01       	movw	r24, r22
    3208:	f6 01       	movw	r30, r12
    320a:	86 87       	std	Z+14, r24	; 0x0e
    320c:	97 87       	std	Z+15, r25	; 0x0f
    320e:	a0 8b       	std	Z+16, r26	; 0x10
    3210:	b1 8b       	std	Z+17, r27	; 0x11
    3212:	f8 01       	movw	r30, r16
    3214:	47 8d       	ldd	r20, Z+31	; 0x1f
    3216:	50 e0       	ldi	r21, 0x00	; 0
    3218:	60 e0       	ldi	r22, 0x00	; 0
    321a:	70 e0       	ldi	r23, 0x00	; 0
    321c:	74 2f       	mov	r23, r20
    321e:	66 27       	eor	r22, r22
    3220:	55 27       	eor	r21, r21
    3222:	44 27       	eor	r20, r20
    3224:	86 8d       	ldd	r24, Z+30	; 0x1e
    3226:	90 e0       	ldi	r25, 0x00	; 0
    3228:	a0 e0       	ldi	r26, 0x00	; 0
    322a:	b0 e0       	ldi	r27, 0x00	; 0
    322c:	dc 01       	movw	r26, r24
    322e:	99 27       	eor	r25, r25
    3230:	88 27       	eor	r24, r24
    3232:	48 2b       	or	r20, r24
    3234:	59 2b       	or	r21, r25
    3236:	6a 2b       	or	r22, r26
    3238:	7b 2b       	or	r23, r27
    323a:	84 8d       	ldd	r24, Z+28	; 0x1c
    323c:	90 e0       	ldi	r25, 0x00	; 0
    323e:	a0 e0       	ldi	r26, 0x00	; 0
    3240:	b0 e0       	ldi	r27, 0x00	; 0
    3242:	48 2b       	or	r20, r24
    3244:	59 2b       	or	r21, r25
    3246:	6a 2b       	or	r22, r26
    3248:	7b 2b       	or	r23, r27
    324a:	95 8d       	ldd	r25, Z+29	; 0x1d
    324c:	80 e0       	ldi	r24, 0x00	; 0
    324e:	a0 e0       	ldi	r26, 0x00	; 0
    3250:	b0 e0       	ldi	r27, 0x00	; 0
    3252:	48 2b       	or	r20, r24
    3254:	59 2b       	or	r21, r25
    3256:	6a 2b       	or	r22, r26
    3258:	7b 2b       	or	r23, r27
    325a:	f6 01       	movw	r30, r12
    325c:	42 87       	std	Z+10, r20	; 0x0a
    325e:	53 87       	std	Z+11, r21	; 0x0b
    3260:	64 87       	std	Z+12, r22	; 0x0c
    3262:	75 87       	std	Z+13, r23	; 0x0d
    3264:	16 82       	std	Z+6, r1	; 0x06
    3266:	17 82       	std	Z+7, r1	; 0x07
    3268:	10 86       	std	Z+8, r1	; 0x08
    326a:	11 86       	std	Z+9, r1	; 0x09
    326c:	16 8a       	std	Z+22, r1	; 0x16
    326e:	17 8a       	std	Z+23, r1	; 0x17
    3270:	10 8e       	std	Z+24, r1	; 0x18
    3272:	11 8e       	std	Z+25, r1	; 0x19
    3274:	91 82       	std	Z+1, r9	; 0x01
    3276:	80 82       	st	Z, r8
    3278:	f4 01       	movw	r30, r8
    327a:	86 81       	ldd	r24, Z+6	; 0x06
    327c:	97 81       	ldd	r25, Z+7	; 0x07
    327e:	f6 01       	movw	r30, r12
    3280:	93 83       	std	Z+3, r25	; 0x03
    3282:	82 83       	std	Z+2, r24	; 0x02
    3284:	04 c0       	rjmp	.+8      	; 0x328e <f_open+0x218>
    3286:	e8 2e       	mov	r14, r24
    3288:	02 c0       	rjmp	.+4      	; 0x328e <f_open+0x218>
    328a:	b9 e0       	ldi	r27, 0x09	; 9
    328c:	eb 2e       	mov	r14, r27
    328e:	8e 2d       	mov	r24, r14
    3290:	a4 96       	adiw	r28, 0x24	; 36
    3292:	0f b6       	in	r0, 0x3f	; 63
    3294:	f8 94       	cli
    3296:	de bf       	out	0x3e, r29	; 62
    3298:	0f be       	out	0x3f, r0	; 63
    329a:	cd bf       	out	0x3d, r28	; 61
    329c:	df 91       	pop	r29
    329e:	cf 91       	pop	r28
    32a0:	1f 91       	pop	r17
    32a2:	0f 91       	pop	r16
    32a4:	ff 90       	pop	r15
    32a6:	ef 90       	pop	r14
    32a8:	df 90       	pop	r13
    32aa:	cf 90       	pop	r12
    32ac:	bf 90       	pop	r11
    32ae:	af 90       	pop	r10
    32b0:	9f 90       	pop	r9
    32b2:	8f 90       	pop	r8
    32b4:	7f 90       	pop	r7
    32b6:	6f 90       	pop	r6
    32b8:	5f 90       	pop	r5
    32ba:	4f 90       	pop	r4
    32bc:	08 95       	ret
    32be:	88 e0       	ldi	r24, 0x08	; 8
    32c0:	e2 cf       	rjmp	.-60     	; 0x3286 <f_open+0x210>
    32c2:	84 e0       	ldi	r24, 0x04	; 4
    32c4:	e0 cf       	rjmp	.-64     	; 0x3286 <f_open+0x210>
    32c6:	87 e0       	ldi	r24, 0x07	; 7
    32c8:	de cf       	rjmp	.-68     	; 0x3286 <f_open+0x210>

000032ca <f_read>:
    32ca:	2f 92       	push	r2
    32cc:	3f 92       	push	r3
    32ce:	4f 92       	push	r4
    32d0:	5f 92       	push	r5
    32d2:	6f 92       	push	r6
    32d4:	7f 92       	push	r7
    32d6:	8f 92       	push	r8
    32d8:	9f 92       	push	r9
    32da:	af 92       	push	r10
    32dc:	bf 92       	push	r11
    32de:	cf 92       	push	r12
    32e0:	df 92       	push	r13
    32e2:	ef 92       	push	r14
    32e4:	ff 92       	push	r15
    32e6:	0f 93       	push	r16
    32e8:	1f 93       	push	r17
    32ea:	cf 93       	push	r28
    32ec:	df 93       	push	r29
    32ee:	cd b7       	in	r28, 0x3d	; 61
    32f0:	de b7       	in	r29, 0x3e	; 62
    32f2:	2a 97       	sbiw	r28, 0x0a	; 10
    32f4:	0f b6       	in	r0, 0x3f	; 63
    32f6:	f8 94       	cli
    32f8:	de bf       	out	0x3e, r29	; 62
    32fa:	0f be       	out	0x3f, r0	; 63
    32fc:	cd bf       	out	0x3d, r28	; 61
    32fe:	3c 01       	movw	r6, r24
    3300:	f6 2e       	mov	r15, r22
    3302:	47 2e       	mov	r4, r23
    3304:	b4 2e       	mov	r11, r20
    3306:	c5 2e       	mov	r12, r21
    3308:	1e 83       	std	Y+6, r17	; 0x06
    330a:	0d 83       	std	Y+5, r16	; 0x05
    330c:	d8 01       	movw	r26, r16
    330e:	1d 92       	st	X+, r1
    3310:	1d 92       	st	X+, r1
    3312:	1d 92       	st	X+, r1
    3314:	1c 92       	st	X, r1
    3316:	13 97       	sbiw	r26, 0x03	; 3
    3318:	2f 83       	std	Y+7, r18	; 0x07
    331a:	38 87       	std	Y+8, r19	; 0x08
    331c:	0e 94 3a 0b 	call	0x1674	; 0x1674 <validate>
    3320:	a8 2e       	mov	r10, r24
    3322:	2f 81       	ldd	r18, Y+7	; 0x07
    3324:	38 85       	ldd	r19, Y+8	; 0x08
    3326:	88 23       	and	r24, r24
    3328:	09 f0       	breq	.+2      	; 0x332c <f_read+0x62>
    332a:	ad c1       	rjmp	.+858    	; 0x3686 <f_read+0x3bc>
    332c:	f3 01       	movw	r30, r6
    332e:	84 81       	ldd	r24, Z+4	; 0x04
    3330:	87 fd       	sbrc	r24, 7
    3332:	9c c0       	rjmp	.+312    	; 0x346c <f_read+0x1a2>
    3334:	80 ff       	sbrs	r24, 0
    3336:	a5 c1       	rjmp	.+842    	; 0x3682 <f_read+0x3b8>
    3338:	82 85       	ldd	r24, Z+10	; 0x0a
    333a:	93 85       	ldd	r25, Z+11	; 0x0b
    333c:	a4 85       	ldd	r26, Z+12	; 0x0c
    333e:	b5 85       	ldd	r27, Z+13	; 0x0d
    3340:	46 81       	ldd	r20, Z+6	; 0x06
    3342:	57 81       	ldd	r21, Z+7	; 0x07
    3344:	60 85       	ldd	r22, Z+8	; 0x08
    3346:	71 85       	ldd	r23, Z+9	; 0x09
    3348:	84 1b       	sub	r24, r20
    334a:	95 0b       	sbc	r25, r21
    334c:	a6 0b       	sbc	r26, r22
    334e:	b7 0b       	sbc	r27, r23
    3350:	29 83       	std	Y+1, r18	; 0x01
    3352:	3a 83       	std	Y+2, r19	; 0x02
    3354:	bb 82       	std	Y+3, r11	; 0x03
    3356:	cc 82       	std	Y+4, r12	; 0x04
    3358:	09 81       	ldd	r16, Y+1	; 0x01
    335a:	1a 81       	ldd	r17, Y+2	; 0x02
    335c:	2b 81       	ldd	r18, Y+3	; 0x03
    335e:	3c 81       	ldd	r19, Y+4	; 0x04
    3360:	80 17       	cp	r24, r16
    3362:	91 07       	cpc	r25, r17
    3364:	a2 07       	cpc	r26, r18
    3366:	b3 07       	cpc	r27, r19
    3368:	20 f4       	brcc	.+8      	; 0x3372 <f_read+0xa8>
    336a:	89 83       	std	Y+1, r24	; 0x01
    336c:	9a 83       	std	Y+2, r25	; 0x02
    336e:	ab 83       	std	Y+3, r26	; 0x03
    3370:	bc 83       	std	Y+4, r27	; 0x04
    3372:	8f 2c       	mov	r8, r15
    3374:	94 2c       	mov	r9, r4
    3376:	10 e2       	ldi	r17, 0x20	; 32
    3378:	21 2e       	mov	r2, r17
    337a:	31 2c       	mov	r3, r1
    337c:	26 0c       	add	r2, r6
    337e:	37 1c       	adc	r3, r7
    3380:	aa 86       	std	Y+10, r10	; 0x0a
    3382:	53 01       	movw	r10, r6
    3384:	72 c1       	rjmp	.+740    	; 0x366a <f_read+0x3a0>
    3386:	d5 01       	movw	r26, r10
    3388:	16 96       	adiw	r26, 0x06	; 6
    338a:	0d 91       	ld	r16, X+
    338c:	1d 91       	ld	r17, X+
    338e:	2d 91       	ld	r18, X+
    3390:	3c 91       	ld	r19, X
    3392:	19 97       	sbiw	r26, 0x09	; 9
    3394:	d9 01       	movw	r26, r18
    3396:	c8 01       	movw	r24, r16
    3398:	91 70       	andi	r25, 0x01	; 1
    339a:	a0 70       	andi	r26, 0x00	; 0
    339c:	b0 70       	andi	r27, 0x00	; 0
    339e:	00 97       	sbiw	r24, 0x00	; 0
    33a0:	a1 05       	cpc	r26, r1
    33a2:	b1 05       	cpc	r27, r1
    33a4:	09 f0       	breq	.+2      	; 0x33a8 <f_read+0xde>
    33a6:	10 c1       	rjmp	.+544    	; 0x35c8 <f_read+0x2fe>
    33a8:	f5 01       	movw	r30, r10
    33aa:	80 81       	ld	r24, Z
    33ac:	91 81       	ldd	r25, Z+1	; 0x01
    33ae:	b9 01       	movw	r22, r18
    33b0:	a8 01       	movw	r20, r16
    33b2:	b9 e0       	ldi	r27, 0x09	; 9
    33b4:	76 95       	lsr	r23
    33b6:	67 95       	ror	r22
    33b8:	57 95       	ror	r21
    33ba:	47 95       	ror	r20
    33bc:	ba 95       	dec	r27
    33be:	d1 f7       	brne	.-12     	; 0x33b4 <f_read+0xea>
    33c0:	dc 01       	movw	r26, r24
    33c2:	12 96       	adiw	r26, 0x02	; 2
    33c4:	bc 91       	ld	r27, X
    33c6:	b1 50       	subi	r27, 0x01	; 1
    33c8:	b4 23       	and	r27, r20
    33ca:	b9 87       	std	Y+9, r27	; 0x09
    33cc:	bb 23       	and	r27, r27
    33ce:	b9 f5       	brne	.+110    	; 0x343e <f_read+0x174>
    33d0:	01 15       	cp	r16, r1
    33d2:	11 05       	cpc	r17, r1
    33d4:	21 05       	cpc	r18, r1
    33d6:	31 05       	cpc	r19, r1
    33d8:	29 f4       	brne	.+10     	; 0x33e4 <f_read+0x11a>
    33da:	86 85       	ldd	r24, Z+14	; 0x0e
    33dc:	97 85       	ldd	r25, Z+15	; 0x0f
    33de:	a0 89       	ldd	r26, Z+16	; 0x10
    33e0:	b1 89       	ldd	r27, Z+17	; 0x11
    33e2:	09 c0       	rjmp	.+18     	; 0x33f6 <f_read+0x12c>
    33e4:	f5 01       	movw	r30, r10
    33e6:	42 89       	ldd	r20, Z+18	; 0x12
    33e8:	53 89       	ldd	r21, Z+19	; 0x13
    33ea:	64 89       	ldd	r22, Z+20	; 0x14
    33ec:	75 89       	ldd	r23, Z+21	; 0x15
    33ee:	0e 94 6a 10 	call	0x20d4	; 0x20d4 <get_fat>
    33f2:	dc 01       	movw	r26, r24
    33f4:	cb 01       	movw	r24, r22
    33f6:	82 30       	cpi	r24, 0x02	; 2
    33f8:	91 05       	cpc	r25, r1
    33fa:	a1 05       	cpc	r26, r1
    33fc:	b1 05       	cpc	r27, r1
    33fe:	48 f4       	brcc	.+18     	; 0x3412 <f_read+0x148>
    3400:	d5 01       	movw	r26, r10
    3402:	14 96       	adiw	r26, 0x04	; 4
    3404:	8c 91       	ld	r24, X
    3406:	14 97       	sbiw	r26, 0x04	; 4
    3408:	80 68       	ori	r24, 0x80	; 128
    340a:	14 96       	adiw	r26, 0x04	; 4
    340c:	8c 93       	st	X, r24
    340e:	14 97       	sbiw	r26, 0x04	; 4
    3410:	2d c0       	rjmp	.+90     	; 0x346c <f_read+0x1a2>
    3412:	8f 3f       	cpi	r24, 0xFF	; 255
    3414:	ef ef       	ldi	r30, 0xFF	; 255
    3416:	9e 07       	cpc	r25, r30
    3418:	ef ef       	ldi	r30, 0xFF	; 255
    341a:	ae 07       	cpc	r26, r30
    341c:	ef ef       	ldi	r30, 0xFF	; 255
    341e:	be 07       	cpc	r27, r30
    3420:	49 f4       	brne	.+18     	; 0x3434 <f_read+0x16a>
    3422:	d5 01       	movw	r26, r10
    3424:	14 96       	adiw	r26, 0x04	; 4
    3426:	8c 91       	ld	r24, X
    3428:	14 97       	sbiw	r26, 0x04	; 4
    342a:	80 68       	ori	r24, 0x80	; 128
    342c:	14 96       	adiw	r26, 0x04	; 4
    342e:	8c 93       	st	X, r24
    3430:	14 97       	sbiw	r26, 0x04	; 4
    3432:	c0 c0       	rjmp	.+384    	; 0x35b4 <f_read+0x2ea>
    3434:	f5 01       	movw	r30, r10
    3436:	82 8b       	std	Z+18, r24	; 0x12
    3438:	93 8b       	std	Z+19, r25	; 0x13
    343a:	a4 8b       	std	Z+20, r26	; 0x14
    343c:	b5 8b       	std	Z+21, r27	; 0x15
    343e:	d5 01       	movw	r26, r10
    3440:	0d 91       	ld	r16, X+
    3442:	1c 91       	ld	r17, X
    3444:	11 97       	sbiw	r26, 0x01	; 1
    3446:	52 96       	adiw	r26, 0x12	; 18
    3448:	4d 91       	ld	r20, X+
    344a:	5d 91       	ld	r21, X+
    344c:	6d 91       	ld	r22, X+
    344e:	7c 91       	ld	r23, X
    3450:	55 97       	sbiw	r26, 0x15	; 21
    3452:	c8 01       	movw	r24, r16
    3454:	0e 94 36 10 	call	0x206c	; 0x206c <clust2sect>
    3458:	dc 01       	movw	r26, r24
    345a:	cb 01       	movw	r24, r22
    345c:	00 97       	sbiw	r24, 0x00	; 0
    345e:	a1 05       	cpc	r26, r1
    3460:	b1 05       	cpc	r27, r1
    3462:	39 f4       	brne	.+14     	; 0x3472 <f_read+0x1a8>
    3464:	f5 01       	movw	r30, r10
    3466:	84 81       	ldd	r24, Z+4	; 0x04
    3468:	80 68       	ori	r24, 0x80	; 128
    346a:	84 83       	std	Z+4, r24	; 0x04
    346c:	a2 e0       	ldi	r26, 0x02	; 2
    346e:	aa 2e       	mov	r10, r26
    3470:	0a c1       	rjmp	.+532    	; 0x3686 <f_read+0x3bc>
    3472:	29 85       	ldd	r18, Y+9	; 0x09
    3474:	42 2f       	mov	r20, r18
    3476:	50 e0       	ldi	r21, 0x00	; 0
    3478:	60 e0       	ldi	r22, 0x00	; 0
    347a:	70 e0       	ldi	r23, 0x00	; 0
    347c:	2c 01       	movw	r4, r24
    347e:	3d 01       	movw	r6, r26
    3480:	44 0e       	add	r4, r20
    3482:	55 1e       	adc	r5, r21
    3484:	66 1e       	adc	r6, r22
    3486:	77 1e       	adc	r7, r23
    3488:	c9 80       	ldd	r12, Y+1	; 0x01
    348a:	da 80       	ldd	r13, Y+2	; 0x02
    348c:	eb 80       	ldd	r14, Y+3	; 0x03
    348e:	fc 80       	ldd	r15, Y+4	; 0x04
    3490:	f9 e0       	ldi	r31, 0x09	; 9
    3492:	f6 94       	lsr	r15
    3494:	e7 94       	ror	r14
    3496:	d7 94       	ror	r13
    3498:	c7 94       	ror	r12
    349a:	fa 95       	dec	r31
    349c:	d1 f7       	brne	.-12     	; 0x3492 <f_read+0x1c8>
    349e:	c1 14       	cp	r12, r1
    34a0:	d1 04       	cpc	r13, r1
    34a2:	e1 04       	cpc	r14, r1
    34a4:	f1 04       	cpc	r15, r1
    34a6:	09 f4       	brne	.+2      	; 0x34aa <f_read+0x1e0>
    34a8:	50 c0       	rjmp	.+160    	; 0x354a <f_read+0x280>
    34aa:	d8 01       	movw	r26, r16
    34ac:	12 96       	adiw	r26, 0x02	; 2
    34ae:	2c 91       	ld	r18, X
    34b0:	d7 01       	movw	r26, r14
    34b2:	c6 01       	movw	r24, r12
    34b4:	84 0f       	add	r24, r20
    34b6:	95 1f       	adc	r25, r21
    34b8:	a6 1f       	adc	r26, r22
    34ba:	b7 1f       	adc	r27, r23
    34bc:	42 2f       	mov	r20, r18
    34be:	50 e0       	ldi	r21, 0x00	; 0
    34c0:	60 e0       	ldi	r22, 0x00	; 0
    34c2:	70 e0       	ldi	r23, 0x00	; 0
    34c4:	48 17       	cp	r20, r24
    34c6:	59 07       	cpc	r21, r25
    34c8:	6a 07       	cpc	r22, r26
    34ca:	7b 07       	cpc	r23, r27
    34cc:	50 f4       	brcc	.+20     	; 0x34e2 <f_read+0x218>
    34ce:	82 2f       	mov	r24, r18
    34d0:	90 e0       	ldi	r25, 0x00	; 0
    34d2:	29 85       	ldd	r18, Y+9	; 0x09
    34d4:	82 1b       	sub	r24, r18
    34d6:	91 09       	sbc	r25, r1
    34d8:	6c 01       	movw	r12, r24
    34da:	ee 24       	eor	r14, r14
    34dc:	d7 fc       	sbrc	r13, 7
    34de:	e0 94       	com	r14
    34e0:	fe 2c       	mov	r15, r14
    34e2:	d8 01       	movw	r26, r16
    34e4:	11 96       	adiw	r26, 0x01	; 1
    34e6:	8c 91       	ld	r24, X
    34e8:	b4 01       	movw	r22, r8
    34ea:	a3 01       	movw	r20, r6
    34ec:	92 01       	movw	r18, r4
    34ee:	0c 2d       	mov	r16, r12
    34f0:	0e 94 02 07 	call	0xe04	; 0xe04 <disk_read>
    34f4:	f5 01       	movw	r30, r10
    34f6:	94 81       	ldd	r25, Z+4	; 0x04
    34f8:	88 23       	and	r24, r24
    34fa:	19 f0       	breq	.+6      	; 0x3502 <f_read+0x238>
    34fc:	90 68       	ori	r25, 0x80	; 128
    34fe:	94 83       	std	Z+4, r25	; 0x04
    3500:	59 c0       	rjmp	.+178    	; 0x35b4 <f_read+0x2ea>
    3502:	96 ff       	sbrs	r25, 6
    3504:	1a c0       	rjmp	.+52     	; 0x353a <f_read+0x270>
    3506:	f5 01       	movw	r30, r10
    3508:	86 89       	ldd	r24, Z+22	; 0x16
    350a:	97 89       	ldd	r25, Z+23	; 0x17
    350c:	a0 8d       	ldd	r26, Z+24	; 0x18
    350e:	b1 8d       	ldd	r27, Z+25	; 0x19
    3510:	84 19       	sub	r24, r4
    3512:	95 09       	sbc	r25, r5
    3514:	a6 09       	sbc	r26, r6
    3516:	b7 09       	sbc	r27, r7
    3518:	8c 15       	cp	r24, r12
    351a:	9d 05       	cpc	r25, r13
    351c:	ae 05       	cpc	r26, r14
    351e:	bf 05       	cpc	r27, r15
    3520:	60 f4       	brcc	.+24     	; 0x353a <f_read+0x270>
    3522:	98 2f       	mov	r25, r24
    3524:	88 27       	eor	r24, r24
    3526:	99 0f       	add	r25, r25
    3528:	88 0d       	add	r24, r8
    352a:	99 1d       	adc	r25, r9
    352c:	b1 01       	movw	r22, r2
    352e:	20 e0       	ldi	r18, 0x00	; 0
    3530:	32 e0       	ldi	r19, 0x02	; 2
    3532:	40 e0       	ldi	r20, 0x00	; 0
    3534:	50 e0       	ldi	r21, 0x00	; 0
    3536:	0e 94 7e 09 	call	0x12fc	; 0x12fc <mem_cpy>
    353a:	79 e0       	ldi	r23, 0x09	; 9
    353c:	cc 0c       	add	r12, r12
    353e:	dd 1c       	adc	r13, r13
    3540:	ee 1c       	adc	r14, r14
    3542:	ff 1c       	adc	r15, r15
    3544:	7a 95       	dec	r23
    3546:	d1 f7       	brne	.-12     	; 0x353c <f_read+0x272>
    3548:	67 c0       	rjmp	.+206    	; 0x3618 <f_read+0x34e>
    354a:	d5 01       	movw	r26, r10
    354c:	56 96       	adiw	r26, 0x16	; 22
    354e:	2d 91       	ld	r18, X+
    3550:	3d 91       	ld	r19, X+
    3552:	4d 91       	ld	r20, X+
    3554:	5c 91       	ld	r21, X
    3556:	59 97       	sbiw	r26, 0x19	; 25
    3558:	24 15       	cp	r18, r4
    355a:	35 05       	cpc	r19, r5
    355c:	46 05       	cpc	r20, r6
    355e:	57 05       	cpc	r21, r7
    3560:	61 f1       	breq	.+88     	; 0x35ba <f_read+0x2f0>
    3562:	14 96       	adiw	r26, 0x04	; 4
    3564:	8c 91       	ld	r24, X
    3566:	14 97       	sbiw	r26, 0x04	; 4
    3568:	86 ff       	sbrs	r24, 6
    356a:	14 c0       	rjmp	.+40     	; 0x3594 <f_read+0x2ca>
    356c:	f8 01       	movw	r30, r16
    356e:	81 81       	ldd	r24, Z+1	; 0x01
    3570:	b1 01       	movw	r22, r2
    3572:	01 e0       	ldi	r16, 0x01	; 1
    3574:	0e 94 56 07 	call	0xeac	; 0xeac <disk_write>
    3578:	d5 01       	movw	r26, r10
    357a:	14 96       	adiw	r26, 0x04	; 4
    357c:	9c 91       	ld	r25, X
    357e:	14 97       	sbiw	r26, 0x04	; 4
    3580:	88 23       	and	r24, r24
    3582:	21 f0       	breq	.+8      	; 0x358c <f_read+0x2c2>
    3584:	90 68       	ori	r25, 0x80	; 128
    3586:	f5 01       	movw	r30, r10
    3588:	94 83       	std	Z+4, r25	; 0x04
    358a:	14 c0       	rjmp	.+40     	; 0x35b4 <f_read+0x2ea>
    358c:	9f 7b       	andi	r25, 0xBF	; 191
    358e:	d5 01       	movw	r26, r10
    3590:	14 96       	adiw	r26, 0x04	; 4
    3592:	9c 93       	st	X, r25
    3594:	d5 01       	movw	r26, r10
    3596:	ed 91       	ld	r30, X+
    3598:	fc 91       	ld	r31, X
    359a:	81 81       	ldd	r24, Z+1	; 0x01
    359c:	b1 01       	movw	r22, r2
    359e:	a3 01       	movw	r20, r6
    35a0:	92 01       	movw	r18, r4
    35a2:	01 e0       	ldi	r16, 0x01	; 1
    35a4:	0e 94 02 07 	call	0xe04	; 0xe04 <disk_read>
    35a8:	88 23       	and	r24, r24
    35aa:	39 f0       	breq	.+14     	; 0x35ba <f_read+0x2f0>
    35ac:	f5 01       	movw	r30, r10
    35ae:	84 81       	ldd	r24, Z+4	; 0x04
    35b0:	80 68       	ori	r24, 0x80	; 128
    35b2:	84 83       	std	Z+4, r24	; 0x04
    35b4:	aa 24       	eor	r10, r10
    35b6:	a3 94       	inc	r10
    35b8:	66 c0       	rjmp	.+204    	; 0x3686 <f_read+0x3bc>
    35ba:	d5 01       	movw	r26, r10
    35bc:	56 96       	adiw	r26, 0x16	; 22
    35be:	4d 92       	st	X+, r4
    35c0:	5d 92       	st	X+, r5
    35c2:	6d 92       	st	X+, r6
    35c4:	7c 92       	st	X, r7
    35c6:	59 97       	sbiw	r26, 0x19	; 25
    35c8:	f5 01       	movw	r30, r10
    35ca:	46 81       	ldd	r20, Z+6	; 0x06
    35cc:	57 81       	ldd	r21, Z+7	; 0x07
    35ce:	60 85       	ldd	r22, Z+8	; 0x08
    35d0:	71 85       	ldd	r23, Z+9	; 0x09
    35d2:	db 01       	movw	r26, r22
    35d4:	ca 01       	movw	r24, r20
    35d6:	91 70       	andi	r25, 0x01	; 1
    35d8:	a0 70       	andi	r26, 0x00	; 0
    35da:	b0 70       	andi	r27, 0x00	; 0
    35dc:	00 e0       	ldi	r16, 0x00	; 0
    35de:	12 e0       	ldi	r17, 0x02	; 2
    35e0:	20 e0       	ldi	r18, 0x00	; 0
    35e2:	30 e0       	ldi	r19, 0x00	; 0
    35e4:	08 1b       	sub	r16, r24
    35e6:	19 0b       	sbc	r17, r25
    35e8:	2a 0b       	sbc	r18, r26
    35ea:	3b 0b       	sbc	r19, r27
    35ec:	c9 80       	ldd	r12, Y+1	; 0x01
    35ee:	da 80       	ldd	r13, Y+2	; 0x02
    35f0:	eb 80       	ldd	r14, Y+3	; 0x03
    35f2:	fc 80       	ldd	r15, Y+4	; 0x04
    35f4:	0c 15       	cp	r16, r12
    35f6:	1d 05       	cpc	r17, r13
    35f8:	2e 05       	cpc	r18, r14
    35fa:	3f 05       	cpc	r19, r15
    35fc:	10 f4       	brcc	.+4      	; 0x3602 <f_read+0x338>
    35fe:	68 01       	movw	r12, r16
    3600:	79 01       	movw	r14, r18
    3602:	ba 01       	movw	r22, r20
    3604:	71 70       	andi	r23, 0x01	; 1
    3606:	60 5e       	subi	r22, 0xE0	; 224
    3608:	7f 4f       	sbci	r23, 0xFF	; 255
    360a:	6a 0d       	add	r22, r10
    360c:	7b 1d       	adc	r23, r11
    360e:	c4 01       	movw	r24, r8
    3610:	a7 01       	movw	r20, r14
    3612:	96 01       	movw	r18, r12
    3614:	0e 94 7e 09 	call	0x12fc	; 0x12fc <mem_cpy>
    3618:	8c 0c       	add	r8, r12
    361a:	9d 1c       	adc	r9, r13
    361c:	f5 01       	movw	r30, r10
    361e:	86 81       	ldd	r24, Z+6	; 0x06
    3620:	97 81       	ldd	r25, Z+7	; 0x07
    3622:	a0 85       	ldd	r26, Z+8	; 0x08
    3624:	b1 85       	ldd	r27, Z+9	; 0x09
    3626:	8c 0d       	add	r24, r12
    3628:	9d 1d       	adc	r25, r13
    362a:	ae 1d       	adc	r26, r14
    362c:	bf 1d       	adc	r27, r15
    362e:	86 83       	std	Z+6, r24	; 0x06
    3630:	97 83       	std	Z+7, r25	; 0x07
    3632:	a0 87       	std	Z+8, r26	; 0x08
    3634:	b1 87       	std	Z+9, r27	; 0x09
    3636:	ed 81       	ldd	r30, Y+5	; 0x05
    3638:	fe 81       	ldd	r31, Y+6	; 0x06
    363a:	80 81       	ld	r24, Z
    363c:	91 81       	ldd	r25, Z+1	; 0x01
    363e:	a2 81       	ldd	r26, Z+2	; 0x02
    3640:	b3 81       	ldd	r27, Z+3	; 0x03
    3642:	8c 0d       	add	r24, r12
    3644:	9d 1d       	adc	r25, r13
    3646:	ae 1d       	adc	r26, r14
    3648:	bf 1d       	adc	r27, r15
    364a:	80 83       	st	Z, r24
    364c:	91 83       	std	Z+1, r25	; 0x01
    364e:	a2 83       	std	Z+2, r26	; 0x02
    3650:	b3 83       	std	Z+3, r27	; 0x03
    3652:	09 81       	ldd	r16, Y+1	; 0x01
    3654:	1a 81       	ldd	r17, Y+2	; 0x02
    3656:	2b 81       	ldd	r18, Y+3	; 0x03
    3658:	3c 81       	ldd	r19, Y+4	; 0x04
    365a:	0c 19       	sub	r16, r12
    365c:	1d 09       	sbc	r17, r13
    365e:	2e 09       	sbc	r18, r14
    3660:	3f 09       	sbc	r19, r15
    3662:	09 83       	std	Y+1, r16	; 0x01
    3664:	1a 83       	std	Y+2, r17	; 0x02
    3666:	2b 83       	std	Y+3, r18	; 0x03
    3668:	3c 83       	std	Y+4, r19	; 0x04
    366a:	29 81       	ldd	r18, Y+1	; 0x01
    366c:	3a 81       	ldd	r19, Y+2	; 0x02
    366e:	4b 81       	ldd	r20, Y+3	; 0x03
    3670:	5c 81       	ldd	r21, Y+4	; 0x04
    3672:	21 15       	cp	r18, r1
    3674:	31 05       	cpc	r19, r1
    3676:	41 05       	cpc	r20, r1
    3678:	51 05       	cpc	r21, r1
    367a:	09 f0       	breq	.+2      	; 0x367e <f_read+0x3b4>
    367c:	84 ce       	rjmp	.-760    	; 0x3386 <f_read+0xbc>
    367e:	aa 84       	ldd	r10, Y+10	; 0x0a
    3680:	02 c0       	rjmp	.+4      	; 0x3686 <f_read+0x3bc>
    3682:	67 e0       	ldi	r22, 0x07	; 7
    3684:	a6 2e       	mov	r10, r22
    3686:	8a 2d       	mov	r24, r10
    3688:	2a 96       	adiw	r28, 0x0a	; 10
    368a:	0f b6       	in	r0, 0x3f	; 63
    368c:	f8 94       	cli
    368e:	de bf       	out	0x3e, r29	; 62
    3690:	0f be       	out	0x3f, r0	; 63
    3692:	cd bf       	out	0x3d, r28	; 61
    3694:	df 91       	pop	r29
    3696:	cf 91       	pop	r28
    3698:	1f 91       	pop	r17
    369a:	0f 91       	pop	r16
    369c:	ff 90       	pop	r15
    369e:	ef 90       	pop	r14
    36a0:	df 90       	pop	r13
    36a2:	cf 90       	pop	r12
    36a4:	bf 90       	pop	r11
    36a6:	af 90       	pop	r10
    36a8:	9f 90       	pop	r9
    36aa:	8f 90       	pop	r8
    36ac:	7f 90       	pop	r7
    36ae:	6f 90       	pop	r6
    36b0:	5f 90       	pop	r5
    36b2:	4f 90       	pop	r4
    36b4:	3f 90       	pop	r3
    36b6:	2f 90       	pop	r2
    36b8:	08 95       	ret

000036ba <f_write>:
    36ba:	2f 92       	push	r2
    36bc:	3f 92       	push	r3
    36be:	4f 92       	push	r4
    36c0:	5f 92       	push	r5
    36c2:	6f 92       	push	r6
    36c4:	7f 92       	push	r7
    36c6:	8f 92       	push	r8
    36c8:	9f 92       	push	r9
    36ca:	af 92       	push	r10
    36cc:	bf 92       	push	r11
    36ce:	cf 92       	push	r12
    36d0:	df 92       	push	r13
    36d2:	ef 92       	push	r14
    36d4:	ff 92       	push	r15
    36d6:	0f 93       	push	r16
    36d8:	1f 93       	push	r17
    36da:	cf 93       	push	r28
    36dc:	df 93       	push	r29
    36de:	cd b7       	in	r28, 0x3d	; 61
    36e0:	de b7       	in	r29, 0x3e	; 62
    36e2:	29 97       	sbiw	r28, 0x09	; 9
    36e4:	0f b6       	in	r0, 0x3f	; 63
    36e6:	f8 94       	cli
    36e8:	de bf       	out	0x3e, r29	; 62
    36ea:	0f be       	out	0x3f, r0	; 63
    36ec:	cd bf       	out	0x3d, r28	; 61
    36ee:	7c 01       	movw	r14, r24
    36f0:	86 2e       	mov	r8, r22
    36f2:	c7 2e       	mov	r12, r23
    36f4:	19 01       	movw	r2, r18
    36f6:	2a 01       	movw	r4, r20
    36f8:	1c 83       	std	Y+4, r17	; 0x04
    36fa:	0b 83       	std	Y+3, r16	; 0x03
    36fc:	d8 01       	movw	r26, r16
    36fe:	1d 92       	st	X+, r1
    3700:	1d 92       	st	X+, r1
    3702:	1d 92       	st	X+, r1
    3704:	1c 92       	st	X, r1
    3706:	13 97       	sbiw	r26, 0x03	; 3
    3708:	0e 94 3a 0b 	call	0x1674	; 0x1674 <validate>
    370c:	78 2e       	mov	r7, r24
    370e:	88 23       	and	r24, r24
    3710:	09 f0       	breq	.+2      	; 0x3714 <f_write+0x5a>
    3712:	06 c2       	rjmp	.+1036   	; 0x3b20 <f_write+0x466>
    3714:	f7 01       	movw	r30, r14
    3716:	84 81       	ldd	r24, Z+4	; 0x04
    3718:	87 fd       	sbrc	r24, 7
    371a:	d3 c0       	rjmp	.+422    	; 0x38c2 <f_write+0x208>
    371c:	81 ff       	sbrs	r24, 1
    371e:	fe c1       	rjmp	.+1020   	; 0x3b1c <f_write+0x462>
    3720:	82 85       	ldd	r24, Z+10	; 0x0a
    3722:	93 85       	ldd	r25, Z+11	; 0x0b
    3724:	a4 85       	ldd	r26, Z+12	; 0x0c
    3726:	b5 85       	ldd	r27, Z+13	; 0x0d
    3728:	b2 01       	movw	r22, r4
    372a:	a1 01       	movw	r20, r2
    372c:	48 0f       	add	r20, r24
    372e:	59 1f       	adc	r21, r25
    3730:	6a 1f       	adc	r22, r26
    3732:	7b 1f       	adc	r23, r27
    3734:	48 17       	cp	r20, r24
    3736:	59 07       	cpc	r21, r25
    3738:	6a 07       	cpc	r22, r26
    373a:	7b 07       	cpc	r23, r27
    373c:	18 f4       	brcc	.+6      	; 0x3744 <f_write+0x8a>
    373e:	22 24       	eor	r2, r2
    3740:	33 24       	eor	r3, r3
    3742:	21 01       	movw	r4, r2
    3744:	89 82       	std	Y+1, r8	; 0x01
    3746:	ca 82       	std	Y+2, r12	; 0x02
    3748:	87 01       	movw	r16, r14
    374a:	00 5e       	subi	r16, 0xE0	; 224
    374c:	1f 4f       	sbci	r17, 0xFF	; 255
    374e:	1e 83       	std	Y+6, r17	; 0x06
    3750:	0d 83       	std	Y+5, r16	; 0x05
    3752:	7f 82       	std	Y+7, r7	; 0x07
    3754:	f9 86       	std	Y+9, r15	; 0x09
    3756:	e8 86       	std	Y+8, r14	; 0x08
    3758:	32 01       	movw	r6, r4
    375a:	21 01       	movw	r4, r2
    375c:	bb c1       	rjmp	.+886    	; 0x3ad4 <f_write+0x41a>
    375e:	a8 85       	ldd	r26, Y+8	; 0x08
    3760:	b9 85       	ldd	r27, Y+9	; 0x09
    3762:	16 96       	adiw	r26, 0x06	; 6
    3764:	4d 91       	ld	r20, X+
    3766:	5d 91       	ld	r21, X+
    3768:	6d 91       	ld	r22, X+
    376a:	7c 91       	ld	r23, X
    376c:	19 97       	sbiw	r26, 0x09	; 9
    376e:	db 01       	movw	r26, r22
    3770:	ca 01       	movw	r24, r20
    3772:	91 70       	andi	r25, 0x01	; 1
    3774:	a0 70       	andi	r26, 0x00	; 0
    3776:	b0 70       	andi	r27, 0x00	; 0
    3778:	00 97       	sbiw	r24, 0x00	; 0
    377a:	a1 05       	cpc	r26, r1
    377c:	b1 05       	cpc	r27, r1
    377e:	09 f0       	breq	.+2      	; 0x3782 <f_write+0xc8>
    3780:	52 c1       	rjmp	.+676    	; 0x3a26 <f_write+0x36c>
    3782:	e8 85       	ldd	r30, Y+8	; 0x08
    3784:	f9 85       	ldd	r31, Y+9	; 0x09
    3786:	20 81       	ld	r18, Z
    3788:	31 81       	ldd	r19, Z+1	; 0x01
    378a:	db 01       	movw	r26, r22
    378c:	ca 01       	movw	r24, r20
    378e:	19 e0       	ldi	r17, 0x09	; 9
    3790:	b6 95       	lsr	r27
    3792:	a7 95       	ror	r26
    3794:	97 95       	ror	r25
    3796:	87 95       	ror	r24
    3798:	1a 95       	dec	r17
    379a:	d1 f7       	brne	.-12     	; 0x3790 <f_write+0xd6>
    379c:	f9 01       	movw	r30, r18
    379e:	12 81       	ldd	r17, Z+2	; 0x02
    37a0:	11 50       	subi	r17, 0x01	; 1
    37a2:	18 23       	and	r17, r24
    37a4:	09 f0       	breq	.+2      	; 0x37a8 <f_write+0xee>
    37a6:	51 c0       	rjmp	.+162    	; 0x384a <f_write+0x190>
    37a8:	41 15       	cp	r20, r1
    37aa:	51 05       	cpc	r21, r1
    37ac:	61 05       	cpc	r22, r1
    37ae:	71 05       	cpc	r23, r1
    37b0:	c9 f4       	brne	.+50     	; 0x37e4 <f_write+0x12a>
    37b2:	e8 85       	ldd	r30, Y+8	; 0x08
    37b4:	f9 85       	ldd	r31, Y+9	; 0x09
    37b6:	86 85       	ldd	r24, Z+14	; 0x0e
    37b8:	97 85       	ldd	r25, Z+15	; 0x0f
    37ba:	a0 89       	ldd	r26, Z+16	; 0x10
    37bc:	b1 89       	ldd	r27, Z+17	; 0x11
    37be:	00 97       	sbiw	r24, 0x00	; 0
    37c0:	a1 05       	cpc	r26, r1
    37c2:	b1 05       	cpc	r27, r1
    37c4:	09 f5       	brne	.+66     	; 0x3808 <f_write+0x14e>
    37c6:	c9 01       	movw	r24, r18
    37c8:	40 e0       	ldi	r20, 0x00	; 0
    37ca:	50 e0       	ldi	r21, 0x00	; 0
    37cc:	ba 01       	movw	r22, r20
    37ce:	0e 94 29 13 	call	0x2652	; 0x2652 <create_chain>
    37d2:	dc 01       	movw	r26, r24
    37d4:	cb 01       	movw	r24, r22
    37d6:	e8 85       	ldd	r30, Y+8	; 0x08
    37d8:	f9 85       	ldd	r31, Y+9	; 0x09
    37da:	86 87       	std	Z+14, r24	; 0x0e
    37dc:	97 87       	std	Z+15, r25	; 0x0f
    37de:	a0 8b       	std	Z+16, r26	; 0x10
    37e0:	b1 8b       	std	Z+17, r27	; 0x11
    37e2:	0d c0       	rjmp	.+26     	; 0x37fe <f_write+0x144>
    37e4:	a8 85       	ldd	r26, Y+8	; 0x08
    37e6:	b9 85       	ldd	r27, Y+9	; 0x09
    37e8:	52 96       	adiw	r26, 0x12	; 18
    37ea:	4d 91       	ld	r20, X+
    37ec:	5d 91       	ld	r21, X+
    37ee:	6d 91       	ld	r22, X+
    37f0:	7c 91       	ld	r23, X
    37f2:	55 97       	sbiw	r26, 0x15	; 21
    37f4:	c9 01       	movw	r24, r18
    37f6:	0e 94 29 13 	call	0x2652	; 0x2652 <create_chain>
    37fa:	dc 01       	movw	r26, r24
    37fc:	cb 01       	movw	r24, r22
    37fe:	00 97       	sbiw	r24, 0x00	; 0
    3800:	a1 05       	cpc	r26, r1
    3802:	b1 05       	cpc	r27, r1
    3804:	09 f4       	brne	.+2      	; 0x3808 <f_write+0x14e>
    3806:	6c c1       	rjmp	.+728    	; 0x3ae0 <f_write+0x426>
    3808:	e8 85       	ldd	r30, Y+8	; 0x08
    380a:	f9 85       	ldd	r31, Y+9	; 0x09
    380c:	24 81       	ldd	r18, Z+4	; 0x04
    380e:	81 30       	cpi	r24, 0x01	; 1
    3810:	91 05       	cpc	r25, r1
    3812:	a1 05       	cpc	r26, r1
    3814:	b1 05       	cpc	r27, r1
    3816:	19 f4       	brne	.+6      	; 0x381e <f_write+0x164>
    3818:	20 68       	ori	r18, 0x80	; 128
    381a:	24 83       	std	Z+4, r18	; 0x04
    381c:	52 c0       	rjmp	.+164    	; 0x38c2 <f_write+0x208>
    381e:	8f 3f       	cpi	r24, 0xFF	; 255
    3820:	ef ef       	ldi	r30, 0xFF	; 255
    3822:	9e 07       	cpc	r25, r30
    3824:	ef ef       	ldi	r30, 0xFF	; 255
    3826:	ae 07       	cpc	r26, r30
    3828:	ef ef       	ldi	r30, 0xFF	; 255
    382a:	be 07       	cpc	r27, r30
    382c:	41 f4       	brne	.+16     	; 0x383e <f_write+0x184>
    382e:	e8 84       	ldd	r14, Y+8	; 0x08
    3830:	f9 84       	ldd	r15, Y+9	; 0x09
    3832:	20 68       	ori	r18, 0x80	; 128
    3834:	d7 01       	movw	r26, r14
    3836:	14 96       	adiw	r26, 0x04	; 4
    3838:	2c 93       	st	X, r18
    383a:	14 97       	sbiw	r26, 0x04	; 4
    383c:	e9 c0       	rjmp	.+466    	; 0x3a10 <f_write+0x356>
    383e:	e8 85       	ldd	r30, Y+8	; 0x08
    3840:	f9 85       	ldd	r31, Y+9	; 0x09
    3842:	82 8b       	std	Z+18, r24	; 0x12
    3844:	93 8b       	std	Z+19, r25	; 0x13
    3846:	a4 8b       	std	Z+20, r26	; 0x14
    3848:	b5 8b       	std	Z+21, r27	; 0x15
    384a:	a8 85       	ldd	r26, Y+8	; 0x08
    384c:	b9 85       	ldd	r27, Y+9	; 0x09
    384e:	14 96       	adiw	r26, 0x04	; 4
    3850:	8c 91       	ld	r24, X
    3852:	14 97       	sbiw	r26, 0x04	; 4
    3854:	86 ff       	sbrs	r24, 6
    3856:	1b c0       	rjmp	.+54     	; 0x388e <f_write+0x1d4>
    3858:	ed 91       	ld	r30, X+
    385a:	fc 91       	ld	r31, X
    385c:	11 97       	sbiw	r26, 0x01	; 1
    385e:	56 96       	adiw	r26, 0x16	; 22
    3860:	2d 91       	ld	r18, X+
    3862:	3d 91       	ld	r19, X+
    3864:	4d 91       	ld	r20, X+
    3866:	5c 91       	ld	r21, X
    3868:	59 97       	sbiw	r26, 0x19	; 25
    386a:	81 81       	ldd	r24, Z+1	; 0x01
    386c:	6d 81       	ldd	r22, Y+5	; 0x05
    386e:	7e 81       	ldd	r23, Y+6	; 0x06
    3870:	01 e0       	ldi	r16, 0x01	; 1
    3872:	0e 94 56 07 	call	0xeac	; 0xeac <disk_write>
    3876:	e8 85       	ldd	r30, Y+8	; 0x08
    3878:	f9 85       	ldd	r31, Y+9	; 0x09
    387a:	94 81       	ldd	r25, Z+4	; 0x04
    387c:	88 23       	and	r24, r24
    387e:	19 f0       	breq	.+6      	; 0x3886 <f_write+0x1cc>
    3880:	90 68       	ori	r25, 0x80	; 128
    3882:	94 83       	std	Z+4, r25	; 0x04
    3884:	c5 c0       	rjmp	.+394    	; 0x3a10 <f_write+0x356>
    3886:	9f 7b       	andi	r25, 0xBF	; 191
    3888:	e8 85       	ldd	r30, Y+8	; 0x08
    388a:	f9 85       	ldd	r31, Y+9	; 0x09
    388c:	94 83       	std	Z+4, r25	; 0x04
    388e:	a8 85       	ldd	r26, Y+8	; 0x08
    3890:	b9 85       	ldd	r27, Y+9	; 0x09
    3892:	2d 90       	ld	r2, X+
    3894:	3c 90       	ld	r3, X
    3896:	11 97       	sbiw	r26, 0x01	; 1
    3898:	52 96       	adiw	r26, 0x12	; 18
    389a:	4d 91       	ld	r20, X+
    389c:	5d 91       	ld	r21, X+
    389e:	6d 91       	ld	r22, X+
    38a0:	7c 91       	ld	r23, X
    38a2:	55 97       	sbiw	r26, 0x15	; 21
    38a4:	c1 01       	movw	r24, r2
    38a6:	0e 94 36 10 	call	0x206c	; 0x206c <clust2sect>
    38aa:	dc 01       	movw	r26, r24
    38ac:	cb 01       	movw	r24, r22
    38ae:	00 97       	sbiw	r24, 0x00	; 0
    38b0:	a1 05       	cpc	r26, r1
    38b2:	b1 05       	cpc	r27, r1
    38b4:	49 f4       	brne	.+18     	; 0x38c8 <f_write+0x20e>
    38b6:	e8 84       	ldd	r14, Y+8	; 0x08
    38b8:	f9 84       	ldd	r15, Y+9	; 0x09
    38ba:	f7 01       	movw	r30, r14
    38bc:	84 81       	ldd	r24, Z+4	; 0x04
    38be:	80 68       	ori	r24, 0x80	; 128
    38c0:	84 83       	std	Z+4, r24	; 0x04
    38c2:	42 e0       	ldi	r20, 0x02	; 2
    38c4:	74 2e       	mov	r7, r20
    38c6:	2c c1       	rjmp	.+600    	; 0x3b20 <f_write+0x466>
    38c8:	41 2f       	mov	r20, r17
    38ca:	50 e0       	ldi	r21, 0x00	; 0
    38cc:	60 e0       	ldi	r22, 0x00	; 0
    38ce:	70 e0       	ldi	r23, 0x00	; 0
    38d0:	4c 01       	movw	r8, r24
    38d2:	5d 01       	movw	r10, r26
    38d4:	84 0e       	add	r8, r20
    38d6:	95 1e       	adc	r9, r21
    38d8:	a6 1e       	adc	r10, r22
    38da:	b7 1e       	adc	r11, r23
    38dc:	73 01       	movw	r14, r6
    38de:	62 01       	movw	r12, r4
    38e0:	39 e0       	ldi	r19, 0x09	; 9
    38e2:	f6 94       	lsr	r15
    38e4:	e7 94       	ror	r14
    38e6:	d7 94       	ror	r13
    38e8:	c7 94       	ror	r12
    38ea:	3a 95       	dec	r19
    38ec:	d1 f7       	brne	.-12     	; 0x38e2 <f_write+0x228>
    38ee:	c1 14       	cp	r12, r1
    38f0:	d1 04       	cpc	r13, r1
    38f2:	e1 04       	cpc	r14, r1
    38f4:	f1 04       	cpc	r15, r1
    38f6:	09 f4       	brne	.+2      	; 0x38fa <f_write+0x240>
    38f8:	61 c0       	rjmp	.+194    	; 0x39bc <f_write+0x302>
    38fa:	d1 01       	movw	r26, r2
    38fc:	12 96       	adiw	r26, 0x02	; 2
    38fe:	2c 91       	ld	r18, X
    3900:	d7 01       	movw	r26, r14
    3902:	c6 01       	movw	r24, r12
    3904:	84 0f       	add	r24, r20
    3906:	95 1f       	adc	r25, r21
    3908:	a6 1f       	adc	r26, r22
    390a:	b7 1f       	adc	r27, r23
    390c:	42 2f       	mov	r20, r18
    390e:	50 e0       	ldi	r21, 0x00	; 0
    3910:	60 e0       	ldi	r22, 0x00	; 0
    3912:	70 e0       	ldi	r23, 0x00	; 0
    3914:	48 17       	cp	r20, r24
    3916:	59 07       	cpc	r21, r25
    3918:	6a 07       	cpc	r22, r26
    391a:	7b 07       	cpc	r23, r27
    391c:	48 f4       	brcc	.+18     	; 0x3930 <f_write+0x276>
    391e:	82 2f       	mov	r24, r18
    3920:	90 e0       	ldi	r25, 0x00	; 0
    3922:	81 1b       	sub	r24, r17
    3924:	91 09       	sbc	r25, r1
    3926:	6c 01       	movw	r12, r24
    3928:	ee 24       	eor	r14, r14
    392a:	d7 fc       	sbrc	r13, 7
    392c:	e0 94       	com	r14
    392e:	fe 2c       	mov	r15, r14
    3930:	f1 01       	movw	r30, r2
    3932:	81 81       	ldd	r24, Z+1	; 0x01
    3934:	69 81       	ldd	r22, Y+1	; 0x01
    3936:	7a 81       	ldd	r23, Y+2	; 0x02
    3938:	a5 01       	movw	r20, r10
    393a:	94 01       	movw	r18, r8
    393c:	0c 2d       	mov	r16, r12
    393e:	0e 94 56 07 	call	0xeac	; 0xeac <disk_write>
    3942:	88 23       	and	r24, r24
    3944:	59 f0       	breq	.+22     	; 0x395c <f_write+0x2a2>
    3946:	e8 84       	ldd	r14, Y+8	; 0x08
    3948:	f9 84       	ldd	r15, Y+9	; 0x09
    394a:	d7 01       	movw	r26, r14
    394c:	14 96       	adiw	r26, 0x04	; 4
    394e:	8c 91       	ld	r24, X
    3950:	14 97       	sbiw	r26, 0x04	; 4
    3952:	80 68       	ori	r24, 0x80	; 128
    3954:	14 96       	adiw	r26, 0x04	; 4
    3956:	8c 93       	st	X, r24
    3958:	14 97       	sbiw	r26, 0x04	; 4
    395a:	5a c0       	rjmp	.+180    	; 0x3a10 <f_write+0x356>
    395c:	e8 85       	ldd	r30, Y+8	; 0x08
    395e:	f9 85       	ldd	r31, Y+9	; 0x09
    3960:	86 89       	ldd	r24, Z+22	; 0x16
    3962:	97 89       	ldd	r25, Z+23	; 0x17
    3964:	a0 8d       	ldd	r26, Z+24	; 0x18
    3966:	b1 8d       	ldd	r27, Z+25	; 0x19
    3968:	88 19       	sub	r24, r8
    396a:	99 09       	sbc	r25, r9
    396c:	aa 09       	sbc	r26, r10
    396e:	bb 09       	sbc	r27, r11
    3970:	8c 15       	cp	r24, r12
    3972:	9d 05       	cpc	r25, r13
    3974:	ae 05       	cpc	r26, r14
    3976:	bf 05       	cpc	r27, r15
    3978:	c8 f4       	brcc	.+50     	; 0x39ac <f_write+0x2f2>
    397a:	bc 01       	movw	r22, r24
    397c:	76 2f       	mov	r23, r22
    397e:	66 27       	eor	r22, r22
    3980:	77 0f       	add	r23, r23
    3982:	09 81       	ldd	r16, Y+1	; 0x01
    3984:	1a 81       	ldd	r17, Y+2	; 0x02
    3986:	60 0f       	add	r22, r16
    3988:	71 1f       	adc	r23, r17
    398a:	8d 81       	ldd	r24, Y+5	; 0x05
    398c:	9e 81       	ldd	r25, Y+6	; 0x06
    398e:	20 e0       	ldi	r18, 0x00	; 0
    3990:	32 e0       	ldi	r19, 0x02	; 2
    3992:	40 e0       	ldi	r20, 0x00	; 0
    3994:	50 e0       	ldi	r21, 0x00	; 0
    3996:	0e 94 7e 09 	call	0x12fc	; 0x12fc <mem_cpy>
    399a:	a8 85       	ldd	r26, Y+8	; 0x08
    399c:	b9 85       	ldd	r27, Y+9	; 0x09
    399e:	14 96       	adiw	r26, 0x04	; 4
    39a0:	8c 91       	ld	r24, X
    39a2:	14 97       	sbiw	r26, 0x04	; 4
    39a4:	8f 7b       	andi	r24, 0xBF	; 191
    39a6:	14 96       	adiw	r26, 0x04	; 4
    39a8:	8c 93       	st	X, r24
    39aa:	14 97       	sbiw	r26, 0x04	; 4
    39ac:	89 e0       	ldi	r24, 0x09	; 9
    39ae:	cc 0c       	add	r12, r12
    39b0:	dd 1c       	adc	r13, r13
    39b2:	ee 1c       	adc	r14, r14
    39b4:	ff 1c       	adc	r15, r15
    39b6:	8a 95       	dec	r24
    39b8:	d1 f7       	brne	.-12     	; 0x39ae <f_write+0x2f4>
    39ba:	66 c0       	rjmp	.+204    	; 0x3a88 <f_write+0x3ce>
    39bc:	e8 85       	ldd	r30, Y+8	; 0x08
    39be:	f9 85       	ldd	r31, Y+9	; 0x09
    39c0:	86 89       	ldd	r24, Z+22	; 0x16
    39c2:	97 89       	ldd	r25, Z+23	; 0x17
    39c4:	a0 8d       	ldd	r26, Z+24	; 0x18
    39c6:	b1 8d       	ldd	r27, Z+25	; 0x19
    39c8:	88 15       	cp	r24, r8
    39ca:	99 05       	cpc	r25, r9
    39cc:	aa 05       	cpc	r26, r10
    39ce:	bb 05       	cpc	r27, r11
    39d0:	11 f1       	breq	.+68     	; 0x3a16 <f_write+0x35c>
    39d2:	86 81       	ldd	r24, Z+6	; 0x06
    39d4:	97 81       	ldd	r25, Z+7	; 0x07
    39d6:	a0 85       	ldd	r26, Z+8	; 0x08
    39d8:	b1 85       	ldd	r27, Z+9	; 0x09
    39da:	42 85       	ldd	r20, Z+10	; 0x0a
    39dc:	53 85       	ldd	r21, Z+11	; 0x0b
    39de:	64 85       	ldd	r22, Z+12	; 0x0c
    39e0:	75 85       	ldd	r23, Z+13	; 0x0d
    39e2:	84 17       	cp	r24, r20
    39e4:	95 07       	cpc	r25, r21
    39e6:	a6 07       	cpc	r26, r22
    39e8:	b7 07       	cpc	r27, r23
    39ea:	a8 f4       	brcc	.+42     	; 0x3a16 <f_write+0x35c>
    39ec:	d1 01       	movw	r26, r2
    39ee:	11 96       	adiw	r26, 0x01	; 1
    39f0:	8c 91       	ld	r24, X
    39f2:	6d 81       	ldd	r22, Y+5	; 0x05
    39f4:	7e 81       	ldd	r23, Y+6	; 0x06
    39f6:	a5 01       	movw	r20, r10
    39f8:	94 01       	movw	r18, r8
    39fa:	01 e0       	ldi	r16, 0x01	; 1
    39fc:	0e 94 02 07 	call	0xe04	; 0xe04 <disk_read>
    3a00:	88 23       	and	r24, r24
    3a02:	49 f0       	breq	.+18     	; 0x3a16 <f_write+0x35c>
    3a04:	e8 84       	ldd	r14, Y+8	; 0x08
    3a06:	f9 84       	ldd	r15, Y+9	; 0x09
    3a08:	f7 01       	movw	r30, r14
    3a0a:	84 81       	ldd	r24, Z+4	; 0x04
    3a0c:	80 68       	ori	r24, 0x80	; 128
    3a0e:	84 83       	std	Z+4, r24	; 0x04
    3a10:	77 24       	eor	r7, r7
    3a12:	73 94       	inc	r7
    3a14:	85 c0       	rjmp	.+266    	; 0x3b20 <f_write+0x466>
    3a16:	a8 85       	ldd	r26, Y+8	; 0x08
    3a18:	b9 85       	ldd	r27, Y+9	; 0x09
    3a1a:	56 96       	adiw	r26, 0x16	; 22
    3a1c:	8d 92       	st	X+, r8
    3a1e:	9d 92       	st	X+, r9
    3a20:	ad 92       	st	X+, r10
    3a22:	bc 92       	st	X, r11
    3a24:	59 97       	sbiw	r26, 0x19	; 25
    3a26:	e8 85       	ldd	r30, Y+8	; 0x08
    3a28:	f9 85       	ldd	r31, Y+9	; 0x09
    3a2a:	46 81       	ldd	r20, Z+6	; 0x06
    3a2c:	57 81       	ldd	r21, Z+7	; 0x07
    3a2e:	60 85       	ldd	r22, Z+8	; 0x08
    3a30:	71 85       	ldd	r23, Z+9	; 0x09
    3a32:	db 01       	movw	r26, r22
    3a34:	ca 01       	movw	r24, r20
    3a36:	91 70       	andi	r25, 0x01	; 1
    3a38:	a0 70       	andi	r26, 0x00	; 0
    3a3a:	b0 70       	andi	r27, 0x00	; 0
    3a3c:	00 e0       	ldi	r16, 0x00	; 0
    3a3e:	12 e0       	ldi	r17, 0x02	; 2
    3a40:	20 e0       	ldi	r18, 0x00	; 0
    3a42:	30 e0       	ldi	r19, 0x00	; 0
    3a44:	08 1b       	sub	r16, r24
    3a46:	19 0b       	sbc	r17, r25
    3a48:	2a 0b       	sbc	r18, r26
    3a4a:	3b 0b       	sbc	r19, r27
    3a4c:	73 01       	movw	r14, r6
    3a4e:	62 01       	movw	r12, r4
    3a50:	04 15       	cp	r16, r4
    3a52:	15 05       	cpc	r17, r5
    3a54:	26 05       	cpc	r18, r6
    3a56:	37 05       	cpc	r19, r7
    3a58:	10 f4       	brcc	.+4      	; 0x3a5e <f_write+0x3a4>
    3a5a:	68 01       	movw	r12, r16
    3a5c:	79 01       	movw	r14, r18
    3a5e:	ca 01       	movw	r24, r20
    3a60:	91 70       	andi	r25, 0x01	; 1
    3a62:	80 96       	adiw	r24, 0x20	; 32
    3a64:	28 85       	ldd	r18, Y+8	; 0x08
    3a66:	39 85       	ldd	r19, Y+9	; 0x09
    3a68:	82 0f       	add	r24, r18
    3a6a:	93 1f       	adc	r25, r19
    3a6c:	69 81       	ldd	r22, Y+1	; 0x01
    3a6e:	7a 81       	ldd	r23, Y+2	; 0x02
    3a70:	a7 01       	movw	r20, r14
    3a72:	96 01       	movw	r18, r12
    3a74:	0e 94 7e 09 	call	0x12fc	; 0x12fc <mem_cpy>
    3a78:	a8 85       	ldd	r26, Y+8	; 0x08
    3a7a:	b9 85       	ldd	r27, Y+9	; 0x09
    3a7c:	14 96       	adiw	r26, 0x04	; 4
    3a7e:	8c 91       	ld	r24, X
    3a80:	14 97       	sbiw	r26, 0x04	; 4
    3a82:	80 64       	ori	r24, 0x40	; 64
    3a84:	14 96       	adiw	r26, 0x04	; 4
    3a86:	8c 93       	st	X, r24
    3a88:	e9 81       	ldd	r30, Y+1	; 0x01
    3a8a:	fa 81       	ldd	r31, Y+2	; 0x02
    3a8c:	ec 0d       	add	r30, r12
    3a8e:	fd 1d       	adc	r31, r13
    3a90:	fa 83       	std	Y+2, r31	; 0x02
    3a92:	e9 83       	std	Y+1, r30	; 0x01
    3a94:	e8 85       	ldd	r30, Y+8	; 0x08
    3a96:	f9 85       	ldd	r31, Y+9	; 0x09
    3a98:	86 81       	ldd	r24, Z+6	; 0x06
    3a9a:	97 81       	ldd	r25, Z+7	; 0x07
    3a9c:	a0 85       	ldd	r26, Z+8	; 0x08
    3a9e:	b1 85       	ldd	r27, Z+9	; 0x09
    3aa0:	8c 0d       	add	r24, r12
    3aa2:	9d 1d       	adc	r25, r13
    3aa4:	ae 1d       	adc	r26, r14
    3aa6:	bf 1d       	adc	r27, r15
    3aa8:	86 83       	std	Z+6, r24	; 0x06
    3aaa:	97 83       	std	Z+7, r25	; 0x07
    3aac:	a0 87       	std	Z+8, r26	; 0x08
    3aae:	b1 87       	std	Z+9, r27	; 0x09
    3ab0:	eb 81       	ldd	r30, Y+3	; 0x03
    3ab2:	fc 81       	ldd	r31, Y+4	; 0x04
    3ab4:	80 81       	ld	r24, Z
    3ab6:	91 81       	ldd	r25, Z+1	; 0x01
    3ab8:	a2 81       	ldd	r26, Z+2	; 0x02
    3aba:	b3 81       	ldd	r27, Z+3	; 0x03
    3abc:	8c 0d       	add	r24, r12
    3abe:	9d 1d       	adc	r25, r13
    3ac0:	ae 1d       	adc	r26, r14
    3ac2:	bf 1d       	adc	r27, r15
    3ac4:	80 83       	st	Z, r24
    3ac6:	91 83       	std	Z+1, r25	; 0x01
    3ac8:	a2 83       	std	Z+2, r26	; 0x02
    3aca:	b3 83       	std	Z+3, r27	; 0x03
    3acc:	4c 18       	sub	r4, r12
    3ace:	5d 08       	sbc	r5, r13
    3ad0:	6e 08       	sbc	r6, r14
    3ad2:	7f 08       	sbc	r7, r15
    3ad4:	41 14       	cp	r4, r1
    3ad6:	51 04       	cpc	r5, r1
    3ad8:	61 04       	cpc	r6, r1
    3ada:	71 04       	cpc	r7, r1
    3adc:	09 f0       	breq	.+2      	; 0x3ae0 <f_write+0x426>
    3ade:	3f ce       	rjmp	.-898    	; 0x375e <f_write+0xa4>
    3ae0:	7f 80       	ldd	r7, Y+7	; 0x07
    3ae2:	e8 84       	ldd	r14, Y+8	; 0x08
    3ae4:	f9 84       	ldd	r15, Y+9	; 0x09
    3ae6:	f7 01       	movw	r30, r14
    3ae8:	86 81       	ldd	r24, Z+6	; 0x06
    3aea:	97 81       	ldd	r25, Z+7	; 0x07
    3aec:	a0 85       	ldd	r26, Z+8	; 0x08
    3aee:	b1 85       	ldd	r27, Z+9	; 0x09
    3af0:	42 85       	ldd	r20, Z+10	; 0x0a
    3af2:	53 85       	ldd	r21, Z+11	; 0x0b
    3af4:	64 85       	ldd	r22, Z+12	; 0x0c
    3af6:	75 85       	ldd	r23, Z+13	; 0x0d
    3af8:	48 17       	cp	r20, r24
    3afa:	59 07       	cpc	r21, r25
    3afc:	6a 07       	cpc	r22, r26
    3afe:	7b 07       	cpc	r23, r27
    3b00:	20 f4       	brcc	.+8      	; 0x3b0a <f_write+0x450>
    3b02:	82 87       	std	Z+10, r24	; 0x0a
    3b04:	93 87       	std	Z+11, r25	; 0x0b
    3b06:	a4 87       	std	Z+12, r26	; 0x0c
    3b08:	b5 87       	std	Z+13, r27	; 0x0d
    3b0a:	d7 01       	movw	r26, r14
    3b0c:	14 96       	adiw	r26, 0x04	; 4
    3b0e:	8c 91       	ld	r24, X
    3b10:	14 97       	sbiw	r26, 0x04	; 4
    3b12:	80 62       	ori	r24, 0x20	; 32
    3b14:	14 96       	adiw	r26, 0x04	; 4
    3b16:	8c 93       	st	X, r24
    3b18:	14 97       	sbiw	r26, 0x04	; 4
    3b1a:	02 c0       	rjmp	.+4      	; 0x3b20 <f_write+0x466>
    3b1c:	07 e0       	ldi	r16, 0x07	; 7
    3b1e:	70 2e       	mov	r7, r16
    3b20:	87 2d       	mov	r24, r7
    3b22:	29 96       	adiw	r28, 0x09	; 9
    3b24:	0f b6       	in	r0, 0x3f	; 63
    3b26:	f8 94       	cli
    3b28:	de bf       	out	0x3e, r29	; 62
    3b2a:	0f be       	out	0x3f, r0	; 63
    3b2c:	cd bf       	out	0x3d, r28	; 61
    3b2e:	df 91       	pop	r29
    3b30:	cf 91       	pop	r28
    3b32:	1f 91       	pop	r17
    3b34:	0f 91       	pop	r16
    3b36:	ff 90       	pop	r15
    3b38:	ef 90       	pop	r14
    3b3a:	df 90       	pop	r13
    3b3c:	cf 90       	pop	r12
    3b3e:	bf 90       	pop	r11
    3b40:	af 90       	pop	r10
    3b42:	9f 90       	pop	r9
    3b44:	8f 90       	pop	r8
    3b46:	7f 90       	pop	r7
    3b48:	6f 90       	pop	r6
    3b4a:	5f 90       	pop	r5
    3b4c:	4f 90       	pop	r4
    3b4e:	3f 90       	pop	r3
    3b50:	2f 90       	pop	r2
    3b52:	08 95       	ret

00003b54 <f_sync>:
    3b54:	0f 93       	push	r16
    3b56:	1f 93       	push	r17
    3b58:	cf 93       	push	r28
    3b5a:	df 93       	push	r29
    3b5c:	ec 01       	movw	r28, r24
    3b5e:	0e 94 3a 0b 	call	0x1674	; 0x1674 <validate>
    3b62:	88 23       	and	r24, r24
    3b64:	09 f0       	breq	.+2      	; 0x3b68 <f_sync+0x14>
    3b66:	4a c0       	rjmp	.+148    	; 0x3bfc <f_sync+0xa8>
    3b68:	9c 81       	ldd	r25, Y+4	; 0x04
    3b6a:	95 ff       	sbrs	r25, 5
    3b6c:	47 c0       	rjmp	.+142    	; 0x3bfc <f_sync+0xa8>
    3b6e:	96 ff       	sbrs	r25, 6
    3b70:	12 c0       	rjmp	.+36     	; 0x3b96 <f_sync+0x42>
    3b72:	e8 81       	ld	r30, Y
    3b74:	f9 81       	ldd	r31, Y+1	; 0x01
    3b76:	be 01       	movw	r22, r28
    3b78:	60 5e       	subi	r22, 0xE0	; 224
    3b7a:	7f 4f       	sbci	r23, 0xFF	; 255
    3b7c:	2e 89       	ldd	r18, Y+22	; 0x16
    3b7e:	3f 89       	ldd	r19, Y+23	; 0x17
    3b80:	48 8d       	ldd	r20, Y+24	; 0x18
    3b82:	59 8d       	ldd	r21, Y+25	; 0x19
    3b84:	81 81       	ldd	r24, Z+1	; 0x01
    3b86:	01 e0       	ldi	r16, 0x01	; 1
    3b88:	0e 94 56 07 	call	0xeac	; 0xeac <disk_write>
    3b8c:	88 23       	and	r24, r24
    3b8e:	a9 f5       	brne	.+106    	; 0x3bfa <f_sync+0xa6>
    3b90:	8c 81       	ldd	r24, Y+4	; 0x04
    3b92:	8f 7b       	andi	r24, 0xBF	; 191
    3b94:	8c 83       	std	Y+4, r24	; 0x04
    3b96:	4a 8d       	ldd	r20, Y+26	; 0x1a
    3b98:	5b 8d       	ldd	r21, Y+27	; 0x1b
    3b9a:	6c 8d       	ldd	r22, Y+28	; 0x1c
    3b9c:	7d 8d       	ldd	r23, Y+29	; 0x1d
    3b9e:	88 81       	ld	r24, Y
    3ba0:	99 81       	ldd	r25, Y+1	; 0x01
    3ba2:	0e 94 19 0a 	call	0x1432	; 0x1432 <move_window>
    3ba6:	88 23       	and	r24, r24
    3ba8:	49 f5       	brne	.+82     	; 0x3bfc <f_sync+0xa8>
    3baa:	0e 8d       	ldd	r16, Y+30	; 0x1e
    3bac:	1f 8d       	ldd	r17, Y+31	; 0x1f
    3bae:	f8 01       	movw	r30, r16
    3bb0:	83 85       	ldd	r24, Z+11	; 0x0b
    3bb2:	80 62       	ori	r24, 0x20	; 32
    3bb4:	83 87       	std	Z+11, r24	; 0x0b
    3bb6:	8a 85       	ldd	r24, Y+10	; 0x0a
    3bb8:	84 8f       	std	Z+28, r24	; 0x1c
    3bba:	8b 85       	ldd	r24, Y+11	; 0x0b
    3bbc:	85 8f       	std	Z+29, r24	; 0x1d
    3bbe:	8c 85       	ldd	r24, Y+12	; 0x0c
    3bc0:	86 8f       	std	Z+30, r24	; 0x1e
    3bc2:	8d 85       	ldd	r24, Y+13	; 0x0d
    3bc4:	87 8f       	std	Z+31, r24	; 0x1f
    3bc6:	4e 85       	ldd	r20, Y+14	; 0x0e
    3bc8:	5f 85       	ldd	r21, Y+15	; 0x0f
    3bca:	68 89       	ldd	r22, Y+16	; 0x10
    3bcc:	79 89       	ldd	r23, Y+17	; 0x11
    3bce:	c8 01       	movw	r24, r16
    3bd0:	0e 94 90 09 	call	0x1320	; 0x1320 <st_clust>
    3bd4:	f8 01       	movw	r30, r16
    3bd6:	16 8a       	std	Z+22, r1	; 0x16
    3bd8:	17 8a       	std	Z+23, r1	; 0x17
    3bda:	10 8e       	std	Z+24, r1	; 0x18
    3bdc:	11 8e       	std	Z+25, r1	; 0x19
    3bde:	12 8a       	std	Z+18, r1	; 0x12
    3be0:	13 8a       	std	Z+19, r1	; 0x13
    3be2:	8c 81       	ldd	r24, Y+4	; 0x04
    3be4:	8f 7d       	andi	r24, 0xDF	; 223
    3be6:	8c 83       	std	Y+4, r24	; 0x04
    3be8:	e8 81       	ld	r30, Y
    3bea:	f9 81       	ldd	r31, Y+1	; 0x01
    3bec:	81 e0       	ldi	r24, 0x01	; 1
    3bee:	84 83       	std	Z+4, r24	; 0x04
    3bf0:	88 81       	ld	r24, Y
    3bf2:	99 81       	ldd	r25, Y+1	; 0x01
    3bf4:	0e 94 92 0a 	call	0x1524	; 0x1524 <sync>
    3bf8:	01 c0       	rjmp	.+2      	; 0x3bfc <f_sync+0xa8>
    3bfa:	81 e0       	ldi	r24, 0x01	; 1
    3bfc:	df 91       	pop	r29
    3bfe:	cf 91       	pop	r28
    3c00:	1f 91       	pop	r17
    3c02:	0f 91       	pop	r16
    3c04:	08 95       	ret

00003c06 <f_close>:
    3c06:	cf 93       	push	r28
    3c08:	df 93       	push	r29
    3c0a:	ec 01       	movw	r28, r24
    3c0c:	0e 94 aa 1d 	call	0x3b54	; 0x3b54 <f_sync>
    3c10:	88 23       	and	r24, r24
    3c12:	11 f4       	brne	.+4      	; 0x3c18 <f_close+0x12>
    3c14:	19 82       	std	Y+1, r1	; 0x01
    3c16:	18 82       	st	Y, r1
    3c18:	df 91       	pop	r29
    3c1a:	cf 91       	pop	r28
    3c1c:	08 95       	ret

00003c1e <f_chdrive>:
    3c1e:	88 23       	and	r24, r24
    3c20:	19 f4       	brne	.+6      	; 0x3c28 <f_chdrive+0xa>
    3c22:	10 92 81 02 	sts	0x0281, r1
    3c26:	08 95       	ret
    3c28:	8b e0       	ldi	r24, 0x0B	; 11
    3c2a:	08 95       	ret

00003c2c <f_chdir>:
    3c2c:	0f 93       	push	r16
    3c2e:	1f 93       	push	r17
    3c30:	cf 93       	push	r28
    3c32:	df 93       	push	r29
    3c34:	cd b7       	in	r28, 0x3d	; 61
    3c36:	de b7       	in	r29, 0x3e	; 62
    3c38:	a5 97       	sbiw	r28, 0x25	; 37
    3c3a:	0f b6       	in	r0, 0x3f	; 63
    3c3c:	f8 94       	cli
    3c3e:	de bf       	out	0x3e, r29	; 62
    3c40:	0f be       	out	0x3f, r0	; 63
    3c42:	cd bf       	out	0x3d, r28	; 61
    3c44:	9c a3       	lds	r25, 0x5c
    3c46:	8b a3       	lds	r24, 0x5b
    3c48:	ce 01       	movw	r24, r28
    3c4a:	83 96       	adiw	r24, 0x23	; 35
    3c4c:	be 01       	movw	r22, r28
    3c4e:	63 5f       	subi	r22, 0xF3	; 243
    3c50:	7f 4f       	sbci	r23, 0xFF	; 255
    3c52:	40 e0       	ldi	r20, 0x00	; 0
    3c54:	0e 94 f5 0b 	call	0x17ea	; 0x17ea <chk_mounted>
    3c58:	28 2f       	mov	r18, r24
    3c5a:	88 23       	and	r24, r24
    3c5c:	a1 f5       	brne	.+104    	; 0x3cc6 <f_chdir+0x9a>
    3c5e:	ce 01       	movw	r24, r28
    3c60:	01 96       	adiw	r24, 0x01	; 1
    3c62:	9a a3       	lds	r25, 0x5a
    3c64:	89 a3       	lds	r24, 0x59
    3c66:	6b a1       	lds	r22, 0x4b
    3c68:	7c a1       	lds	r23, 0x4c
    3c6a:	ce 01       	movw	r24, r28
    3c6c:	0d 96       	adiw	r24, 0x0d	; 13
    3c6e:	0e 94 37 15 	call	0x2a6e	; 0x2a6e <follow_path>
    3c72:	28 2f       	mov	r18, r24
    3c74:	88 23       	and	r24, r24
    3c76:	21 f5       	brne	.+72     	; 0x3cc0 <f_chdir+0x94>
    3c78:	6f 8d       	ldd	r22, Y+31	; 0x1f
    3c7a:	78 a1       	lds	r23, 0x48
    3c7c:	61 15       	cp	r22, r1
    3c7e:	71 05       	cpc	r23, r1
    3c80:	59 f4       	brne	.+22     	; 0x3c98 <f_chdir+0x6c>
    3c82:	ed 85       	ldd	r30, Y+13	; 0x0d
    3c84:	fe 85       	ldd	r31, Y+14	; 0x0e
    3c86:	8b 89       	ldd	r24, Y+19	; 0x13
    3c88:	9c 89       	ldd	r25, Y+20	; 0x14
    3c8a:	ad 89       	ldd	r26, Y+21	; 0x15
    3c8c:	be 89       	ldd	r27, Y+22	; 0x16
    3c8e:	86 8b       	std	Z+22, r24	; 0x16
    3c90:	97 8b       	std	Z+23, r25	; 0x17
    3c92:	a0 8f       	std	Z+24, r26	; 0x18
    3c94:	b1 8f       	std	Z+25, r27	; 0x19
    3c96:	17 c0       	rjmp	.+46     	; 0x3cc6 <f_chdir+0x9a>
    3c98:	fb 01       	movw	r30, r22
    3c9a:	83 85       	ldd	r24, Z+11	; 0x0b
    3c9c:	84 ff       	sbrs	r24, 4
    3c9e:	12 c0       	rjmp	.+36     	; 0x3cc4 <f_chdir+0x98>
    3ca0:	0d 85       	ldd	r16, Y+13	; 0x0d
    3ca2:	1e 85       	ldd	r17, Y+14	; 0x0e
    3ca4:	f8 01       	movw	r30, r16
    3ca6:	80 81       	ld	r24, Z
    3ca8:	2d a3       	lds	r18, 0x5d
    3caa:	0e 94 19 0b 	call	0x1632	; 0x1632 <ld_clust.isra.0>
    3cae:	dc 01       	movw	r26, r24
    3cb0:	cb 01       	movw	r24, r22
    3cb2:	f8 01       	movw	r30, r16
    3cb4:	86 8b       	std	Z+22, r24	; 0x16
    3cb6:	97 8b       	std	Z+23, r25	; 0x17
    3cb8:	a0 8f       	std	Z+24, r26	; 0x18
    3cba:	b1 8f       	std	Z+25, r27	; 0x19
    3cbc:	2d a1       	lds	r18, 0x4d
    3cbe:	03 c0       	rjmp	.+6      	; 0x3cc6 <f_chdir+0x9a>
    3cc0:	84 30       	cpi	r24, 0x04	; 4
    3cc2:	09 f4       	brne	.+2      	; 0x3cc6 <f_chdir+0x9a>
    3cc4:	25 e0       	ldi	r18, 0x05	; 5
    3cc6:	82 2f       	mov	r24, r18
    3cc8:	a5 96       	adiw	r28, 0x25	; 37
    3cca:	0f b6       	in	r0, 0x3f	; 63
    3ccc:	f8 94       	cli
    3cce:	de bf       	out	0x3e, r29	; 62
    3cd0:	0f be       	out	0x3f, r0	; 63
    3cd2:	cd bf       	out	0x3d, r28	; 61
    3cd4:	df 91       	pop	r29
    3cd6:	cf 91       	pop	r28
    3cd8:	1f 91       	pop	r17
    3cda:	0f 91       	pop	r16
    3cdc:	08 95       	ret

00003cde <f_lseek>:
    3cde:	2f 92       	push	r2
    3ce0:	3f 92       	push	r3
    3ce2:	4f 92       	push	r4
    3ce4:	5f 92       	push	r5
    3ce6:	6f 92       	push	r6
    3ce8:	7f 92       	push	r7
    3cea:	8f 92       	push	r8
    3cec:	9f 92       	push	r9
    3cee:	af 92       	push	r10
    3cf0:	bf 92       	push	r11
    3cf2:	cf 92       	push	r12
    3cf4:	df 92       	push	r13
    3cf6:	ef 92       	push	r14
    3cf8:	ff 92       	push	r15
    3cfa:	0f 93       	push	r16
    3cfc:	1f 93       	push	r17
    3cfe:	cf 93       	push	r28
    3d00:	df 93       	push	r29
    3d02:	00 d0       	rcall	.+0      	; 0x3d04 <f_lseek+0x26>
    3d04:	00 d0       	rcall	.+0      	; 0x3d06 <f_lseek+0x28>
    3d06:	00 d0       	rcall	.+0      	; 0x3d08 <f_lseek+0x2a>
    3d08:	cd b7       	in	r28, 0x3d	; 61
    3d0a:	de b7       	in	r29, 0x3e	; 62
    3d0c:	9e 83       	std	Y+6, r25	; 0x06
    3d0e:	8d 83       	std	Y+5, r24	; 0x05
    3d10:	6a 01       	movw	r12, r20
    3d12:	7b 01       	movw	r14, r22
    3d14:	0e 94 3a 0b 	call	0x1674	; 0x1674 <validate>
    3d18:	18 2f       	mov	r17, r24
    3d1a:	88 23       	and	r24, r24
    3d1c:	09 f0       	breq	.+2      	; 0x3d20 <f_lseek+0x42>
    3d1e:	c1 c1       	rjmp	.+898    	; 0x40a2 <f_lseek+0x3c4>
    3d20:	ad 81       	ldd	r26, Y+5	; 0x05
    3d22:	be 81       	ldd	r27, Y+6	; 0x06
    3d24:	14 96       	adiw	r26, 0x04	; 4
    3d26:	2c 91       	ld	r18, X
    3d28:	14 97       	sbiw	r26, 0x04	; 4
    3d2a:	27 fd       	sbrc	r18, 7
    3d2c:	b9 c1       	rjmp	.+882    	; 0x40a0 <f_lseek+0x3c2>
    3d2e:	1a 96       	adiw	r26, 0x0a	; 10
    3d30:	8d 91       	ld	r24, X+
    3d32:	9d 91       	ld	r25, X+
    3d34:	0d 90       	ld	r0, X+
    3d36:	bc 91       	ld	r27, X
    3d38:	a0 2d       	mov	r26, r0
    3d3a:	8c 15       	cp	r24, r12
    3d3c:	9d 05       	cpc	r25, r13
    3d3e:	ae 05       	cpc	r26, r14
    3d40:	bf 05       	cpc	r27, r15
    3d42:	20 f4       	brcc	.+8      	; 0x3d4c <f_lseek+0x6e>
    3d44:	21 fd       	sbrc	r18, 1
    3d46:	02 c0       	rjmp	.+4      	; 0x3d4c <f_lseek+0x6e>
    3d48:	6c 01       	movw	r12, r24
    3d4a:	7d 01       	movw	r14, r26
    3d4c:	ed 81       	ldd	r30, Y+5	; 0x05
    3d4e:	fe 81       	ldd	r31, Y+6	; 0x06
    3d50:	86 81       	ldd	r24, Z+6	; 0x06
    3d52:	97 81       	ldd	r25, Z+7	; 0x07
    3d54:	a0 85       	ldd	r26, Z+8	; 0x08
    3d56:	b1 85       	ldd	r27, Z+9	; 0x09
    3d58:	16 82       	std	Z+6, r1	; 0x06
    3d5a:	17 82       	std	Z+7, r1	; 0x07
    3d5c:	10 86       	std	Z+8, r1	; 0x08
    3d5e:	11 86       	std	Z+9, r1	; 0x09
    3d60:	c1 14       	cp	r12, r1
    3d62:	d1 04       	cpc	r13, r1
    3d64:	e1 04       	cpc	r14, r1
    3d66:	f1 04       	cpc	r15, r1
    3d68:	09 f4       	brne	.+2      	; 0x3d6c <f_lseek+0x8e>
    3d6a:	2c c1       	rjmp	.+600    	; 0x3fc4 <f_lseek+0x2e6>
    3d6c:	20 80       	ld	r2, Z
    3d6e:	31 80       	ldd	r3, Z+1	; 0x01
    3d70:	f1 01       	movw	r30, r2
    3d72:	82 80       	ldd	r8, Z+2	; 0x02
    3d74:	99 24       	eor	r9, r9
    3d76:	aa 24       	eor	r10, r10
    3d78:	bb 24       	eor	r11, r11
    3d7a:	29 e0       	ldi	r18, 0x09	; 9
    3d7c:	88 0c       	add	r8, r8
    3d7e:	99 1c       	adc	r9, r9
    3d80:	aa 1c       	adc	r10, r10
    3d82:	bb 1c       	adc	r11, r11
    3d84:	2a 95       	dec	r18
    3d86:	d1 f7       	brne	.-12     	; 0x3d7c <f_lseek+0x9e>
    3d88:	00 97       	sbiw	r24, 0x00	; 0
    3d8a:	a1 05       	cpc	r26, r1
    3d8c:	b1 05       	cpc	r27, r1
    3d8e:	f1 f1       	breq	.+124    	; 0x3e0c <f_lseek+0x12e>
    3d90:	2c 01       	movw	r4, r24
    3d92:	3d 01       	movw	r6, r26
    3d94:	08 94       	sec
    3d96:	41 08       	sbc	r4, r1
    3d98:	51 08       	sbc	r5, r1
    3d9a:	61 08       	sbc	r6, r1
    3d9c:	71 08       	sbc	r7, r1
    3d9e:	c7 01       	movw	r24, r14
    3da0:	b6 01       	movw	r22, r12
    3da2:	61 50       	subi	r22, 0x01	; 1
    3da4:	70 40       	sbci	r23, 0x00	; 0
    3da6:	80 40       	sbci	r24, 0x00	; 0
    3da8:	90 40       	sbci	r25, 0x00	; 0
    3daa:	a5 01       	movw	r20, r10
    3dac:	94 01       	movw	r18, r8
    3dae:	0e 94 7b 37 	call	0x6ef6	; 0x6ef6 <__udivmodsi4>
    3db2:	29 83       	std	Y+1, r18	; 0x01
    3db4:	3a 83       	std	Y+2, r19	; 0x02
    3db6:	4b 83       	std	Y+3, r20	; 0x03
    3db8:	5c 83       	std	Y+4, r21	; 0x04
    3dba:	c3 01       	movw	r24, r6
    3dbc:	b2 01       	movw	r22, r4
    3dbe:	a5 01       	movw	r20, r10
    3dc0:	94 01       	movw	r18, r8
    3dc2:	0e 94 7b 37 	call	0x6ef6	; 0x6ef6 <__udivmodsi4>
    3dc6:	89 81       	ldd	r24, Y+1	; 0x01
    3dc8:	9a 81       	ldd	r25, Y+2	; 0x02
    3dca:	ab 81       	ldd	r26, Y+3	; 0x03
    3dcc:	bc 81       	ldd	r27, Y+4	; 0x04
    3dce:	82 17       	cp	r24, r18
    3dd0:	93 07       	cpc	r25, r19
    3dd2:	a4 07       	cpc	r26, r20
    3dd4:	b5 07       	cpc	r27, r21
    3dd6:	d0 f0       	brcs	.+52     	; 0x3e0c <f_lseek+0x12e>
    3dd8:	88 27       	eor	r24, r24
    3dda:	99 27       	eor	r25, r25
    3ddc:	dc 01       	movw	r26, r24
    3dde:	88 19       	sub	r24, r8
    3de0:	99 09       	sbc	r25, r9
    3de2:	aa 09       	sbc	r26, r10
    3de4:	bb 09       	sbc	r27, r11
    3de6:	84 21       	and	r24, r4
    3de8:	95 21       	and	r25, r5
    3dea:	a6 21       	and	r26, r6
    3dec:	b7 21       	and	r27, r7
    3dee:	ed 81       	ldd	r30, Y+5	; 0x05
    3df0:	fe 81       	ldd	r31, Y+6	; 0x06
    3df2:	86 83       	std	Z+6, r24	; 0x06
    3df4:	97 83       	std	Z+7, r25	; 0x07
    3df6:	a0 87       	std	Z+8, r26	; 0x08
    3df8:	b1 87       	std	Z+9, r27	; 0x09
    3dfa:	c8 1a       	sub	r12, r24
    3dfc:	d9 0a       	sbc	r13, r25
    3dfe:	ea 0a       	sbc	r14, r26
    3e00:	fb 0a       	sbc	r15, r27
    3e02:	42 89       	ldd	r20, Z+18	; 0x12
    3e04:	53 89       	ldd	r21, Z+19	; 0x13
    3e06:	64 89       	ldd	r22, Z+20	; 0x14
    3e08:	75 89       	ldd	r23, Z+21	; 0x15
    3e0a:	36 c0       	rjmp	.+108    	; 0x3e78 <f_lseek+0x19a>
    3e0c:	ad 81       	ldd	r26, Y+5	; 0x05
    3e0e:	be 81       	ldd	r27, Y+6	; 0x06
    3e10:	1e 96       	adiw	r26, 0x0e	; 14
    3e12:	4d 91       	ld	r20, X+
    3e14:	5d 91       	ld	r21, X+
    3e16:	6d 91       	ld	r22, X+
    3e18:	7c 91       	ld	r23, X
    3e1a:	51 97       	sbiw	r26, 0x11	; 17
    3e1c:	41 15       	cp	r20, r1
    3e1e:	51 05       	cpc	r21, r1
    3e20:	61 05       	cpc	r22, r1
    3e22:	71 05       	cpc	r23, r1
    3e24:	09 f5       	brne	.+66     	; 0x3e68 <f_lseek+0x18a>
    3e26:	c1 01       	movw	r24, r2
    3e28:	40 e0       	ldi	r20, 0x00	; 0
    3e2a:	50 e0       	ldi	r21, 0x00	; 0
    3e2c:	ba 01       	movw	r22, r20
    3e2e:	0e 94 29 13 	call	0x2652	; 0x2652 <create_chain>
    3e32:	ab 01       	movw	r20, r22
    3e34:	bc 01       	movw	r22, r24
    3e36:	41 30       	cpi	r20, 0x01	; 1
    3e38:	51 05       	cpc	r21, r1
    3e3a:	61 05       	cpc	r22, r1
    3e3c:	71 05       	cpc	r23, r1
    3e3e:	19 f4       	brne	.+6      	; 0x3e46 <f_lseek+0x168>
    3e40:	ed 81       	ldd	r30, Y+5	; 0x05
    3e42:	fe 81       	ldd	r31, Y+6	; 0x06
    3e44:	5d c0       	rjmp	.+186    	; 0x3f00 <f_lseek+0x222>
    3e46:	4f 3f       	cpi	r20, 0xFF	; 255
    3e48:	ff ef       	ldi	r31, 0xFF	; 255
    3e4a:	5f 07       	cpc	r21, r31
    3e4c:	ff ef       	ldi	r31, 0xFF	; 255
    3e4e:	6f 07       	cpc	r22, r31
    3e50:	ff ef       	ldi	r31, 0xFF	; 255
    3e52:	7f 07       	cpc	r23, r31
    3e54:	19 f4       	brne	.+6      	; 0x3e5c <f_lseek+0x17e>
    3e56:	ad 81       	ldd	r26, Y+5	; 0x05
    3e58:	be 81       	ldd	r27, Y+6	; 0x06
    3e5a:	36 c0       	rjmp	.+108    	; 0x3ec8 <f_lseek+0x1ea>
    3e5c:	ed 81       	ldd	r30, Y+5	; 0x05
    3e5e:	fe 81       	ldd	r31, Y+6	; 0x06
    3e60:	46 87       	std	Z+14, r20	; 0x0e
    3e62:	57 87       	std	Z+15, r21	; 0x0f
    3e64:	60 8b       	std	Z+16, r22	; 0x10
    3e66:	71 8b       	std	Z+17, r23	; 0x11
    3e68:	ad 81       	ldd	r26, Y+5	; 0x05
    3e6a:	be 81       	ldd	r27, Y+6	; 0x06
    3e6c:	52 96       	adiw	r26, 0x12	; 18
    3e6e:	4d 93       	st	X+, r20
    3e70:	5d 93       	st	X+, r21
    3e72:	6d 93       	st	X+, r22
    3e74:	7c 93       	st	X, r23
    3e76:	55 97       	sbiw	r26, 0x15	; 21
    3e78:	41 15       	cp	r20, r1
    3e7a:	51 05       	cpc	r21, r1
    3e7c:	61 05       	cpc	r22, r1
    3e7e:	71 05       	cpc	r23, r1
    3e80:	09 f4       	brne	.+2      	; 0x3e84 <f_lseek+0x1a6>
    3e82:	a0 c0       	rjmp	.+320    	; 0x3fc4 <f_lseek+0x2e6>
    3e84:	4d 80       	ldd	r4, Y+5	; 0x05
    3e86:	5e 80       	ldd	r5, Y+6	; 0x06
    3e88:	59 c0       	rjmp	.+178    	; 0x3f3c <f_lseek+0x25e>
    3e8a:	f2 01       	movw	r30, r4
    3e8c:	24 81       	ldd	r18, Z+4	; 0x04
    3e8e:	80 81       	ld	r24, Z
    3e90:	91 81       	ldd	r25, Z+1	; 0x01
    3e92:	21 ff       	sbrs	r18, 1
    3e94:	0a c0       	rjmp	.+20     	; 0x3eaa <f_lseek+0x1cc>
    3e96:	0e 94 29 13 	call	0x2652	; 0x2652 <create_chain>
    3e9a:	ab 01       	movw	r20, r22
    3e9c:	bc 01       	movw	r22, r24
    3e9e:	41 15       	cp	r20, r1
    3ea0:	51 05       	cpc	r21, r1
    3ea2:	61 05       	cpc	r22, r1
    3ea4:	71 05       	cpc	r23, r1
    3ea6:	29 f4       	brne	.+10     	; 0x3eb2 <f_lseek+0x1d4>
    3ea8:	52 c0       	rjmp	.+164    	; 0x3f4e <f_lseek+0x270>
    3eaa:	0e 94 6a 10 	call	0x20d4	; 0x20d4 <get_fat>
    3eae:	ab 01       	movw	r20, r22
    3eb0:	bc 01       	movw	r22, r24
    3eb2:	4f 3f       	cpi	r20, 0xFF	; 255
    3eb4:	ff ef       	ldi	r31, 0xFF	; 255
    3eb6:	5f 07       	cpc	r21, r31
    3eb8:	ff ef       	ldi	r31, 0xFF	; 255
    3eba:	6f 07       	cpc	r22, r31
    3ebc:	ff ef       	ldi	r31, 0xFF	; 255
    3ebe:	7f 07       	cpc	r23, r31
    3ec0:	59 f4       	brne	.+22     	; 0x3ed8 <f_lseek+0x1fa>
    3ec2:	5e 82       	std	Y+6, r5	; 0x06
    3ec4:	4d 82       	std	Y+5, r4	; 0x05
    3ec6:	d2 01       	movw	r26, r4
    3ec8:	14 96       	adiw	r26, 0x04	; 4
    3eca:	8c 91       	ld	r24, X
    3ecc:	14 97       	sbiw	r26, 0x04	; 4
    3ece:	80 68       	ori	r24, 0x80	; 128
    3ed0:	14 96       	adiw	r26, 0x04	; 4
    3ed2:	8c 93       	st	X, r24
    3ed4:	14 97       	sbiw	r26, 0x04	; 4
    3ed6:	c3 c0       	rjmp	.+390    	; 0x405e <f_lseek+0x380>
    3ed8:	42 30       	cpi	r20, 0x02	; 2
    3eda:	51 05       	cpc	r21, r1
    3edc:	61 05       	cpc	r22, r1
    3ede:	71 05       	cpc	r23, r1
    3ee0:	60 f0       	brcs	.+24     	; 0x3efa <f_lseek+0x21c>
    3ee2:	d2 01       	movw	r26, r4
    3ee4:	ed 91       	ld	r30, X+
    3ee6:	fc 91       	ld	r31, X
    3ee8:	82 8d       	ldd	r24, Z+26	; 0x1a
    3eea:	93 8d       	ldd	r25, Z+27	; 0x1b
    3eec:	a4 8d       	ldd	r26, Z+28	; 0x1c
    3eee:	b5 8d       	ldd	r27, Z+29	; 0x1d
    3ef0:	48 17       	cp	r20, r24
    3ef2:	59 07       	cpc	r21, r25
    3ef4:	6a 07       	cpc	r22, r26
    3ef6:	7b 07       	cpc	r23, r27
    3ef8:	38 f0       	brcs	.+14     	; 0x3f08 <f_lseek+0x22a>
    3efa:	5e 82       	std	Y+6, r5	; 0x06
    3efc:	4d 82       	std	Y+5, r4	; 0x05
    3efe:	f2 01       	movw	r30, r4
    3f00:	84 81       	ldd	r24, Z+4	; 0x04
    3f02:	80 68       	ori	r24, 0x80	; 128
    3f04:	84 83       	std	Z+4, r24	; 0x04
    3f06:	cc c0       	rjmp	.+408    	; 0x40a0 <f_lseek+0x3c2>
    3f08:	d2 01       	movw	r26, r4
    3f0a:	52 96       	adiw	r26, 0x12	; 18
    3f0c:	4d 93       	st	X+, r20
    3f0e:	5d 93       	st	X+, r21
    3f10:	6d 93       	st	X+, r22
    3f12:	7c 93       	st	X, r23
    3f14:	55 97       	sbiw	r26, 0x15	; 21
    3f16:	16 96       	adiw	r26, 0x06	; 6
    3f18:	8d 91       	ld	r24, X+
    3f1a:	9d 91       	ld	r25, X+
    3f1c:	0d 90       	ld	r0, X+
    3f1e:	bc 91       	ld	r27, X
    3f20:	a0 2d       	mov	r26, r0
    3f22:	88 0d       	add	r24, r8
    3f24:	99 1d       	adc	r25, r9
    3f26:	aa 1d       	adc	r26, r10
    3f28:	bb 1d       	adc	r27, r11
    3f2a:	f2 01       	movw	r30, r4
    3f2c:	86 83       	std	Z+6, r24	; 0x06
    3f2e:	97 83       	std	Z+7, r25	; 0x07
    3f30:	a0 87       	std	Z+8, r26	; 0x08
    3f32:	b1 87       	std	Z+9, r27	; 0x09
    3f34:	c8 18       	sub	r12, r8
    3f36:	d9 08       	sbc	r13, r9
    3f38:	ea 08       	sbc	r14, r10
    3f3a:	fb 08       	sbc	r15, r11
    3f3c:	8c 14       	cp	r8, r12
    3f3e:	9d 04       	cpc	r9, r13
    3f40:	ae 04       	cpc	r10, r14
    3f42:	bf 04       	cpc	r11, r15
    3f44:	08 f4       	brcc	.+2      	; 0x3f48 <f_lseek+0x26a>
    3f46:	a1 cf       	rjmp	.-190    	; 0x3e8a <f_lseek+0x1ac>
    3f48:	5e 82       	std	Y+6, r5	; 0x06
    3f4a:	4d 82       	std	Y+5, r4	; 0x05
    3f4c:	04 c0       	rjmp	.+8      	; 0x3f56 <f_lseek+0x278>
    3f4e:	5e 82       	std	Y+6, r5	; 0x06
    3f50:	4d 82       	std	Y+5, r4	; 0x05
    3f52:	75 01       	movw	r14, r10
    3f54:	64 01       	movw	r12, r8
    3f56:	ed 81       	ldd	r30, Y+5	; 0x05
    3f58:	fe 81       	ldd	r31, Y+6	; 0x06
    3f5a:	86 81       	ldd	r24, Z+6	; 0x06
    3f5c:	97 81       	ldd	r25, Z+7	; 0x07
    3f5e:	a0 85       	ldd	r26, Z+8	; 0x08
    3f60:	b1 85       	ldd	r27, Z+9	; 0x09
    3f62:	8c 0d       	add	r24, r12
    3f64:	9d 1d       	adc	r25, r13
    3f66:	ae 1d       	adc	r26, r14
    3f68:	bf 1d       	adc	r27, r15
    3f6a:	86 83       	std	Z+6, r24	; 0x06
    3f6c:	97 83       	std	Z+7, r25	; 0x07
    3f6e:	a0 87       	std	Z+8, r26	; 0x08
    3f70:	b1 87       	std	Z+9, r27	; 0x09
    3f72:	d7 01       	movw	r26, r14
    3f74:	c6 01       	movw	r24, r12
    3f76:	91 70       	andi	r25, 0x01	; 1
    3f78:	a0 70       	andi	r26, 0x00	; 0
    3f7a:	b0 70       	andi	r27, 0x00	; 0
    3f7c:	00 97       	sbiw	r24, 0x00	; 0
    3f7e:	a1 05       	cpc	r26, r1
    3f80:	b1 05       	cpc	r27, r1
    3f82:	01 f1       	breq	.+64     	; 0x3fc4 <f_lseek+0x2e6>
    3f84:	80 81       	ld	r24, Z
    3f86:	91 81       	ldd	r25, Z+1	; 0x01
    3f88:	0e 94 36 10 	call	0x206c	; 0x206c <clust2sect>
    3f8c:	dc 01       	movw	r26, r24
    3f8e:	cb 01       	movw	r24, r22
    3f90:	00 97       	sbiw	r24, 0x00	; 0
    3f92:	a1 05       	cpc	r26, r1
    3f94:	b1 05       	cpc	r27, r1
    3f96:	51 f4       	brne	.+20     	; 0x3fac <f_lseek+0x2ce>
    3f98:	ad 81       	ldd	r26, Y+5	; 0x05
    3f9a:	be 81       	ldd	r27, Y+6	; 0x06
    3f9c:	14 96       	adiw	r26, 0x04	; 4
    3f9e:	8c 91       	ld	r24, X
    3fa0:	14 97       	sbiw	r26, 0x04	; 4
    3fa2:	80 68       	ori	r24, 0x80	; 128
    3fa4:	14 96       	adiw	r26, 0x04	; 4
    3fa6:	8c 93       	st	X, r24
    3fa8:	14 97       	sbiw	r26, 0x04	; 4
    3faa:	7a c0       	rjmp	.+244    	; 0x40a0 <f_lseek+0x3c2>
    3fac:	09 e0       	ldi	r16, 0x09	; 9
    3fae:	f6 94       	lsr	r15
    3fb0:	e7 94       	ror	r14
    3fb2:	d7 94       	ror	r13
    3fb4:	c7 94       	ror	r12
    3fb6:	0a 95       	dec	r16
    3fb8:	d1 f7       	brne	.-12     	; 0x3fae <f_lseek+0x2d0>
    3fba:	c8 0e       	add	r12, r24
    3fbc:	d9 1e       	adc	r13, r25
    3fbe:	ea 1e       	adc	r14, r26
    3fc0:	fb 1e       	adc	r15, r27
    3fc2:	03 c0       	rjmp	.+6      	; 0x3fca <f_lseek+0x2ec>
    3fc4:	cc 24       	eor	r12, r12
    3fc6:	dd 24       	eor	r13, r13
    3fc8:	76 01       	movw	r14, r12
    3fca:	ed 81       	ldd	r30, Y+5	; 0x05
    3fcc:	fe 81       	ldd	r31, Y+6	; 0x06
    3fce:	86 81       	ldd	r24, Z+6	; 0x06
    3fd0:	97 81       	ldd	r25, Z+7	; 0x07
    3fd2:	a0 85       	ldd	r26, Z+8	; 0x08
    3fd4:	b1 85       	ldd	r27, Z+9	; 0x09
    3fd6:	91 70       	andi	r25, 0x01	; 1
    3fd8:	a0 70       	andi	r26, 0x00	; 0
    3fda:	b0 70       	andi	r27, 0x00	; 0
    3fdc:	00 97       	sbiw	r24, 0x00	; 0
    3fde:	a1 05       	cpc	r26, r1
    3fe0:	b1 05       	cpc	r27, r1
    3fe2:	09 f4       	brne	.+2      	; 0x3fe6 <f_lseek+0x308>
    3fe4:	46 c0       	rjmp	.+140    	; 0x4072 <f_lseek+0x394>
    3fe6:	26 89       	ldd	r18, Z+22	; 0x16
    3fe8:	37 89       	ldd	r19, Z+23	; 0x17
    3fea:	40 8d       	ldd	r20, Z+24	; 0x18
    3fec:	51 8d       	ldd	r21, Z+25	; 0x19
    3fee:	c2 16       	cp	r12, r18
    3ff0:	d3 06       	cpc	r13, r19
    3ff2:	e4 06       	cpc	r14, r20
    3ff4:	f5 06       	cpc	r15, r21
    3ff6:	e9 f1       	breq	.+122    	; 0x4072 <f_lseek+0x394>
    3ff8:	84 81       	ldd	r24, Z+4	; 0x04
    3ffa:	86 ff       	sbrs	r24, 6
    3ffc:	1b c0       	rjmp	.+54     	; 0x4034 <f_lseek+0x356>
    3ffe:	01 90       	ld	r0, Z+
    4000:	f0 81       	ld	r31, Z
    4002:	e0 2d       	mov	r30, r0
    4004:	6d 81       	ldd	r22, Y+5	; 0x05
    4006:	7e 81       	ldd	r23, Y+6	; 0x06
    4008:	60 5e       	subi	r22, 0xE0	; 224
    400a:	7f 4f       	sbci	r23, 0xFF	; 255
    400c:	81 81       	ldd	r24, Z+1	; 0x01
    400e:	01 e0       	ldi	r16, 0x01	; 1
    4010:	0e 94 56 07 	call	0xeac	; 0xeac <disk_write>
    4014:	ad 81       	ldd	r26, Y+5	; 0x05
    4016:	be 81       	ldd	r27, Y+6	; 0x06
    4018:	14 96       	adiw	r26, 0x04	; 4
    401a:	9c 91       	ld	r25, X
    401c:	14 97       	sbiw	r26, 0x04	; 4
    401e:	88 23       	and	r24, r24
    4020:	29 f0       	breq	.+10     	; 0x402c <f_lseek+0x34e>
    4022:	90 68       	ori	r25, 0x80	; 128
    4024:	14 96       	adiw	r26, 0x04	; 4
    4026:	9c 93       	st	X, r25
    4028:	14 97       	sbiw	r26, 0x04	; 4
    402a:	19 c0       	rjmp	.+50     	; 0x405e <f_lseek+0x380>
    402c:	9f 7b       	andi	r25, 0xBF	; 191
    402e:	ed 81       	ldd	r30, Y+5	; 0x05
    4030:	fe 81       	ldd	r31, Y+6	; 0x06
    4032:	94 83       	std	Z+4, r25	; 0x04
    4034:	ad 81       	ldd	r26, Y+5	; 0x05
    4036:	be 81       	ldd	r27, Y+6	; 0x06
    4038:	ed 91       	ld	r30, X+
    403a:	fc 91       	ld	r31, X
    403c:	11 97       	sbiw	r26, 0x01	; 1
    403e:	bd 01       	movw	r22, r26
    4040:	60 5e       	subi	r22, 0xE0	; 224
    4042:	7f 4f       	sbci	r23, 0xFF	; 255
    4044:	81 81       	ldd	r24, Z+1	; 0x01
    4046:	a7 01       	movw	r20, r14
    4048:	96 01       	movw	r18, r12
    404a:	01 e0       	ldi	r16, 0x01	; 1
    404c:	0e 94 02 07 	call	0xe04	; 0xe04 <disk_read>
    4050:	88 23       	and	r24, r24
    4052:	39 f0       	breq	.+14     	; 0x4062 <f_lseek+0x384>
    4054:	ed 81       	ldd	r30, Y+5	; 0x05
    4056:	fe 81       	ldd	r31, Y+6	; 0x06
    4058:	84 81       	ldd	r24, Z+4	; 0x04
    405a:	80 68       	ori	r24, 0x80	; 128
    405c:	84 83       	std	Z+4, r24	; 0x04
    405e:	11 e0       	ldi	r17, 0x01	; 1
    4060:	20 c0       	rjmp	.+64     	; 0x40a2 <f_lseek+0x3c4>
    4062:	ad 81       	ldd	r26, Y+5	; 0x05
    4064:	be 81       	ldd	r27, Y+6	; 0x06
    4066:	56 96       	adiw	r26, 0x16	; 22
    4068:	cd 92       	st	X+, r12
    406a:	dd 92       	st	X+, r13
    406c:	ed 92       	st	X+, r14
    406e:	fc 92       	st	X, r15
    4070:	59 97       	sbiw	r26, 0x19	; 25
    4072:	ed 81       	ldd	r30, Y+5	; 0x05
    4074:	fe 81       	ldd	r31, Y+6	; 0x06
    4076:	86 81       	ldd	r24, Z+6	; 0x06
    4078:	97 81       	ldd	r25, Z+7	; 0x07
    407a:	a0 85       	ldd	r26, Z+8	; 0x08
    407c:	b1 85       	ldd	r27, Z+9	; 0x09
    407e:	42 85       	ldd	r20, Z+10	; 0x0a
    4080:	53 85       	ldd	r21, Z+11	; 0x0b
    4082:	64 85       	ldd	r22, Z+12	; 0x0c
    4084:	75 85       	ldd	r23, Z+13	; 0x0d
    4086:	48 17       	cp	r20, r24
    4088:	59 07       	cpc	r21, r25
    408a:	6a 07       	cpc	r22, r26
    408c:	7b 07       	cpc	r23, r27
    408e:	48 f4       	brcc	.+18     	; 0x40a2 <f_lseek+0x3c4>
    4090:	82 87       	std	Z+10, r24	; 0x0a
    4092:	93 87       	std	Z+11, r25	; 0x0b
    4094:	a4 87       	std	Z+12, r26	; 0x0c
    4096:	b5 87       	std	Z+13, r27	; 0x0d
    4098:	84 81       	ldd	r24, Z+4	; 0x04
    409a:	80 62       	ori	r24, 0x20	; 32
    409c:	84 83       	std	Z+4, r24	; 0x04
    409e:	01 c0       	rjmp	.+2      	; 0x40a2 <f_lseek+0x3c4>
    40a0:	12 e0       	ldi	r17, 0x02	; 2
    40a2:	81 2f       	mov	r24, r17
    40a4:	26 96       	adiw	r28, 0x06	; 6
    40a6:	0f b6       	in	r0, 0x3f	; 63
    40a8:	f8 94       	cli
    40aa:	de bf       	out	0x3e, r29	; 62
    40ac:	0f be       	out	0x3f, r0	; 63
    40ae:	cd bf       	out	0x3d, r28	; 61
    40b0:	df 91       	pop	r29
    40b2:	cf 91       	pop	r28
    40b4:	1f 91       	pop	r17
    40b6:	0f 91       	pop	r16
    40b8:	ff 90       	pop	r15
    40ba:	ef 90       	pop	r14
    40bc:	df 90       	pop	r13
    40be:	cf 90       	pop	r12
    40c0:	bf 90       	pop	r11
    40c2:	af 90       	pop	r10
    40c4:	9f 90       	pop	r9
    40c6:	8f 90       	pop	r8
    40c8:	7f 90       	pop	r7
    40ca:	6f 90       	pop	r6
    40cc:	5f 90       	pop	r5
    40ce:	4f 90       	pop	r4
    40d0:	3f 90       	pop	r3
    40d2:	2f 90       	pop	r2
    40d4:	08 95       	ret

000040d6 <f_opendir>:
    40d6:	ef 92       	push	r14
    40d8:	ff 92       	push	r15
    40da:	0f 93       	push	r16
    40dc:	1f 93       	push	r17
    40de:	cf 93       	push	r28
    40e0:	df 93       	push	r29
    40e2:	cd b7       	in	r28, 0x3d	; 61
    40e4:	de b7       	in	r29, 0x3e	; 62
    40e6:	2e 97       	sbiw	r28, 0x0e	; 14
    40e8:	0f b6       	in	r0, 0x3f	; 63
    40ea:	f8 94       	cli
    40ec:	de bf       	out	0x3e, r29	; 62
    40ee:	0f be       	out	0x3f, r0	; 63
    40f0:	cd bf       	out	0x3d, r28	; 61
    40f2:	8c 01       	movw	r16, r24
    40f4:	7e 87       	std	Y+14, r23	; 0x0e
    40f6:	6d 87       	std	Y+13, r22	; 0x0d
    40f8:	00 97       	sbiw	r24, 0x00	; 0
    40fa:	09 f4       	brne	.+2      	; 0x40fe <f_opendir+0x28>
    40fc:	40 c0       	rjmp	.+128    	; 0x417e <f_opendir+0xa8>
    40fe:	ce 01       	movw	r24, r28
    4100:	0d 96       	adiw	r24, 0x0d	; 13
    4102:	b8 01       	movw	r22, r16
    4104:	40 e0       	ldi	r20, 0x00	; 0
    4106:	0e 94 f5 0b 	call	0x17ea	; 0x17ea <chk_mounted>
    410a:	f8 01       	movw	r30, r16
    410c:	e0 80       	ld	r14, Z
    410e:	f1 80       	ldd	r15, Z+1	; 0x01
    4110:	88 23       	and	r24, r24
    4112:	89 f5       	brne	.+98     	; 0x4176 <f_opendir+0xa0>
    4114:	ce 01       	movw	r24, r28
    4116:	01 96       	adiw	r24, 0x01	; 1
    4118:	95 8b       	std	Z+21, r25	; 0x15
    411a:	84 8b       	std	Z+20, r24	; 0x14
    411c:	6d 85       	ldd	r22, Y+13	; 0x0d
    411e:	7e 85       	ldd	r23, Y+14	; 0x0e
    4120:	c8 01       	movw	r24, r16
    4122:	0e 94 37 15 	call	0x2a6e	; 0x2a6e <follow_path>
    4126:	88 23       	and	r24, r24
    4128:	01 f5       	brne	.+64     	; 0x416a <f_opendir+0x94>
    412a:	f8 01       	movw	r30, r16
    412c:	62 89       	ldd	r22, Z+18	; 0x12
    412e:	73 89       	ldd	r23, Z+19	; 0x13
    4130:	61 15       	cp	r22, r1
    4132:	71 05       	cpc	r23, r1
    4134:	79 f0       	breq	.+30     	; 0x4154 <f_opendir+0x7e>
    4136:	fb 01       	movw	r30, r22
    4138:	83 85       	ldd	r24, Z+11	; 0x0b
    413a:	84 ff       	sbrs	r24, 4
    413c:	1b c0       	rjmp	.+54     	; 0x4174 <f_opendir+0x9e>
    413e:	f7 01       	movw	r30, r14
    4140:	80 81       	ld	r24, Z
    4142:	0e 94 19 0b 	call	0x1632	; 0x1632 <ld_clust.isra.0>
    4146:	dc 01       	movw	r26, r24
    4148:	cb 01       	movw	r24, r22
    414a:	f8 01       	movw	r30, r16
    414c:	86 83       	std	Z+6, r24	; 0x06
    414e:	97 83       	std	Z+7, r25	; 0x07
    4150:	a0 87       	std	Z+8, r26	; 0x08
    4152:	b1 87       	std	Z+9, r27	; 0x09
    4154:	f7 01       	movw	r30, r14
    4156:	86 81       	ldd	r24, Z+6	; 0x06
    4158:	97 81       	ldd	r25, Z+7	; 0x07
    415a:	f8 01       	movw	r30, r16
    415c:	93 83       	std	Z+3, r25	; 0x03
    415e:	82 83       	std	Z+2, r24	; 0x02
    4160:	c8 01       	movw	r24, r16
    4162:	60 e0       	ldi	r22, 0x00	; 0
    4164:	70 e0       	ldi	r23, 0x00	; 0
    4166:	0e 94 7b 11 	call	0x22f6	; 0x22f6 <dir_sdi>
    416a:	84 30       	cpi	r24, 0x04	; 4
    416c:	19 f0       	breq	.+6      	; 0x4174 <f_opendir+0x9e>
    416e:	88 23       	and	r24, r24
    4170:	39 f0       	breq	.+14     	; 0x4180 <f_opendir+0xaa>
    4172:	01 c0       	rjmp	.+2      	; 0x4176 <f_opendir+0xa0>
    4174:	85 e0       	ldi	r24, 0x05	; 5
    4176:	f8 01       	movw	r30, r16
    4178:	11 82       	std	Z+1, r1	; 0x01
    417a:	10 82       	st	Z, r1
    417c:	01 c0       	rjmp	.+2      	; 0x4180 <f_opendir+0xaa>
    417e:	89 e0       	ldi	r24, 0x09	; 9
    4180:	2e 96       	adiw	r28, 0x0e	; 14
    4182:	0f b6       	in	r0, 0x3f	; 63
    4184:	f8 94       	cli
    4186:	de bf       	out	0x3e, r29	; 62
    4188:	0f be       	out	0x3f, r0	; 63
    418a:	cd bf       	out	0x3d, r28	; 61
    418c:	df 91       	pop	r29
    418e:	cf 91       	pop	r28
    4190:	1f 91       	pop	r17
    4192:	0f 91       	pop	r16
    4194:	ff 90       	pop	r15
    4196:	ef 90       	pop	r14
    4198:	08 95       	ret

0000419a <f_readdir>:
    419a:	cf 92       	push	r12
    419c:	df 92       	push	r13
    419e:	ff 92       	push	r15
    41a0:	0f 93       	push	r16
    41a2:	1f 93       	push	r17
    41a4:	cf 93       	push	r28
    41a6:	df 93       	push	r29
    41a8:	cd b7       	in	r28, 0x3d	; 61
    41aa:	de b7       	in	r29, 0x3e	; 62
    41ac:	2c 97       	sbiw	r28, 0x0c	; 12
    41ae:	0f b6       	in	r0, 0x3f	; 63
    41b0:	f8 94       	cli
    41b2:	de bf       	out	0x3e, r29	; 62
    41b4:	0f be       	out	0x3f, r0	; 63
    41b6:	cd bf       	out	0x3d, r28	; 61
    41b8:	8c 01       	movw	r16, r24
    41ba:	6b 01       	movw	r12, r22
    41bc:	0e 94 3a 0b 	call	0x1674	; 0x1674 <validate>
    41c0:	f8 2e       	mov	r15, r24
    41c2:	88 23       	and	r24, r24
    41c4:	71 f5       	brne	.+92     	; 0x4222 <f_readdir+0x88>
    41c6:	c1 14       	cp	r12, r1
    41c8:	d1 04       	cpc	r13, r1
    41ca:	31 f4       	brne	.+12     	; 0x41d8 <f_readdir+0x3e>
    41cc:	c8 01       	movw	r24, r16
    41ce:	60 e0       	ldi	r22, 0x00	; 0
    41d0:	70 e0       	ldi	r23, 0x00	; 0
    41d2:	0e 94 7b 11 	call	0x22f6	; 0x22f6 <dir_sdi>
    41d6:	24 c0       	rjmp	.+72     	; 0x4220 <f_readdir+0x86>
    41d8:	9e 01       	movw	r18, r28
    41da:	2f 5f       	subi	r18, 0xFF	; 255
    41dc:	3f 4f       	sbci	r19, 0xFF	; 255
    41de:	f8 01       	movw	r30, r16
    41e0:	35 8b       	std	Z+21, r19	; 0x15
    41e2:	24 8b       	std	Z+20, r18	; 0x14
    41e4:	c8 01       	movw	r24, r16
    41e6:	0e 94 75 17 	call	0x2eea	; 0x2eea <dir_read>
    41ea:	84 30       	cpi	r24, 0x04	; 4
    41ec:	31 f4       	brne	.+12     	; 0x41fa <f_readdir+0x60>
    41ee:	f8 01       	movw	r30, r16
    41f0:	16 86       	std	Z+14, r1	; 0x0e
    41f2:	17 86       	std	Z+15, r1	; 0x0f
    41f4:	10 8a       	std	Z+16, r1	; 0x10
    41f6:	11 8a       	std	Z+17, r1	; 0x11
    41f8:	02 c0       	rjmp	.+4      	; 0x41fe <f_readdir+0x64>
    41fa:	88 23       	and	r24, r24
    41fc:	89 f4       	brne	.+34     	; 0x4220 <f_readdir+0x86>
    41fe:	c8 01       	movw	r24, r16
    4200:	b6 01       	movw	r22, r12
    4202:	0e 94 99 09 	call	0x1332	; 0x1332 <get_fileinfo>
    4206:	c8 01       	movw	r24, r16
    4208:	60 e0       	ldi	r22, 0x00	; 0
    420a:	70 e0       	ldi	r23, 0x00	; 0
    420c:	0e 94 08 14 	call	0x2810	; 0x2810 <dir_next>
    4210:	84 30       	cpi	r24, 0x04	; 4
    4212:	31 f4       	brne	.+12     	; 0x4220 <f_readdir+0x86>
    4214:	f8 01       	movw	r30, r16
    4216:	16 86       	std	Z+14, r1	; 0x0e
    4218:	17 86       	std	Z+15, r1	; 0x0f
    421a:	10 8a       	std	Z+16, r1	; 0x10
    421c:	11 8a       	std	Z+17, r1	; 0x11
    421e:	01 c0       	rjmp	.+2      	; 0x4222 <f_readdir+0x88>
    4220:	f8 2e       	mov	r15, r24
    4222:	8f 2d       	mov	r24, r15
    4224:	2c 96       	adiw	r28, 0x0c	; 12
    4226:	0f b6       	in	r0, 0x3f	; 63
    4228:	f8 94       	cli
    422a:	de bf       	out	0x3e, r29	; 62
    422c:	0f be       	out	0x3f, r0	; 63
    422e:	cd bf       	out	0x3d, r28	; 61
    4230:	df 91       	pop	r29
    4232:	cf 91       	pop	r28
    4234:	1f 91       	pop	r17
    4236:	0f 91       	pop	r16
    4238:	ff 90       	pop	r15
    423a:	df 90       	pop	r13
    423c:	cf 90       	pop	r12
    423e:	08 95       	ret

00004240 <f_stat>:
    4240:	ff 92       	push	r15
    4242:	0f 93       	push	r16
    4244:	1f 93       	push	r17
    4246:	cf 93       	push	r28
    4248:	df 93       	push	r29
    424a:	cd b7       	in	r28, 0x3d	; 61
    424c:	de b7       	in	r29, 0x3e	; 62
    424e:	a4 97       	sbiw	r28, 0x24	; 36
    4250:	0f b6       	in	r0, 0x3f	; 63
    4252:	f8 94       	cli
    4254:	de bf       	out	0x3e, r29	; 62
    4256:	0f be       	out	0x3f, r0	; 63
    4258:	cd bf       	out	0x3d, r28	; 61
    425a:	9c a3       	lds	r25, 0x5c
    425c:	8b a3       	lds	r24, 0x5b
    425e:	8b 01       	movw	r16, r22
    4260:	ce 01       	movw	r24, r28
    4262:	83 96       	adiw	r24, 0x23	; 35
    4264:	be 01       	movw	r22, r28
    4266:	63 5f       	subi	r22, 0xF3	; 243
    4268:	7f 4f       	sbci	r23, 0xFF	; 255
    426a:	40 e0       	ldi	r20, 0x00	; 0
    426c:	0e 94 f5 0b 	call	0x17ea	; 0x17ea <chk_mounted>
    4270:	f8 2e       	mov	r15, r24
    4272:	88 23       	and	r24, r24
    4274:	d1 f4       	brne	.+52     	; 0x42aa <f_stat+0x6a>
    4276:	ce 01       	movw	r24, r28
    4278:	01 96       	adiw	r24, 0x01	; 1
    427a:	9a a3       	lds	r25, 0x5a
    427c:	89 a3       	lds	r24, 0x59
    427e:	6b a1       	lds	r22, 0x4b
    4280:	7c a1       	lds	r23, 0x4c
    4282:	ce 01       	movw	r24, r28
    4284:	0d 96       	adiw	r24, 0x0d	; 13
    4286:	0e 94 37 15 	call	0x2a6e	; 0x2a6e <follow_path>
    428a:	f8 2e       	mov	r15, r24
    428c:	88 23       	and	r24, r24
    428e:	69 f4       	brne	.+26     	; 0x42aa <f_stat+0x6a>
    4290:	2f 8d       	ldd	r18, Y+31	; 0x1f
    4292:	38 a1       	lds	r19, 0x48
    4294:	21 15       	cp	r18, r1
    4296:	31 05       	cpc	r19, r1
    4298:	31 f0       	breq	.+12     	; 0x42a6 <f_stat+0x66>
    429a:	ce 01       	movw	r24, r28
    429c:	0d 96       	adiw	r24, 0x0d	; 13
    429e:	b8 01       	movw	r22, r16
    42a0:	0e 94 99 09 	call	0x1332	; 0x1332 <get_fileinfo>
    42a4:	02 c0       	rjmp	.+4      	; 0x42aa <f_stat+0x6a>
    42a6:	36 e0       	ldi	r19, 0x06	; 6
    42a8:	f3 2e       	mov	r15, r19
    42aa:	8f 2d       	mov	r24, r15
    42ac:	a4 96       	adiw	r28, 0x24	; 36
    42ae:	0f b6       	in	r0, 0x3f	; 63
    42b0:	f8 94       	cli
    42b2:	de bf       	out	0x3e, r29	; 62
    42b4:	0f be       	out	0x3f, r0	; 63
    42b6:	cd bf       	out	0x3d, r28	; 61
    42b8:	df 91       	pop	r29
    42ba:	cf 91       	pop	r28
    42bc:	1f 91       	pop	r17
    42be:	0f 91       	pop	r16
    42c0:	ff 90       	pop	r15
    42c2:	08 95       	ret

000042c4 <f_getfree>:
    42c4:	2f 92       	push	r2
    42c6:	3f 92       	push	r3
    42c8:	4f 92       	push	r4
    42ca:	5f 92       	push	r5
    42cc:	6f 92       	push	r6
    42ce:	7f 92       	push	r7
    42d0:	8f 92       	push	r8
    42d2:	9f 92       	push	r9
    42d4:	af 92       	push	r10
    42d6:	bf 92       	push	r11
    42d8:	cf 92       	push	r12
    42da:	df 92       	push	r13
    42dc:	ef 92       	push	r14
    42de:	ff 92       	push	r15
    42e0:	0f 93       	push	r16
    42e2:	1f 93       	push	r17
    42e4:	cf 93       	push	r28
    42e6:	df 93       	push	r29
    42e8:	cd b7       	in	r28, 0x3d	; 61
    42ea:	de b7       	in	r29, 0x3e	; 62
    42ec:	2e 97       	sbiw	r28, 0x0e	; 14
    42ee:	0f b6       	in	r0, 0x3f	; 63
    42f0:	f8 94       	cli
    42f2:	de bf       	out	0x3e, r29	; 62
    42f4:	0f be       	out	0x3f, r0	; 63
    42f6:	cd bf       	out	0x3d, r28	; 61
    42f8:	9a 83       	std	Y+2, r25	; 0x02
    42fa:	89 83       	std	Y+1, r24	; 0x01
    42fc:	1b 01       	movw	r2, r22
    42fe:	8a 01       	movw	r16, r20
    4300:	ce 01       	movw	r24, r28
    4302:	01 96       	adiw	r24, 0x01	; 1
    4304:	ba 01       	movw	r22, r20
    4306:	40 e0       	ldi	r20, 0x00	; 0
    4308:	0e 94 f5 0b 	call	0x17ea	; 0x17ea <chk_mounted>
    430c:	58 2e       	mov	r5, r24
    430e:	d8 01       	movw	r26, r16
    4310:	6d 90       	ld	r6, X+
    4312:	7c 90       	ld	r7, X
    4314:	11 97       	sbiw	r26, 0x01	; 1
    4316:	88 23       	and	r24, r24
    4318:	09 f0       	breq	.+2      	; 0x431c <f_getfree+0x58>
    431a:	05 c1       	rjmp	.+522    	; 0x4526 <f_getfree+0x262>
    431c:	f3 01       	movw	r30, r6
    431e:	86 85       	ldd	r24, Z+14	; 0x0e
    4320:	97 85       	ldd	r25, Z+15	; 0x0f
    4322:	a0 89       	ldd	r26, Z+16	; 0x10
    4324:	b1 89       	ldd	r27, Z+17	; 0x11
    4326:	c2 8c       	ldd	r12, Z+26	; 0x1a
    4328:	d3 8c       	ldd	r13, Z+27	; 0x1b
    432a:	e4 8c       	ldd	r14, Z+28	; 0x1c
    432c:	f5 8c       	ldd	r15, Z+29	; 0x1d
    432e:	b7 01       	movw	r22, r14
    4330:	a6 01       	movw	r20, r12
    4332:	42 50       	subi	r20, 0x02	; 2
    4334:	50 40       	sbci	r21, 0x00	; 0
    4336:	60 40       	sbci	r22, 0x00	; 0
    4338:	70 40       	sbci	r23, 0x00	; 0
    433a:	48 17       	cp	r20, r24
    433c:	59 07       	cpc	r21, r25
    433e:	6a 07       	cpc	r22, r26
    4340:	7b 07       	cpc	r23, r27
    4342:	30 f0       	brcs	.+12     	; 0x4350 <f_getfree+0x8c>
    4344:	f1 01       	movw	r30, r2
    4346:	80 83       	st	Z, r24
    4348:	91 83       	std	Z+1, r25	; 0x01
    434a:	a2 83       	std	Z+2, r26	; 0x02
    434c:	b3 83       	std	Z+3, r27	; 0x03
    434e:	eb c0       	rjmp	.+470    	; 0x4526 <f_getfree+0x262>
    4350:	40 80       	ld	r4, Z
    4352:	b1 e0       	ldi	r27, 0x01	; 1
    4354:	4b 16       	cp	r4, r27
    4356:	b9 f5       	brne	.+110    	; 0x43c6 <f_getfree+0x102>
    4358:	82 e0       	ldi	r24, 0x02	; 2
    435a:	c8 2e       	mov	r12, r24
    435c:	d1 2c       	mov	r13, r1
    435e:	e1 2c       	mov	r14, r1
    4360:	f1 2c       	mov	r15, r1
    4362:	88 24       	eor	r8, r8
    4364:	99 24       	eor	r9, r9
    4366:	54 01       	movw	r10, r8
    4368:	c3 01       	movw	r24, r6
    436a:	b7 01       	movw	r22, r14
    436c:	a6 01       	movw	r20, r12
    436e:	0e 94 6a 10 	call	0x20d4	; 0x20d4 <get_fat>
    4372:	dc 01       	movw	r26, r24
    4374:	cb 01       	movw	r24, r22
    4376:	8f 3f       	cpi	r24, 0xFF	; 255
    4378:	ef ef       	ldi	r30, 0xFF	; 255
    437a:	9e 07       	cpc	r25, r30
    437c:	ef ef       	ldi	r30, 0xFF	; 255
    437e:	ae 07       	cpc	r26, r30
    4380:	ef ef       	ldi	r30, 0xFF	; 255
    4382:	be 07       	cpc	r27, r30
    4384:	09 f4       	brne	.+2      	; 0x4388 <f_getfree+0xc4>
    4386:	b4 c0       	rjmp	.+360    	; 0x44f0 <f_getfree+0x22c>
    4388:	81 30       	cpi	r24, 0x01	; 1
    438a:	91 05       	cpc	r25, r1
    438c:	a1 05       	cpc	r26, r1
    438e:	b1 05       	cpc	r27, r1
    4390:	09 f4       	brne	.+2      	; 0x4394 <f_getfree+0xd0>
    4392:	b1 c0       	rjmp	.+354    	; 0x44f6 <f_getfree+0x232>
    4394:	00 97       	sbiw	r24, 0x00	; 0
    4396:	a1 05       	cpc	r26, r1
    4398:	b1 05       	cpc	r27, r1
    439a:	29 f4       	brne	.+10     	; 0x43a6 <f_getfree+0xe2>
    439c:	08 94       	sec
    439e:	81 1c       	adc	r8, r1
    43a0:	91 1c       	adc	r9, r1
    43a2:	a1 1c       	adc	r10, r1
    43a4:	b1 1c       	adc	r11, r1
    43a6:	08 94       	sec
    43a8:	c1 1c       	adc	r12, r1
    43aa:	d1 1c       	adc	r13, r1
    43ac:	e1 1c       	adc	r14, r1
    43ae:	f1 1c       	adc	r15, r1
    43b0:	f3 01       	movw	r30, r6
    43b2:	82 8d       	ldd	r24, Z+26	; 0x1a
    43b4:	93 8d       	ldd	r25, Z+27	; 0x1b
    43b6:	a4 8d       	ldd	r26, Z+28	; 0x1c
    43b8:	b5 8d       	ldd	r27, Z+29	; 0x1d
    43ba:	c8 16       	cp	r12, r24
    43bc:	d9 06       	cpc	r13, r25
    43be:	ea 06       	cpc	r14, r26
    43c0:	fb 06       	cpc	r15, r27
    43c2:	90 f2       	brcs	.-92     	; 0x4368 <f_getfree+0xa4>
    43c4:	9d c0       	rjmp	.+314    	; 0x4500 <f_getfree+0x23c>
    43c6:	82 a1       	lds	r24, 0x42
    43c8:	93 a1       	lds	r25, 0x43
    43ca:	a4 a1       	lds	r26, 0x44
    43cc:	b5 a1       	lds	r27, 0x45
    43ce:	8b 83       	std	Y+3, r24	; 0x03
    43d0:	9c 83       	std	Y+4, r25	; 0x04
    43d2:	ad 83       	std	Y+5, r26	; 0x05
    43d4:	be 83       	std	Y+6, r27	; 0x06
    43d6:	e0 e0       	ldi	r30, 0x00	; 0
    43d8:	f0 e0       	ldi	r31, 0x00	; 0
    43da:	00 e0       	ldi	r16, 0x00	; 0
    43dc:	10 e0       	ldi	r17, 0x00	; 0
    43de:	98 01       	movw	r18, r16
    43e0:	88 24       	eor	r8, r8
    43e2:	99 24       	eor	r9, r9
    43e4:	54 01       	movw	r10, r8
    43e6:	a3 01       	movw	r20, r6
    43e8:	4e 5c       	subi	r20, 0xCE	; 206
    43ea:	5f 4f       	sbci	r21, 0xFF	; 255
    43ec:	5c 87       	std	Y+12, r21	; 0x0c
    43ee:	4b 87       	std	Y+11, r20	; 0x0b
    43f0:	5d 86       	std	Y+13, r5	; 0x0d
    43f2:	4e 86       	std	Y+14, r4	; 0x0e
    43f4:	01 15       	cp	r16, r1
    43f6:	11 05       	cpc	r17, r1
    43f8:	21 05       	cpc	r18, r1
    43fa:	31 05       	cpc	r19, r1
    43fc:	d9 f4       	brne	.+54     	; 0x4434 <f_getfree+0x170>
    43fe:	c3 01       	movw	r24, r6
    4400:	4b 81       	ldd	r20, Y+3	; 0x03
    4402:	5c 81       	ldd	r21, Y+4	; 0x04
    4404:	6d 81       	ldd	r22, Y+5	; 0x05
    4406:	7e 81       	ldd	r23, Y+6	; 0x06
    4408:	0e 94 19 0a 	call	0x1432	; 0x1432 <move_window>
    440c:	88 23       	and	r24, r24
    440e:	09 f0       	breq	.+2      	; 0x4412 <f_getfree+0x14e>
    4410:	75 c0       	rjmp	.+234    	; 0x44fc <f_getfree+0x238>
    4412:	8b 81       	ldd	r24, Y+3	; 0x03
    4414:	9c 81       	ldd	r25, Y+4	; 0x04
    4416:	ad 81       	ldd	r26, Y+5	; 0x05
    4418:	be 81       	ldd	r27, Y+6	; 0x06
    441a:	01 96       	adiw	r24, 0x01	; 1
    441c:	a1 1d       	adc	r26, r1
    441e:	b1 1d       	adc	r27, r1
    4420:	8b 83       	std	Y+3, r24	; 0x03
    4422:	9c 83       	std	Y+4, r25	; 0x04
    4424:	ad 83       	std	Y+5, r26	; 0x05
    4426:	be 83       	std	Y+6, r27	; 0x06
    4428:	eb 85       	ldd	r30, Y+11	; 0x0b
    442a:	fc 85       	ldd	r31, Y+12	; 0x0c
    442c:	00 e0       	ldi	r16, 0x00	; 0
    442e:	12 e0       	ldi	r17, 0x02	; 2
    4430:	20 e0       	ldi	r18, 0x00	; 0
    4432:	30 e0       	ldi	r19, 0x00	; 0
    4434:	9e 85       	ldd	r25, Y+14	; 0x0e
    4436:	92 30       	cpi	r25, 0x02	; 2
    4438:	b1 f4       	brne	.+44     	; 0x4466 <f_getfree+0x1a2>
    443a:	a1 81       	ldd	r26, Z+1	; 0x01
    443c:	a8 87       	std	Y+8, r26	; 0x08
    443e:	1f 82       	std	Y+7, r1	; 0x07
    4440:	80 81       	ld	r24, Z
    4442:	90 e0       	ldi	r25, 0x00	; 0
    4444:	4f 80       	ldd	r4, Y+7	; 0x07
    4446:	58 84       	ldd	r5, Y+8	; 0x08
    4448:	84 29       	or	r24, r4
    444a:	95 29       	or	r25, r5
    444c:	00 97       	sbiw	r24, 0x00	; 0
    444e:	29 f4       	brne	.+10     	; 0x445a <f_getfree+0x196>
    4450:	08 94       	sec
    4452:	81 1c       	adc	r8, r1
    4454:	91 1c       	adc	r9, r1
    4456:	a1 1c       	adc	r10, r1
    4458:	b1 1c       	adc	r11, r1
    445a:	32 96       	adiw	r30, 0x02	; 2
    445c:	02 50       	subi	r16, 0x02	; 2
    445e:	10 40       	sbci	r17, 0x00	; 0
    4460:	20 40       	sbci	r18, 0x00	; 0
    4462:	30 40       	sbci	r19, 0x00	; 0
    4464:	37 c0       	rjmp	.+110    	; 0x44d4 <f_getfree+0x210>
    4466:	83 81       	ldd	r24, Z+3	; 0x03
    4468:	90 e0       	ldi	r25, 0x00	; 0
    446a:	a0 e0       	ldi	r26, 0x00	; 0
    446c:	b0 e0       	ldi	r27, 0x00	; 0
    446e:	78 2f       	mov	r23, r24
    4470:	66 27       	eor	r22, r22
    4472:	55 27       	eor	r21, r21
    4474:	44 27       	eor	r20, r20
    4476:	82 81       	ldd	r24, Z+2	; 0x02
    4478:	90 e0       	ldi	r25, 0x00	; 0
    447a:	a0 e0       	ldi	r26, 0x00	; 0
    447c:	b0 e0       	ldi	r27, 0x00	; 0
    447e:	dc 01       	movw	r26, r24
    4480:	99 27       	eor	r25, r25
    4482:	88 27       	eor	r24, r24
    4484:	48 2b       	or	r20, r24
    4486:	59 2b       	or	r21, r25
    4488:	6a 2b       	or	r22, r26
    448a:	7b 2b       	or	r23, r27
    448c:	80 81       	ld	r24, Z
    448e:	90 e0       	ldi	r25, 0x00	; 0
    4490:	a0 e0       	ldi	r26, 0x00	; 0
    4492:	b0 e0       	ldi	r27, 0x00	; 0
    4494:	48 2b       	or	r20, r24
    4496:	59 2b       	or	r21, r25
    4498:	6a 2b       	or	r22, r26
    449a:	7b 2b       	or	r23, r27
    449c:	51 80       	ldd	r5, Z+1	; 0x01
    449e:	5a 86       	std	Y+10, r5	; 0x0a
    44a0:	19 86       	std	Y+9, r1	; 0x09
    44a2:	49 84       	ldd	r4, Y+9	; 0x09
    44a4:	5a 84       	ldd	r5, Y+10	; 0x0a
    44a6:	c2 01       	movw	r24, r4
    44a8:	a0 e0       	ldi	r26, 0x00	; 0
    44aa:	b0 e0       	ldi	r27, 0x00	; 0
    44ac:	48 2b       	or	r20, r24
    44ae:	59 2b       	or	r21, r25
    44b0:	6a 2b       	or	r22, r26
    44b2:	7b 2b       	or	r23, r27
    44b4:	7f 70       	andi	r23, 0x0F	; 15
    44b6:	41 15       	cp	r20, r1
    44b8:	51 05       	cpc	r21, r1
    44ba:	61 05       	cpc	r22, r1
    44bc:	71 05       	cpc	r23, r1
    44be:	29 f4       	brne	.+10     	; 0x44ca <f_getfree+0x206>
    44c0:	08 94       	sec
    44c2:	81 1c       	adc	r8, r1
    44c4:	91 1c       	adc	r9, r1
    44c6:	a1 1c       	adc	r10, r1
    44c8:	b1 1c       	adc	r11, r1
    44ca:	34 96       	adiw	r30, 0x04	; 4
    44cc:	04 50       	subi	r16, 0x04	; 4
    44ce:	10 40       	sbci	r17, 0x00	; 0
    44d0:	20 40       	sbci	r18, 0x00	; 0
    44d2:	30 40       	sbci	r19, 0x00	; 0
    44d4:	08 94       	sec
    44d6:	c1 08       	sbc	r12, r1
    44d8:	d1 08       	sbc	r13, r1
    44da:	e1 08       	sbc	r14, r1
    44dc:	f1 08       	sbc	r15, r1
    44de:	c1 14       	cp	r12, r1
    44e0:	d1 04       	cpc	r13, r1
    44e2:	e1 04       	cpc	r14, r1
    44e4:	f1 04       	cpc	r15, r1
    44e6:	09 f0       	breq	.+2      	; 0x44ea <f_getfree+0x226>
    44e8:	85 cf       	rjmp	.-246    	; 0x43f4 <f_getfree+0x130>
    44ea:	5d 84       	ldd	r5, Y+13	; 0x0d
    44ec:	4e 84       	ldd	r4, Y+14	; 0x0e
    44ee:	08 c0       	rjmp	.+16     	; 0x4500 <f_getfree+0x23c>
    44f0:	55 24       	eor	r5, r5
    44f2:	53 94       	inc	r5
    44f4:	05 c0       	rjmp	.+10     	; 0x4500 <f_getfree+0x23c>
    44f6:	42 e0       	ldi	r20, 0x02	; 2
    44f8:	54 2e       	mov	r5, r20
    44fa:	02 c0       	rjmp	.+4      	; 0x4500 <f_getfree+0x23c>
    44fc:	4e 84       	ldd	r4, Y+14	; 0x0e
    44fe:	58 2e       	mov	r5, r24
    4500:	d3 01       	movw	r26, r6
    4502:	1e 96       	adiw	r26, 0x0e	; 14
    4504:	8d 92       	st	X+, r8
    4506:	9d 92       	st	X+, r9
    4508:	ad 92       	st	X+, r10
    450a:	bc 92       	st	X, r11
    450c:	51 97       	sbiw	r26, 0x11	; 17
    450e:	b3 e0       	ldi	r27, 0x03	; 3
    4510:	4b 16       	cp	r4, r27
    4512:	19 f4       	brne	.+6      	; 0x451a <f_getfree+0x256>
    4514:	81 e0       	ldi	r24, 0x01	; 1
    4516:	f3 01       	movw	r30, r6
    4518:	85 83       	std	Z+5, r24	; 0x05
    451a:	d1 01       	movw	r26, r2
    451c:	8d 92       	st	X+, r8
    451e:	9d 92       	st	X+, r9
    4520:	ad 92       	st	X+, r10
    4522:	bc 92       	st	X, r11
    4524:	13 97       	sbiw	r26, 0x03	; 3
    4526:	85 2d       	mov	r24, r5
    4528:	2e 96       	adiw	r28, 0x0e	; 14
    452a:	0f b6       	in	r0, 0x3f	; 63
    452c:	f8 94       	cli
    452e:	de bf       	out	0x3e, r29	; 62
    4530:	0f be       	out	0x3f, r0	; 63
    4532:	cd bf       	out	0x3d, r28	; 61
    4534:	df 91       	pop	r29
    4536:	cf 91       	pop	r28
    4538:	1f 91       	pop	r17
    453a:	0f 91       	pop	r16
    453c:	ff 90       	pop	r15
    453e:	ef 90       	pop	r14
    4540:	df 90       	pop	r13
    4542:	cf 90       	pop	r12
    4544:	bf 90       	pop	r11
    4546:	af 90       	pop	r10
    4548:	9f 90       	pop	r9
    454a:	8f 90       	pop	r8
    454c:	7f 90       	pop	r7
    454e:	6f 90       	pop	r6
    4550:	5f 90       	pop	r5
    4552:	4f 90       	pop	r4
    4554:	3f 90       	pop	r3
    4556:	2f 90       	pop	r2
    4558:	08 95       	ret

0000455a <f_truncate>:
    455a:	8f 92       	push	r8
    455c:	9f 92       	push	r9
    455e:	af 92       	push	r10
    4560:	bf 92       	push	r11
    4562:	ef 92       	push	r14
    4564:	ff 92       	push	r15
    4566:	0f 93       	push	r16
    4568:	1f 93       	push	r17
    456a:	cf 93       	push	r28
    456c:	7c 01       	movw	r14, r24
    456e:	00 97       	sbiw	r24, 0x00	; 0
    4570:	09 f4       	brne	.+2      	; 0x4574 <f_truncate+0x1a>
    4572:	62 c0       	rjmp	.+196    	; 0x4638 <f_truncate+0xde>
    4574:	0e 94 3a 0b 	call	0x1674	; 0x1674 <validate>
    4578:	c8 2f       	mov	r28, r24
    457a:	88 23       	and	r24, r24
    457c:	09 f0       	breq	.+2      	; 0x4580 <f_truncate+0x26>
    457e:	5d c0       	rjmp	.+186    	; 0x463a <f_truncate+0xe0>
    4580:	f7 01       	movw	r30, r14
    4582:	24 81       	ldd	r18, Z+4	; 0x04
    4584:	27 fd       	sbrc	r18, 7
    4586:	04 c0       	rjmp	.+8      	; 0x4590 <f_truncate+0x36>
    4588:	21 fd       	sbrc	r18, 1
    458a:	62 c0       	rjmp	.+196    	; 0x4650 <f_truncate+0xf6>
    458c:	c7 e0       	ldi	r28, 0x07	; 7
    458e:	55 c0       	rjmp	.+170    	; 0x463a <f_truncate+0xe0>
    4590:	c2 e0       	ldi	r28, 0x02	; 2
    4592:	53 c0       	rjmp	.+166    	; 0x463a <f_truncate+0xe0>
    4594:	f7 01       	movw	r30, r14
    4596:	82 87       	std	Z+10, r24	; 0x0a
    4598:	93 87       	std	Z+11, r25	; 0x0b
    459a:	a4 87       	std	Z+12, r26	; 0x0c
    459c:	b5 87       	std	Z+13, r27	; 0x0d
    459e:	20 62       	ori	r18, 0x20	; 32
    45a0:	24 83       	std	Z+4, r18	; 0x04
    45a2:	20 81       	ld	r18, Z
    45a4:	31 81       	ldd	r19, Z+1	; 0x01
    45a6:	00 97       	sbiw	r24, 0x00	; 0
    45a8:	a1 05       	cpc	r26, r1
    45aa:	b1 05       	cpc	r27, r1
    45ac:	71 f4       	brne	.+28     	; 0x45ca <f_truncate+0x70>
    45ae:	46 85       	ldd	r20, Z+14	; 0x0e
    45b0:	57 85       	ldd	r21, Z+15	; 0x0f
    45b2:	60 89       	ldd	r22, Z+16	; 0x10
    45b4:	71 89       	ldd	r23, Z+17	; 0x11
    45b6:	c9 01       	movw	r24, r18
    45b8:	0e 94 a9 17 	call	0x2f52	; 0x2f52 <remove_chain>
    45bc:	c8 2f       	mov	r28, r24
    45be:	f7 01       	movw	r30, r14
    45c0:	16 86       	std	Z+14, r1	; 0x0e
    45c2:	17 86       	std	Z+15, r1	; 0x0f
    45c4:	10 8a       	std	Z+16, r1	; 0x10
    45c6:	11 8a       	std	Z+17, r1	; 0x11
    45c8:	30 c0       	rjmp	.+96     	; 0x462a <f_truncate+0xd0>
    45ca:	f7 01       	movw	r30, r14
    45cc:	42 89       	ldd	r20, Z+18	; 0x12
    45ce:	53 89       	ldd	r21, Z+19	; 0x13
    45d0:	64 89       	ldd	r22, Z+20	; 0x14
    45d2:	75 89       	ldd	r23, Z+21	; 0x15
    45d4:	c9 01       	movw	r24, r18
    45d6:	0e 94 6a 10 	call	0x20d4	; 0x20d4 <get_fat>
    45da:	4b 01       	movw	r8, r22
    45dc:	5c 01       	movw	r10, r24
    45de:	6f 3f       	cpi	r22, 0xFF	; 255
    45e0:	ff ef       	ldi	r31, 0xFF	; 255
    45e2:	7f 07       	cpc	r23, r31
    45e4:	ff ef       	ldi	r31, 0xFF	; 255
    45e6:	8f 07       	cpc	r24, r31
    45e8:	ff ef       	ldi	r31, 0xFF	; 255
    45ea:	9f 07       	cpc	r25, r31
    45ec:	09 f4       	brne	.+2      	; 0x45f0 <f_truncate+0x96>
    45ee:	40 c0       	rjmp	.+128    	; 0x4670 <f_truncate+0x116>
    45f0:	81 e0       	ldi	r24, 0x01	; 1
    45f2:	88 16       	cp	r8, r24
    45f4:	91 04       	cpc	r9, r1
    45f6:	a1 04       	cpc	r10, r1
    45f8:	b1 04       	cpc	r11, r1
    45fa:	f1 f5       	brne	.+124    	; 0x4678 <f_truncate+0x11e>
    45fc:	3b c0       	rjmp	.+118    	; 0x4674 <f_truncate+0x11a>
    45fe:	f7 01       	movw	r30, r14
    4600:	42 89       	ldd	r20, Z+18	; 0x12
    4602:	53 89       	ldd	r21, Z+19	; 0x13
    4604:	64 89       	ldd	r22, Z+20	; 0x14
    4606:	75 89       	ldd	r23, Z+21	; 0x15
    4608:	0f ef       	ldi	r16, 0xFF	; 255
    460a:	1f ef       	ldi	r17, 0xFF	; 255
    460c:	2f ef       	ldi	r18, 0xFF	; 255
    460e:	3f e0       	ldi	r19, 0x0F	; 15
    4610:	0e 94 2f 12 	call	0x245e	; 0x245e <put_fat>
    4614:	c8 2f       	mov	r28, r24
    4616:	88 23       	and	r24, r24
    4618:	51 f4       	brne	.+20     	; 0x462e <f_truncate+0xd4>
    461a:	f7 01       	movw	r30, r14
    461c:	80 81       	ld	r24, Z
    461e:	91 81       	ldd	r25, Z+1	; 0x01
    4620:	b5 01       	movw	r22, r10
    4622:	a4 01       	movw	r20, r8
    4624:	0e 94 a9 17 	call	0x2f52	; 0x2f52 <remove_chain>
    4628:	c8 2f       	mov	r28, r24
    462a:	cc 23       	and	r28, r28
    462c:	31 f0       	breq	.+12     	; 0x463a <f_truncate+0xe0>
    462e:	f7 01       	movw	r30, r14
    4630:	84 81       	ldd	r24, Z+4	; 0x04
    4632:	80 68       	ori	r24, 0x80	; 128
    4634:	84 83       	std	Z+4, r24	; 0x04
    4636:	01 c0       	rjmp	.+2      	; 0x463a <f_truncate+0xe0>
    4638:	c9 e0       	ldi	r28, 0x09	; 9
    463a:	8c 2f       	mov	r24, r28
    463c:	cf 91       	pop	r28
    463e:	1f 91       	pop	r17
    4640:	0f 91       	pop	r16
    4642:	ff 90       	pop	r15
    4644:	ef 90       	pop	r14
    4646:	bf 90       	pop	r11
    4648:	af 90       	pop	r10
    464a:	9f 90       	pop	r9
    464c:	8f 90       	pop	r8
    464e:	08 95       	ret
    4650:	f7 01       	movw	r30, r14
    4652:	86 81       	ldd	r24, Z+6	; 0x06
    4654:	97 81       	ldd	r25, Z+7	; 0x07
    4656:	a0 85       	ldd	r26, Z+8	; 0x08
    4658:	b1 85       	ldd	r27, Z+9	; 0x09
    465a:	42 85       	ldd	r20, Z+10	; 0x0a
    465c:	53 85       	ldd	r21, Z+11	; 0x0b
    465e:	64 85       	ldd	r22, Z+12	; 0x0c
    4660:	75 85       	ldd	r23, Z+13	; 0x0d
    4662:	84 17       	cp	r24, r20
    4664:	95 07       	cpc	r25, r21
    4666:	a6 07       	cpc	r26, r22
    4668:	b7 07       	cpc	r27, r23
    466a:	08 f4       	brcc	.+2      	; 0x466e <f_truncate+0x114>
    466c:	93 cf       	rjmp	.-218    	; 0x4594 <f_truncate+0x3a>
    466e:	e5 cf       	rjmp	.-54     	; 0x463a <f_truncate+0xe0>
    4670:	c1 e0       	ldi	r28, 0x01	; 1
    4672:	dd cf       	rjmp	.-70     	; 0x462e <f_truncate+0xd4>
    4674:	c2 e0       	ldi	r28, 0x02	; 2
    4676:	db cf       	rjmp	.-74     	; 0x462e <f_truncate+0xd4>
    4678:	f7 01       	movw	r30, r14
    467a:	80 81       	ld	r24, Z
    467c:	91 81       	ldd	r25, Z+1	; 0x01
    467e:	fc 01       	movw	r30, r24
    4680:	42 8d       	ldd	r20, Z+26	; 0x1a
    4682:	53 8d       	ldd	r21, Z+27	; 0x1b
    4684:	64 8d       	ldd	r22, Z+28	; 0x1c
    4686:	75 8d       	ldd	r23, Z+29	; 0x1d
    4688:	84 16       	cp	r8, r20
    468a:	95 06       	cpc	r9, r21
    468c:	a6 06       	cpc	r10, r22
    468e:	b7 06       	cpc	r11, r23
    4690:	a0 f6       	brcc	.-88     	; 0x463a <f_truncate+0xe0>
    4692:	b5 cf       	rjmp	.-150    	; 0x45fe <f_truncate+0xa4>

00004694 <f_unlink>:
    4694:	af 92       	push	r10
    4696:	bf 92       	push	r11
    4698:	cf 92       	push	r12
    469a:	df 92       	push	r13
    469c:	ef 92       	push	r14
    469e:	ff 92       	push	r15
    46a0:	1f 93       	push	r17
    46a2:	cf 93       	push	r28
    46a4:	df 93       	push	r29
    46a6:	cd b7       	in	r28, 0x3d	; 61
    46a8:	de b7       	in	r29, 0x3e	; 62
    46aa:	ea 97       	sbiw	r28, 0x3a	; 58
    46ac:	0f b6       	in	r0, 0x3f	; 63
    46ae:	f8 94       	cli
    46b0:	de bf       	out	0x3e, r29	; 62
    46b2:	0f be       	out	0x3f, r0	; 63
    46b4:	cd bf       	out	0x3d, r28	; 61
    46b6:	9a af       	sts	0x7a, r25
    46b8:	89 af       	sts	0x79, r24
    46ba:	ce 01       	movw	r24, r28
    46bc:	c9 96       	adiw	r24, 0x39	; 57
    46be:	be 01       	movw	r22, r28
    46c0:	6d 5d       	subi	r22, 0xDD	; 221
    46c2:	7f 4f       	sbci	r23, 0xFF	; 255
    46c4:	41 e0       	ldi	r20, 0x01	; 1
    46c6:	0e 94 f5 0b 	call	0x17ea	; 0x17ea <chk_mounted>
    46ca:	18 2f       	mov	r17, r24
    46cc:	88 23       	and	r24, r24
    46ce:	09 f0       	breq	.+2      	; 0x46d2 <f_unlink+0x3e>
    46d0:	89 c0       	rjmp	.+274    	; 0x47e4 <f_unlink+0x150>
    46d2:	ce 01       	movw	r24, r28
    46d4:	01 96       	adiw	r24, 0x01	; 1
    46d6:	98 af       	sts	0x78, r25
    46d8:	8f ab       	sts	0x5f, r24
    46da:	69 ad       	sts	0x69, r22
    46dc:	7a ad       	sts	0x6a, r23
    46de:	ce 01       	movw	r24, r28
    46e0:	83 96       	adiw	r24, 0x23	; 35
    46e2:	0e 94 37 15 	call	0x2a6e	; 0x2a6e <follow_path>
    46e6:	18 2f       	mov	r17, r24
    46e8:	88 23       	and	r24, r24
    46ea:	09 f0       	breq	.+2      	; 0x46ee <f_unlink+0x5a>
    46ec:	7b c0       	rjmp	.+246    	; 0x47e4 <f_unlink+0x150>
    46ee:	ef a9       	sts	0x4f, r30
    46f0:	f8 ad       	sts	0x68, r31
    46f2:	83 85       	ldd	r24, Z+11	; 0x0b
    46f4:	85 ff       	sbrs	r24, 5
    46f6:	87 c0       	rjmp	.+270    	; 0x4806 <f_unlink+0x172>
    46f8:	16 e0       	ldi	r17, 0x06	; 6
    46fa:	74 c0       	rjmp	.+232    	; 0x47e4 <f_unlink+0x150>
    46fc:	f5 01       	movw	r30, r10
    46fe:	83 85       	ldd	r24, Z+11	; 0x0b
    4700:	80 ff       	sbrs	r24, 0
    4702:	03 c0       	rjmp	.+6      	; 0x470a <f_unlink+0x76>
    4704:	17 e0       	ldi	r17, 0x07	; 7
    4706:	01 c0       	rjmp	.+2      	; 0x470a <f_unlink+0x76>
    4708:	16 e0       	ldi	r17, 0x06	; 6
    470a:	eb a1       	lds	r30, 0x4b
    470c:	fc a1       	lds	r31, 0x4c
    470e:	80 81       	ld	r24, Z
    4710:	b5 01       	movw	r22, r10
    4712:	0e 94 19 0b 	call	0x1632	; 0x1632 <ld_clust.isra.0>
    4716:	6b 01       	movw	r12, r22
    4718:	7c 01       	movw	r14, r24
    471a:	11 23       	and	r17, r17
    471c:	09 f0       	breq	.+2      	; 0x4720 <f_unlink+0x8c>
    471e:	62 c0       	rjmp	.+196    	; 0x47e4 <f_unlink+0x150>
    4720:	f5 01       	movw	r30, r10
    4722:	83 85       	ldd	r24, Z+11	; 0x0b
    4724:	84 ff       	sbrs	r24, 4
    4726:	76 c0       	rjmp	.+236    	; 0x4814 <f_unlink+0x180>
    4728:	f2 e0       	ldi	r31, 0x02	; 2
    472a:	cf 16       	cp	r12, r31
    472c:	d1 04       	cpc	r13, r1
    472e:	e1 04       	cpc	r14, r1
    4730:	f1 04       	cpc	r15, r1
    4732:	78 f1       	brcs	.+94     	; 0x4792 <f_unlink+0xfe>
    4734:	ce 01       	movw	r24, r28
    4736:	0d 96       	adiw	r24, 0x0d	; 13
    4738:	be 01       	movw	r22, r28
    473a:	6d 5d       	subi	r22, 0xDD	; 221
    473c:	7f 4f       	sbci	r23, 0xFF	; 255
    473e:	26 e1       	ldi	r18, 0x16	; 22
    4740:	30 e0       	ldi	r19, 0x00	; 0
    4742:	40 e0       	ldi	r20, 0x00	; 0
    4744:	50 e0       	ldi	r21, 0x00	; 0
    4746:	0e 94 7e 09 	call	0x12fc	; 0x12fc <mem_cpy>
    474a:	cb 8a       	std	Y+19, r12	; 0x13
    474c:	dc 8a       	std	Y+20, r13	; 0x14
    474e:	ed 8a       	std	Y+21, r14	; 0x15
    4750:	fe 8a       	std	Y+22, r15	; 0x16
    4752:	ce 01       	movw	r24, r28
    4754:	0d 96       	adiw	r24, 0x0d	; 13
    4756:	62 e0       	ldi	r22, 0x02	; 2
    4758:	70 e0       	ldi	r23, 0x00	; 0
    475a:	0e 94 7b 11 	call	0x22f6	; 0x22f6 <dir_sdi>
    475e:	18 2f       	mov	r17, r24
    4760:	88 23       	and	r24, r24
    4762:	09 f0       	breq	.+2      	; 0x4766 <f_unlink+0xd2>
    4764:	3f c0       	rjmp	.+126    	; 0x47e4 <f_unlink+0x150>
    4766:	ce 01       	movw	r24, r28
    4768:	0d 96       	adiw	r24, 0x0d	; 13
    476a:	0e 94 75 17 	call	0x2eea	; 0x2eea <dir_read>
    476e:	18 2f       	mov	r17, r24
    4770:	88 23       	and	r24, r24
    4772:	89 f0       	breq	.+34     	; 0x4796 <f_unlink+0x102>
    4774:	eb a1       	lds	r30, 0x4b
    4776:	fc a1       	lds	r31, 0x4c
    4778:	86 89       	ldd	r24, Z+22	; 0x16
    477a:	97 89       	ldd	r25, Z+23	; 0x17
    477c:	a0 8d       	ldd	r26, Z+24	; 0x18
    477e:	b1 8d       	ldd	r27, Z+25	; 0x19
    4780:	c8 16       	cp	r12, r24
    4782:	d9 06       	cpc	r13, r25
    4784:	ea 06       	cpc	r14, r26
    4786:	fb 06       	cpc	r15, r27
    4788:	31 f0       	breq	.+12     	; 0x4796 <f_unlink+0x102>
    478a:	14 30       	cpi	r17, 0x04	; 4
    478c:	09 f4       	brne	.+2      	; 0x4790 <f_unlink+0xfc>
    478e:	42 c0       	rjmp	.+132    	; 0x4814 <f_unlink+0x180>
    4790:	29 c0       	rjmp	.+82     	; 0x47e4 <f_unlink+0x150>
    4792:	12 e0       	ldi	r17, 0x02	; 2
    4794:	27 c0       	rjmp	.+78     	; 0x47e4 <f_unlink+0x150>
    4796:	17 e0       	ldi	r17, 0x07	; 7
    4798:	25 c0       	rjmp	.+74     	; 0x47e4 <f_unlink+0x150>
    479a:	49 a9       	sts	0x49, r20
    479c:	5a a9       	sts	0x4a, r21
    479e:	6b a9       	sts	0x4b, r22
    47a0:	7c a9       	sts	0x4c, r23
    47a2:	8b a1       	lds	r24, 0x4b
    47a4:	9c a1       	lds	r25, 0x4c
    47a6:	0e 94 19 0a 	call	0x1432	; 0x1432 <move_window>
    47aa:	18 2f       	mov	r17, r24
    47ac:	88 23       	and	r24, r24
    47ae:	d1 f4       	brne	.+52     	; 0x47e4 <f_unlink+0x150>
    47b0:	ed a9       	sts	0x4d, r30
    47b2:	fe a9       	sts	0x4e, r31
    47b4:	85 ee       	ldi	r24, 0xE5	; 229
    47b6:	80 83       	st	Z, r24
    47b8:	8b a1       	lds	r24, 0x4b
    47ba:	9c a1       	lds	r25, 0x4c
    47bc:	21 e0       	ldi	r18, 0x01	; 1
    47be:	fc 01       	movw	r30, r24
    47c0:	24 83       	std	Z+4, r18	; 0x04
    47c2:	c1 14       	cp	r12, r1
    47c4:	d1 04       	cpc	r13, r1
    47c6:	e1 04       	cpc	r14, r1
    47c8:	f1 04       	cpc	r15, r1
    47ca:	39 f0       	breq	.+14     	; 0x47da <f_unlink+0x146>
    47cc:	b7 01       	movw	r22, r14
    47ce:	a6 01       	movw	r20, r12
    47d0:	0e 94 a9 17 	call	0x2f52	; 0x2f52 <remove_chain>
    47d4:	18 2f       	mov	r17, r24
    47d6:	88 23       	and	r24, r24
    47d8:	29 f4       	brne	.+10     	; 0x47e4 <f_unlink+0x150>
    47da:	8b a1       	lds	r24, 0x4b
    47dc:	9c a1       	lds	r25, 0x4c
    47de:	0e 94 92 0a 	call	0x1524	; 0x1524 <sync>
    47e2:	18 2f       	mov	r17, r24
    47e4:	81 2f       	mov	r24, r17
    47e6:	ea 96       	adiw	r28, 0x3a	; 58
    47e8:	0f b6       	in	r0, 0x3f	; 63
    47ea:	f8 94       	cli
    47ec:	de bf       	out	0x3e, r29	; 62
    47ee:	0f be       	out	0x3f, r0	; 63
    47f0:	cd bf       	out	0x3d, r28	; 61
    47f2:	df 91       	pop	r29
    47f4:	cf 91       	pop	r28
    47f6:	1f 91       	pop	r17
    47f8:	ff 90       	pop	r15
    47fa:	ef 90       	pop	r14
    47fc:	df 90       	pop	r13
    47fe:	cf 90       	pop	r12
    4800:	bf 90       	pop	r11
    4802:	af 90       	pop	r10
    4804:	08 95       	ret
    4806:	ad a8       	sts	0x8d, r26
    4808:	be a8       	sts	0x8e, r27
    480a:	a1 14       	cp	r10, r1
    480c:	b1 04       	cpc	r11, r1
    480e:	09 f0       	breq	.+2      	; 0x4812 <f_unlink+0x17e>
    4810:	75 cf       	rjmp	.-278    	; 0x46fc <f_unlink+0x68>
    4812:	7a cf       	rjmp	.-268    	; 0x4708 <f_unlink+0x74>
    4814:	6f a1       	lds	r22, 0x4f
    4816:	78 a5       	lds	r23, 0x68
    4818:	ce 01       	movw	r24, r28
    481a:	83 96       	adiw	r24, 0x23	; 35
    481c:	0e 94 7b 11 	call	0x22f6	; 0x22f6 <dir_sdi>
    4820:	18 2f       	mov	r17, r24
    4822:	88 23       	and	r24, r24
    4824:	f9 f6       	brne	.-66     	; 0x47e4 <f_unlink+0x150>
    4826:	b9 cf       	rjmp	.-142    	; 0x479a <f_unlink+0x106>

00004828 <f_mkdir>:
    4828:	2f 92       	push	r2
    482a:	3f 92       	push	r3
    482c:	4f 92       	push	r4
    482e:	5f 92       	push	r5
    4830:	6f 92       	push	r6
    4832:	7f 92       	push	r7
    4834:	8f 92       	push	r8
    4836:	9f 92       	push	r9
    4838:	bf 92       	push	r11
    483a:	cf 92       	push	r12
    483c:	df 92       	push	r13
    483e:	ef 92       	push	r14
    4840:	ff 92       	push	r15
    4842:	0f 93       	push	r16
    4844:	1f 93       	push	r17
    4846:	cf 93       	push	r28
    4848:	df 93       	push	r29
    484a:	cd b7       	in	r28, 0x3d	; 61
    484c:	de b7       	in	r29, 0x3e	; 62
    484e:	a6 97       	sbiw	r28, 0x26	; 38
    4850:	0f b6       	in	r0, 0x3f	; 63
    4852:	f8 94       	cli
    4854:	de bf       	out	0x3e, r29	; 62
    4856:	0f be       	out	0x3f, r0	; 63
    4858:	cd bf       	out	0x3d, r28	; 61
    485a:	9c a3       	lds	r25, 0x5c
    485c:	8b a3       	lds	r24, 0x5b
    485e:	ce 01       	movw	r24, r28
    4860:	83 96       	adiw	r24, 0x23	; 35
    4862:	be 01       	movw	r22, r28
    4864:	63 5f       	subi	r22, 0xF3	; 243
    4866:	7f 4f       	sbci	r23, 0xFF	; 255
    4868:	41 e0       	ldi	r20, 0x01	; 1
    486a:	0e 94 f5 0b 	call	0x17ea	; 0x17ea <chk_mounted>
    486e:	18 2f       	mov	r17, r24
    4870:	88 23       	and	r24, r24
    4872:	09 f0       	breq	.+2      	; 0x4876 <f_mkdir+0x4e>
    4874:	db c0       	rjmp	.+438    	; 0x4a2c <f_mkdir+0x204>
    4876:	ce 01       	movw	r24, r28
    4878:	01 96       	adiw	r24, 0x01	; 1
    487a:	9a a3       	lds	r25, 0x5a
    487c:	89 a3       	lds	r24, 0x59
    487e:	6b a1       	lds	r22, 0x4b
    4880:	7c a1       	lds	r23, 0x4c
    4882:	ce 01       	movw	r24, r28
    4884:	0d 96       	adiw	r24, 0x0d	; 13
    4886:	0e 94 37 15 	call	0x2a6e	; 0x2a6e <follow_path>
    488a:	18 2f       	mov	r17, r24
    488c:	88 23       	and	r24, r24
    488e:	51 f0       	breq	.+20     	; 0x48a4 <f_mkdir+0x7c>
    4890:	84 30       	cpi	r24, 0x04	; 4
    4892:	09 f0       	breq	.+2      	; 0x4896 <f_mkdir+0x6e>
    4894:	cb c0       	rjmp	.+406    	; 0x4a2c <f_mkdir+0x204>
    4896:	e9 a1       	lds	r30, 0x49
    4898:	fa a1       	lds	r31, 0x4a
    489a:	83 85       	ldd	r24, Z+11	; 0x0b
    489c:	85 ff       	sbrs	r24, 5
    489e:	df c0       	rjmp	.+446    	; 0x4a5e <f_mkdir+0x236>
    48a0:	16 e0       	ldi	r17, 0x06	; 6
    48a2:	c4 c0       	rjmp	.+392    	; 0x4a2c <f_mkdir+0x204>
    48a4:	18 e0       	ldi	r17, 0x08	; 8
    48a6:	c2 c0       	rjmp	.+388    	; 0x4a2c <f_mkdir+0x204>
    48a8:	81 e0       	ldi	r24, 0x01	; 1
    48aa:	c8 16       	cp	r12, r24
    48ac:	d1 04       	cpc	r13, r1
    48ae:	e1 04       	cpc	r14, r1
    48b0:	f1 04       	cpc	r15, r1
    48b2:	09 f4       	brne	.+2      	; 0x48b6 <f_mkdir+0x8e>
    48b4:	e5 c0       	rjmp	.+458    	; 0x4a80 <f_mkdir+0x258>
    48b6:	9f ef       	ldi	r25, 0xFF	; 255
    48b8:	c9 16       	cp	r12, r25
    48ba:	9f ef       	ldi	r25, 0xFF	; 255
    48bc:	d9 06       	cpc	r13, r25
    48be:	9f ef       	ldi	r25, 0xFF	; 255
    48c0:	e9 06       	cpc	r14, r25
    48c2:	9f ef       	ldi	r25, 0xFF	; 255
    48c4:	f9 06       	cpc	r15, r25
    48c6:	09 f4       	brne	.+2      	; 0x48ca <f_mkdir+0xa2>
    48c8:	dd c0       	rjmp	.+442    	; 0x4a84 <f_mkdir+0x25c>
    48ca:	de c0       	rjmp	.+444    	; 0x4a88 <f_mkdir+0x260>
    48cc:	0d 85       	ldd	r16, Y+13	; 0x0d
    48ce:	1e 85       	ldd	r17, Y+14	; 0x0e
    48d0:	c8 01       	movw	r24, r16
    48d2:	b7 01       	movw	r22, r14
    48d4:	a6 01       	movw	r20, r12
    48d6:	0e 94 36 10 	call	0x206c	; 0x206c <clust2sect>
    48da:	2b 01       	movw	r4, r22
    48dc:	3c 01       	movw	r6, r24
    48de:	32 e3       	ldi	r19, 0x32	; 50
    48e0:	83 2e       	mov	r8, r19
    48e2:	91 2c       	mov	r9, r1
    48e4:	80 0e       	add	r8, r16
    48e6:	91 1e       	adc	r9, r17
    48e8:	f8 01       	movw	r30, r16
    48ea:	ee 5c       	subi	r30, 0xCE	; 206
    48ec:	fd 4f       	sbci	r31, 0xFD	; 253
    48ee:	fe a3       	lds	r31, 0x5e
    48f0:	ed a3       	lds	r30, 0x5d
    48f2:	f4 01       	movw	r30, r8
    48f4:	01 c0       	rjmp	.+2      	; 0x48f8 <f_mkdir+0xd0>
    48f6:	11 92       	st	Z+, r1
    48f8:	8d a1       	lds	r24, 0x4d
    48fa:	9e a1       	lds	r25, 0x4e
    48fc:	e8 17       	cp	r30, r24
    48fe:	f9 07       	cpc	r31, r25
    4900:	d1 f7       	brne	.-12     	; 0x48f6 <f_mkdir+0xce>
    4902:	c4 01       	movw	r24, r8
    4904:	0b 96       	adiw	r24, 0x0b	; 11
    4906:	f4 01       	movw	r30, r8
    4908:	20 e2       	ldi	r18, 0x20	; 32
    490a:	01 c0       	rjmp	.+2      	; 0x490e <f_mkdir+0xe6>
    490c:	21 93       	st	Z+, r18
    490e:	e8 17       	cp	r30, r24
    4910:	f9 07       	cpc	r31, r25
    4912:	e1 f7       	brne	.-8      	; 0x490c <f_mkdir+0xe4>
    4914:	9e e2       	ldi	r25, 0x2E	; 46
    4916:	b9 2e       	mov	r11, r25
    4918:	f8 01       	movw	r30, r16
    491a:	b2 aa       	sts	0x92, r27
    491c:	80 e1       	ldi	r24, 0x10	; 16
    491e:	85 af       	sts	0x75, r24
    4920:	e8 5b       	subi	r30, 0xB8	; 184
    4922:	ff 4f       	sbci	r31, 0xFF	; 255
    4924:	10 82       	st	Z, r1
    4926:	f8 01       	movw	r30, r16
    4928:	e7 5b       	subi	r30, 0xB7	; 183
    492a:	ff 4f       	sbci	r31, 0xFF	; 255
    492c:	10 82       	st	Z, r1
    492e:	f8 01       	movw	r30, r16
    4930:	e6 5b       	subi	r30, 0xB6	; 182
    4932:	ff 4f       	sbci	r31, 0xFF	; 255
    4934:	10 82       	st	Z, r1
    4936:	f8 01       	movw	r30, r16
    4938:	e5 5b       	subi	r30, 0xB5	; 181
    493a:	ff 4f       	sbci	r31, 0xFF	; 255
    493c:	10 82       	st	Z, r1
    493e:	c4 01       	movw	r24, r8
    4940:	b7 01       	movw	r22, r14
    4942:	a6 01       	movw	r20, r12
    4944:	0e 94 90 09 	call	0x1320	; 0x1320 <st_clust>
    4948:	22 e5       	ldi	r18, 0x52	; 82
    494a:	22 2e       	mov	r2, r18
    494c:	31 2c       	mov	r3, r1
    494e:	20 0e       	add	r2, r16
    4950:	31 1e       	adc	r3, r17
    4952:	c1 01       	movw	r24, r2
    4954:	b4 01       	movw	r22, r8
    4956:	20 e2       	ldi	r18, 0x20	; 32
    4958:	30 e0       	ldi	r19, 0x00	; 0
    495a:	40 e0       	ldi	r20, 0x00	; 0
    495c:	50 e0       	ldi	r21, 0x00	; 0
    495e:	0e 94 7e 09 	call	0x12fc	; 0x12fc <mem_cpy>
    4962:	f8 01       	movw	r30, r16
    4964:	ed 5a       	subi	r30, 0xAD	; 173
    4966:	ff 4f       	sbci	r31, 0xFF	; 255
    4968:	b0 82       	st	Z, r11
    496a:	4b 89       	ldd	r20, Y+19	; 0x13
    496c:	5c 89       	ldd	r21, Y+20	; 0x14
    496e:	6d 89       	ldd	r22, Y+21	; 0x15
    4970:	7e 89       	ldd	r23, Y+22	; 0x16
    4972:	ed 85       	ldd	r30, Y+13	; 0x0d
    4974:	fe 85       	ldd	r31, Y+14	; 0x0e
    4976:	80 81       	ld	r24, Z
    4978:	83 30       	cpi	r24, 0x03	; 3
    497a:	61 f4       	brne	.+24     	; 0x4994 <f_mkdir+0x16c>
    497c:	86 a1       	lds	r24, 0x46
    497e:	97 a1       	lds	r25, 0x47
    4980:	a0 a5       	lds	r26, 0x60
    4982:	b1 a5       	lds	r27, 0x61
    4984:	48 17       	cp	r20, r24
    4986:	59 07       	cpc	r21, r25
    4988:	6a 07       	cpc	r22, r26
    498a:	7b 07       	cpc	r23, r27
    498c:	19 f4       	brne	.+6      	; 0x4994 <f_mkdir+0x16c>
    498e:	40 e0       	ldi	r20, 0x00	; 0
    4990:	50 e0       	ldi	r21, 0x00	; 0
    4992:	ba 01       	movw	r22, r20
    4994:	c1 01       	movw	r24, r2
    4996:	0e 94 90 09 	call	0x1320	; 0x1320 <st_clust>
    499a:	ed 85       	ldd	r30, Y+13	; 0x0d
    499c:	fe 85       	ldd	r31, Y+14	; 0x0e
    499e:	02 81       	ldd	r16, Z+2	; 0x02
    49a0:	bb 24       	eor	r11, r11
    49a2:	b3 94       	inc	r11
    49a4:	1e c0       	rjmp	.+60     	; 0x49e2 <f_mkdir+0x1ba>
    49a6:	8d 85       	ldd	r24, Y+13	; 0x0d
    49a8:	9e 85       	ldd	r25, Y+14	; 0x0e
    49aa:	fc 01       	movw	r30, r24
    49ac:	46 a6       	lds	r20, 0xb6
    49ae:	57 a6       	lds	r21, 0xb7
    49b0:	60 aa       	sts	0x90, r22
    49b2:	71 aa       	sts	0x91, r23
    49b4:	b4 82       	std	Z+4, r11	; 0x04
    49b6:	40 e0       	ldi	r20, 0x00	; 0
    49b8:	50 e0       	ldi	r21, 0x00	; 0
    49ba:	ba 01       	movw	r22, r20
    49bc:	0e 94 19 0a 	call	0x1432	; 0x1432 <move_window>
    49c0:	18 2f       	mov	r17, r24
    49c2:	88 23       	and	r24, r24
    49c4:	b9 f4       	brne	.+46     	; 0x49f4 <f_mkdir+0x1cc>
    49c6:	f4 01       	movw	r30, r8
    49c8:	01 c0       	rjmp	.+2      	; 0x49cc <f_mkdir+0x1a4>
    49ca:	11 92       	st	Z+, r1
    49cc:	8d a1       	lds	r24, 0x4d
    49ce:	9e a1       	lds	r25, 0x4e
    49d0:	e8 17       	cp	r30, r24
    49d2:	f9 07       	cpc	r31, r25
    49d4:	d1 f7       	brne	.-12     	; 0x49ca <f_mkdir+0x1a2>
    49d6:	08 94       	sec
    49d8:	41 1c       	adc	r4, r1
    49da:	51 1c       	adc	r5, r1
    49dc:	61 1c       	adc	r6, r1
    49de:	71 1c       	adc	r7, r1
    49e0:	01 50       	subi	r16, 0x01	; 1
    49e2:	00 23       	and	r16, r16
    49e4:	01 f7       	brne	.-64     	; 0x49a6 <f_mkdir+0x17e>
    49e6:	ce 01       	movw	r24, r28
    49e8:	0d 96       	adiw	r24, 0x0d	; 13
    49ea:	0e 94 1d 17 	call	0x2e3a	; 0x2e3a <dir_register>
    49ee:	18 2f       	mov	r17, r24
    49f0:	88 23       	and	r24, r24
    49f2:	39 f0       	breq	.+14     	; 0x4a02 <f_mkdir+0x1da>
    49f4:	8d 85       	ldd	r24, Y+13	; 0x0d
    49f6:	9e 85       	ldd	r25, Y+14	; 0x0e
    49f8:	b7 01       	movw	r22, r14
    49fa:	a6 01       	movw	r20, r12
    49fc:	0e 94 a9 17 	call	0x2f52	; 0x2f52 <remove_chain>
    4a00:	15 c0       	rjmp	.+42     	; 0x4a2c <f_mkdir+0x204>
    4a02:	ef 8d       	ldd	r30, Y+31	; 0x1f
    4a04:	f8 a1       	lds	r31, 0x48
    4a06:	80 e1       	ldi	r24, 0x10	; 16
    4a08:	83 87       	std	Z+11, r24	; 0x0b
    4a0a:	16 8a       	std	Z+22, r1	; 0x16
    4a0c:	17 8a       	std	Z+23, r1	; 0x17
    4a0e:	10 8e       	std	Z+24, r1	; 0x18
    4a10:	11 8e       	std	Z+25, r1	; 0x19
    4a12:	cf 01       	movw	r24, r30
    4a14:	b7 01       	movw	r22, r14
    4a16:	a6 01       	movw	r20, r12
    4a18:	0e 94 90 09 	call	0x1320	; 0x1320 <st_clust>
    4a1c:	8d 85       	ldd	r24, Y+13	; 0x0d
    4a1e:	9e 85       	ldd	r25, Y+14	; 0x0e
    4a20:	21 e0       	ldi	r18, 0x01	; 1
    4a22:	fc 01       	movw	r30, r24
    4a24:	24 83       	std	Z+4, r18	; 0x04
    4a26:	0e 94 92 0a 	call	0x1524	; 0x1524 <sync>
    4a2a:	18 2f       	mov	r17, r24
    4a2c:	81 2f       	mov	r24, r17
    4a2e:	a6 96       	adiw	r28, 0x26	; 38
    4a30:	0f b6       	in	r0, 0x3f	; 63
    4a32:	f8 94       	cli
    4a34:	de bf       	out	0x3e, r29	; 62
    4a36:	0f be       	out	0x3f, r0	; 63
    4a38:	cd bf       	out	0x3d, r28	; 61
    4a3a:	df 91       	pop	r29
    4a3c:	cf 91       	pop	r28
    4a3e:	1f 91       	pop	r17
    4a40:	0f 91       	pop	r16
    4a42:	ff 90       	pop	r15
    4a44:	ef 90       	pop	r14
    4a46:	df 90       	pop	r13
    4a48:	cf 90       	pop	r12
    4a4a:	bf 90       	pop	r11
    4a4c:	9f 90       	pop	r9
    4a4e:	8f 90       	pop	r8
    4a50:	7f 90       	pop	r7
    4a52:	6f 90       	pop	r6
    4a54:	5f 90       	pop	r5
    4a56:	4f 90       	pop	r4
    4a58:	3f 90       	pop	r3
    4a5a:	2f 90       	pop	r2
    4a5c:	08 95       	ret
    4a5e:	8d 85       	ldd	r24, Y+13	; 0x0d
    4a60:	9e 85       	ldd	r25, Y+14	; 0x0e
    4a62:	40 e0       	ldi	r20, 0x00	; 0
    4a64:	50 e0       	ldi	r21, 0x00	; 0
    4a66:	ba 01       	movw	r22, r20
    4a68:	0e 94 29 13 	call	0x2652	; 0x2652 <create_chain>
    4a6c:	6b 01       	movw	r12, r22
    4a6e:	7c 01       	movw	r14, r24
    4a70:	61 15       	cp	r22, r1
    4a72:	71 05       	cpc	r23, r1
    4a74:	81 05       	cpc	r24, r1
    4a76:	91 05       	cpc	r25, r1
    4a78:	09 f0       	breq	.+2      	; 0x4a7c <f_mkdir+0x254>
    4a7a:	16 cf       	rjmp	.-468    	; 0x48a8 <f_mkdir+0x80>
    4a7c:	17 e0       	ldi	r17, 0x07	; 7
    4a7e:	ba cf       	rjmp	.-140    	; 0x49f4 <f_mkdir+0x1cc>
    4a80:	12 e0       	ldi	r17, 0x02	; 2
    4a82:	b8 cf       	rjmp	.-144    	; 0x49f4 <f_mkdir+0x1cc>
    4a84:	11 e0       	ldi	r17, 0x01	; 1
    4a86:	b6 cf       	rjmp	.-148    	; 0x49f4 <f_mkdir+0x1cc>
    4a88:	8d 85       	ldd	r24, Y+13	; 0x0d
    4a8a:	9e 85       	ldd	r25, Y+14	; 0x0e
    4a8c:	40 e0       	ldi	r20, 0x00	; 0
    4a8e:	50 e0       	ldi	r21, 0x00	; 0
    4a90:	ba 01       	movw	r22, r20
    4a92:	0e 94 19 0a 	call	0x1432	; 0x1432 <move_window>
    4a96:	18 2f       	mov	r17, r24
    4a98:	88 23       	and	r24, r24
    4a9a:	09 f4       	brne	.+2      	; 0x4a9e <f_mkdir+0x276>
    4a9c:	17 cf       	rjmp	.-466    	; 0x48cc <f_mkdir+0xa4>
    4a9e:	aa cf       	rjmp	.-172    	; 0x49f4 <f_mkdir+0x1cc>

00004aa0 <f_chmod>:
    4aa0:	0f 93       	push	r16
    4aa2:	1f 93       	push	r17
    4aa4:	cf 93       	push	r28
    4aa6:	df 93       	push	r29
    4aa8:	cd b7       	in	r28, 0x3d	; 61
    4aaa:	de b7       	in	r29, 0x3e	; 62
    4aac:	a4 97       	sbiw	r28, 0x24	; 36
    4aae:	0f b6       	in	r0, 0x3f	; 63
    4ab0:	f8 94       	cli
    4ab2:	de bf       	out	0x3e, r29	; 62
    4ab4:	0f be       	out	0x3f, r0	; 63
    4ab6:	cd bf       	out	0x3d, r28	; 61
    4ab8:	9c a3       	lds	r25, 0x5c
    4aba:	8b a3       	lds	r24, 0x5b
    4abc:	16 2f       	mov	r17, r22
    4abe:	04 2f       	mov	r16, r20
    4ac0:	ce 01       	movw	r24, r28
    4ac2:	83 96       	adiw	r24, 0x23	; 35
    4ac4:	be 01       	movw	r22, r28
    4ac6:	63 5f       	subi	r22, 0xF3	; 243
    4ac8:	7f 4f       	sbci	r23, 0xFF	; 255
    4aca:	41 e0       	ldi	r20, 0x01	; 1
    4acc:	0e 94 f5 0b 	call	0x17ea	; 0x17ea <chk_mounted>
    4ad0:	88 23       	and	r24, r24
    4ad2:	19 f5       	brne	.+70     	; 0x4b1a <f_chmod+0x7a>
    4ad4:	ce 01       	movw	r24, r28
    4ad6:	01 96       	adiw	r24, 0x01	; 1
    4ad8:	9a a3       	lds	r25, 0x5a
    4ada:	89 a3       	lds	r24, 0x59
    4adc:	6b a1       	lds	r22, 0x4b
    4ade:	7c a1       	lds	r23, 0x4c
    4ae0:	ce 01       	movw	r24, r28
    4ae2:	0d 96       	adiw	r24, 0x0d	; 13
    4ae4:	0e 94 37 15 	call	0x2a6e	; 0x2a6e <follow_path>
    4ae8:	88 23       	and	r24, r24
    4aea:	b9 f4       	brne	.+46     	; 0x4b1a <f_chmod+0x7a>
    4aec:	e9 a1       	lds	r30, 0x49
    4aee:	fa a1       	lds	r31, 0x4a
    4af0:	83 85       	ldd	r24, Z+11	; 0x0b
    4af2:	85 ff       	sbrs	r24, 5
    4af4:	1d c0       	rjmp	.+58     	; 0x4b30 <f_chmod+0x90>
    4af6:	10 c0       	rjmp	.+32     	; 0x4b18 <f_chmod+0x78>
    4af8:	07 72       	andi	r16, 0x27	; 39
    4afa:	80 2f       	mov	r24, r16
    4afc:	80 95       	com	r24
    4afe:	93 85       	ldd	r25, Z+11	; 0x0b
    4b00:	89 23       	and	r24, r25
    4b02:	01 23       	and	r16, r17
    4b04:	80 2b       	or	r24, r16
    4b06:	83 87       	std	Z+11, r24	; 0x0b
    4b08:	8d 85       	ldd	r24, Y+13	; 0x0d
    4b0a:	9e 85       	ldd	r25, Y+14	; 0x0e
    4b0c:	21 e0       	ldi	r18, 0x01	; 1
    4b0e:	fc 01       	movw	r30, r24
    4b10:	24 83       	std	Z+4, r18	; 0x04
    4b12:	0e 94 92 0a 	call	0x1524	; 0x1524 <sync>
    4b16:	01 c0       	rjmp	.+2      	; 0x4b1a <f_chmod+0x7a>
    4b18:	86 e0       	ldi	r24, 0x06	; 6
    4b1a:	a4 96       	adiw	r28, 0x24	; 36
    4b1c:	0f b6       	in	r0, 0x3f	; 63
    4b1e:	f8 94       	cli
    4b20:	de bf       	out	0x3e, r29	; 62
    4b22:	0f be       	out	0x3f, r0	; 63
    4b24:	cd bf       	out	0x3d, r28	; 61
    4b26:	df 91       	pop	r29
    4b28:	cf 91       	pop	r28
    4b2a:	1f 91       	pop	r17
    4b2c:	0f 91       	pop	r16
    4b2e:	08 95       	ret
    4b30:	ef 8d       	ldd	r30, Y+31	; 0x1f
    4b32:	f8 a1       	lds	r31, 0x48
    4b34:	30 97       	sbiw	r30, 0x00	; 0
    4b36:	01 f7       	brne	.-64     	; 0x4af8 <f_chmod+0x58>
    4b38:	ef cf       	rjmp	.-34     	; 0x4b18 <f_chmod+0x78>

00004b3a <f_utime>:
    4b3a:	0f 93       	push	r16
    4b3c:	1f 93       	push	r17
    4b3e:	cf 93       	push	r28
    4b40:	df 93       	push	r29
    4b42:	cd b7       	in	r28, 0x3d	; 61
    4b44:	de b7       	in	r29, 0x3e	; 62
    4b46:	a4 97       	sbiw	r28, 0x24	; 36
    4b48:	0f b6       	in	r0, 0x3f	; 63
    4b4a:	f8 94       	cli
    4b4c:	de bf       	out	0x3e, r29	; 62
    4b4e:	0f be       	out	0x3f, r0	; 63
    4b50:	cd bf       	out	0x3d, r28	; 61
    4b52:	9c a3       	lds	r25, 0x5c
    4b54:	8b a3       	lds	r24, 0x5b
    4b56:	8b 01       	movw	r16, r22
    4b58:	ce 01       	movw	r24, r28
    4b5a:	83 96       	adiw	r24, 0x23	; 35
    4b5c:	be 01       	movw	r22, r28
    4b5e:	63 5f       	subi	r22, 0xF3	; 243
    4b60:	7f 4f       	sbci	r23, 0xFF	; 255
    4b62:	41 e0       	ldi	r20, 0x01	; 1
    4b64:	0e 94 f5 0b 	call	0x17ea	; 0x17ea <chk_mounted>
    4b68:	88 23       	and	r24, r24
    4b6a:	59 f5       	brne	.+86     	; 0x4bc2 <f_utime+0x88>
    4b6c:	ce 01       	movw	r24, r28
    4b6e:	01 96       	adiw	r24, 0x01	; 1
    4b70:	9a a3       	lds	r25, 0x5a
    4b72:	89 a3       	lds	r24, 0x59
    4b74:	6b a1       	lds	r22, 0x4b
    4b76:	7c a1       	lds	r23, 0x4c
    4b78:	ce 01       	movw	r24, r28
    4b7a:	0d 96       	adiw	r24, 0x0d	; 13
    4b7c:	0e 94 37 15 	call	0x2a6e	; 0x2a6e <follow_path>
    4b80:	88 23       	and	r24, r24
    4b82:	f9 f4       	brne	.+62     	; 0x4bc2 <f_utime+0x88>
    4b84:	e9 a1       	lds	r30, 0x49
    4b86:	fa a1       	lds	r31, 0x4a
    4b88:	83 85       	ldd	r24, Z+11	; 0x0b
    4b8a:	85 ff       	sbrs	r24, 5
    4b8c:	25 c0       	rjmp	.+74     	; 0x4bd8 <f_utime+0x9e>
    4b8e:	18 c0       	rjmp	.+48     	; 0x4bc0 <f_utime+0x86>
    4b90:	d8 01       	movw	r26, r16
    4b92:	16 96       	adiw	r26, 0x06	; 6
    4b94:	8c 91       	ld	r24, X
    4b96:	16 97       	sbiw	r26, 0x06	; 6
    4b98:	86 8b       	std	Z+22, r24	; 0x16
    4b9a:	17 96       	adiw	r26, 0x07	; 7
    4b9c:	8c 91       	ld	r24, X
    4b9e:	17 97       	sbiw	r26, 0x07	; 7
    4ba0:	87 8b       	std	Z+23, r24	; 0x17
    4ba2:	14 96       	adiw	r26, 0x04	; 4
    4ba4:	8c 91       	ld	r24, X
    4ba6:	14 97       	sbiw	r26, 0x04	; 4
    4ba8:	80 8f       	std	Z+24, r24	; 0x18
    4baa:	15 96       	adiw	r26, 0x05	; 5
    4bac:	8c 91       	ld	r24, X
    4bae:	81 8f       	std	Z+25, r24	; 0x19
    4bb0:	8d 85       	ldd	r24, Y+13	; 0x0d
    4bb2:	9e 85       	ldd	r25, Y+14	; 0x0e
    4bb4:	21 e0       	ldi	r18, 0x01	; 1
    4bb6:	fc 01       	movw	r30, r24
    4bb8:	24 83       	std	Z+4, r18	; 0x04
    4bba:	0e 94 92 0a 	call	0x1524	; 0x1524 <sync>
    4bbe:	01 c0       	rjmp	.+2      	; 0x4bc2 <f_utime+0x88>
    4bc0:	86 e0       	ldi	r24, 0x06	; 6
    4bc2:	a4 96       	adiw	r28, 0x24	; 36
    4bc4:	0f b6       	in	r0, 0x3f	; 63
    4bc6:	f8 94       	cli
    4bc8:	de bf       	out	0x3e, r29	; 62
    4bca:	0f be       	out	0x3f, r0	; 63
    4bcc:	cd bf       	out	0x3d, r28	; 61
    4bce:	df 91       	pop	r29
    4bd0:	cf 91       	pop	r28
    4bd2:	1f 91       	pop	r17
    4bd4:	0f 91       	pop	r16
    4bd6:	08 95       	ret
    4bd8:	ef 8d       	ldd	r30, Y+31	; 0x1f
    4bda:	f8 a1       	lds	r31, 0x48
    4bdc:	30 97       	sbiw	r30, 0x00	; 0
    4bde:	c1 f6       	brne	.-80     	; 0x4b90 <f_utime+0x56>
    4be0:	ef cf       	rjmp	.-34     	; 0x4bc0 <f_utime+0x86>

00004be2 <f_rename>:
    4be2:	ef 92       	push	r14
    4be4:	ff 92       	push	r15
    4be6:	0f 93       	push	r16
    4be8:	1f 93       	push	r17
    4bea:	cf 93       	push	r28
    4bec:	df 93       	push	r29
    4bee:	cd b7       	in	r28, 0x3d	; 61
    4bf0:	de b7       	in	r29, 0x3e	; 62
    4bf2:	cf 54       	subi	r28, 0x4F	; 79
    4bf4:	d0 40       	sbci	r29, 0x00	; 0
    4bf6:	0f b6       	in	r0, 0x3f	; 63
    4bf8:	f8 94       	cli
    4bfa:	de bf       	out	0x3e, r29	; 62
    4bfc:	0f be       	out	0x3f, r0	; 63
    4bfe:	cd bf       	out	0x3d, r28	; 61
    4c00:	60 96       	adiw	r28, 0x10	; 16
    4c02:	9f af       	sts	0x7f, r25
    4c04:	8e af       	sts	0x7e, r24
    4c06:	60 97       	sbiw	r28, 0x10	; 16
    4c08:	8b 01       	movw	r16, r22
    4c0a:	ce 01       	movw	r24, r28
    4c0c:	82 5b       	subi	r24, 0xB2	; 178
    4c0e:	9f 4f       	sbci	r25, 0xFF	; 255
    4c10:	be 01       	movw	r22, r28
    4c12:	68 5c       	subi	r22, 0xC8	; 200
    4c14:	7f 4f       	sbci	r23, 0xFF	; 255
    4c16:	41 e0       	ldi	r20, 0x01	; 1
    4c18:	0e 94 f5 0b 	call	0x17ea	; 0x17ea <chk_mounted>
    4c1c:	88 23       	and	r24, r24
    4c1e:	09 f0       	breq	.+2      	; 0x4c22 <f_rename+0x40>
    4c20:	d0 c0       	rjmp	.+416    	; 0x4dc2 <f_rename+0x1e0>
    4c22:	88 ad       	sts	0x68, r24
    4c24:	99 ad       	sts	0x69, r25
    4c26:	9b a3       	lds	r25, 0x5b
    4c28:	8a a3       	lds	r24, 0x5a
    4c2a:	ce 01       	movw	r24, r28
    4c2c:	01 96       	adiw	r24, 0x01	; 1
    4c2e:	2e 96       	adiw	r28, 0x0e	; 14
    4c30:	9f af       	sts	0x7f, r25
    4c32:	8e af       	sts	0x7e, r24
    4c34:	2e 97       	sbiw	r28, 0x0e	; 14
    4c36:	60 96       	adiw	r28, 0x10	; 16
    4c38:	6e ad       	sts	0x6e, r22
    4c3a:	7f ad       	sts	0x6f, r23
    4c3c:	60 97       	sbiw	r28, 0x10	; 16
    4c3e:	ce 01       	movw	r24, r28
    4c40:	c8 96       	adiw	r24, 0x38	; 56
    4c42:	0e 94 37 15 	call	0x2a6e	; 0x2a6e <follow_path>
    4c46:	88 23       	and	r24, r24
    4c48:	09 f0       	breq	.+2      	; 0x4c4c <f_rename+0x6a>
    4c4a:	bb c0       	rjmp	.+374    	; 0x4dc2 <f_rename+0x1e0>
    4c4c:	2e 96       	adiw	r28, 0x0e	; 14
    4c4e:	ee ad       	sts	0x6e, r30
    4c50:	ff ad       	sts	0x6f, r31
    4c52:	2e 97       	sbiw	r28, 0x0e	; 14
    4c54:	83 85       	ldd	r24, Z+11	; 0x0b
    4c56:	85 ff       	sbrs	r24, 5
    4c58:	c2 c0       	rjmp	.+388    	; 0x4dde <f_rename+0x1fc>
    4c5a:	86 e0       	ldi	r24, 0x06	; 6
    4c5c:	b2 c0       	rjmp	.+356    	; 0x4dc2 <f_rename+0x1e0>
    4c5e:	65 5f       	subi	r22, 0xF5	; 245
    4c60:	7f 4f       	sbci	r23, 0xFF	; 255
    4c62:	ce 01       	movw	r24, r28
    4c64:	0d 96       	adiw	r24, 0x0d	; 13
    4c66:	25 e1       	ldi	r18, 0x15	; 21
    4c68:	30 e0       	ldi	r19, 0x00	; 0
    4c6a:	40 e0       	ldi	r20, 0x00	; 0
    4c6c:	50 e0       	ldi	r21, 0x00	; 0
    4c6e:	0e 94 7e 09 	call	0x12fc	; 0x12fc <mem_cpy>
    4c72:	ce 01       	movw	r24, r28
    4c74:	82 96       	adiw	r24, 0x22	; 34
    4c76:	be 01       	movw	r22, r28
    4c78:	68 5c       	subi	r22, 0xC8	; 200
    4c7a:	7f 4f       	sbci	r23, 0xFF	; 255
    4c7c:	26 e1       	ldi	r18, 0x16	; 22
    4c7e:	30 e0       	ldi	r19, 0x00	; 0
    4c80:	40 e0       	ldi	r20, 0x00	; 0
    4c82:	50 e0       	ldi	r21, 0x00	; 0
    4c84:	0e 94 7e 09 	call	0x12fc	; 0x12fc <mem_cpy>
    4c88:	ce 01       	movw	r24, r28
    4c8a:	82 96       	adiw	r24, 0x22	; 34
    4c8c:	b8 01       	movw	r22, r16
    4c8e:	0e 94 37 15 	call	0x2a6e	; 0x2a6e <follow_path>
    4c92:	88 23       	and	r24, r24
    4c94:	09 f4       	brne	.+2      	; 0x4c98 <f_rename+0xb6>
    4c96:	92 c0       	rjmp	.+292    	; 0x4dbc <f_rename+0x1da>
    4c98:	84 30       	cpi	r24, 0x04	; 4
    4c9a:	09 f0       	breq	.+2      	; 0x4c9e <f_rename+0xbc>
    4c9c:	92 c0       	rjmp	.+292    	; 0x4dc2 <f_rename+0x1e0>
    4c9e:	ce 01       	movw	r24, r28
    4ca0:	82 96       	adiw	r24, 0x22	; 34
    4ca2:	0e 94 1d 17 	call	0x2e3a	; 0x2e3a <dir_register>
    4ca6:	88 23       	and	r24, r24
    4ca8:	09 f0       	breq	.+2      	; 0x4cac <f_rename+0xca>
    4caa:	8b c0       	rjmp	.+278    	; 0x4dc2 <f_rename+0x1e0>
    4cac:	ec a8       	sts	0x8c, r30
    4cae:	fd a8       	sts	0x8d, r31
    4cb0:	c7 01       	movw	r24, r14
    4cb2:	0d 96       	adiw	r24, 0x0d	; 13
    4cb4:	be 01       	movw	r22, r28
    4cb6:	61 5f       	subi	r22, 0xF1	; 241
    4cb8:	7f 4f       	sbci	r23, 0xFF	; 255
    4cba:	23 e1       	ldi	r18, 0x13	; 19
    4cbc:	30 e0       	ldi	r19, 0x00	; 0
    4cbe:	40 e0       	ldi	r20, 0x00	; 0
    4cc0:	50 e0       	ldi	r21, 0x00	; 0
    4cc2:	0e 94 7e 09 	call	0x12fc	; 0x12fc <mem_cpy>
    4cc6:	8d 85       	ldd	r24, Y+13	; 0x0d
    4cc8:	80 62       	ori	r24, 0x20	; 32
    4cca:	f7 01       	movw	r30, r14
    4ccc:	83 87       	std	Z+11, r24	; 0x0b
    4cce:	08 ad       	sts	0x68, r16
    4cd0:	19 ad       	sts	0x69, r17
    4cd2:	81 e0       	ldi	r24, 0x01	; 1
    4cd4:	f8 01       	movw	r30, r16
    4cd6:	84 83       	std	Z+4, r24	; 0x04
    4cd8:	22 96       	adiw	r28, 0x02	; 2
    4cda:	4c ad       	sts	0x6c, r20
    4cdc:	5d ad       	sts	0x6d, r21
    4cde:	6e ad       	sts	0x6e, r22
    4ce0:	7f ad       	sts	0x6f, r23
    4ce2:	22 97       	sbiw	r28, 0x02	; 2
    4ce4:	88 a5       	lds	r24, 0x68
    4ce6:	99 a5       	lds	r25, 0x69
    4ce8:	aa a5       	lds	r26, 0x6a
    4cea:	bb a5       	lds	r27, 0x6b
    4cec:	48 17       	cp	r20, r24
    4cee:	59 07       	cpc	r21, r25
    4cf0:	6a 07       	cpc	r22, r26
    4cf2:	7b 07       	cpc	r23, r27
    4cf4:	09 f4       	brne	.+2      	; 0x4cf8 <f_rename+0x116>
    4cf6:	40 c0       	rjmp	.+128    	; 0x4d78 <f_rename+0x196>
    4cf8:	f7 01       	movw	r30, r14
    4cfa:	83 85       	ldd	r24, Z+11	; 0x0b
    4cfc:	84 ff       	sbrs	r24, 4
    4cfe:	3c c0       	rjmp	.+120    	; 0x4d78 <f_rename+0x196>
    4d00:	f8 01       	movw	r30, r16
    4d02:	80 81       	ld	r24, Z
    4d04:	b7 01       	movw	r22, r14
    4d06:	0e 94 19 0b 	call	0x1632	; 0x1632 <ld_clust.isra.0>
    4d0a:	ab 01       	movw	r20, r22
    4d0c:	bc 01       	movw	r22, r24
    4d0e:	c8 01       	movw	r24, r16
    4d10:	0e 94 36 10 	call	0x206c	; 0x206c <clust2sect>
    4d14:	ab 01       	movw	r20, r22
    4d16:	bc 01       	movw	r22, r24
    4d18:	41 15       	cp	r20, r1
    4d1a:	51 05       	cpc	r21, r1
    4d1c:	61 05       	cpc	r22, r1
    4d1e:	71 05       	cpc	r23, r1
    4d20:	09 f4       	brne	.+2      	; 0x4d24 <f_rename+0x142>
    4d22:	66 c0       	rjmp	.+204    	; 0x4df0 <f_rename+0x20e>
    4d24:	c8 01       	movw	r24, r16
    4d26:	0e 94 19 0a 	call	0x1432	; 0x1432 <move_window>
    4d2a:	e8 ad       	sts	0x68, r30
    4d2c:	f9 ad       	sts	0x69, r31
    4d2e:	88 23       	and	r24, r24
    4d30:	09 f0       	breq	.+2      	; 0x4d34 <f_rename+0x152>
    4d32:	47 c0       	rjmp	.+142    	; 0x4dc2 <f_rename+0x1e0>
    4d34:	df 01       	movw	r26, r30
    4d36:	ad 5a       	subi	r26, 0xAD	; 173
    4d38:	bf 4f       	sbci	r27, 0xFF	; 255
    4d3a:	8c 91       	ld	r24, X
    4d3c:	8e 32       	cpi	r24, 0x2E	; 46
    4d3e:	e1 f4       	brne	.+56     	; 0x4d78 <f_rename+0x196>
    4d40:	80 81       	ld	r24, Z
    4d42:	48 a5       	lds	r20, 0x68
    4d44:	59 a5       	lds	r21, 0x69
    4d46:	6a a5       	lds	r22, 0x6a
    4d48:	7b a5       	lds	r23, 0x6b
    4d4a:	83 30       	cpi	r24, 0x03	; 3
    4d4c:	61 f4       	brne	.+24     	; 0x4d66 <f_rename+0x184>
    4d4e:	86 a1       	lds	r24, 0x46
    4d50:	97 a1       	lds	r25, 0x47
    4d52:	a0 a5       	lds	r26, 0x60
    4d54:	b1 a5       	lds	r27, 0x61
    4d56:	48 17       	cp	r20, r24
    4d58:	59 07       	cpc	r21, r25
    4d5a:	6a 07       	cpc	r22, r26
    4d5c:	7b 07       	cpc	r23, r27
    4d5e:	19 f4       	brne	.+6      	; 0x4d66 <f_rename+0x184>
    4d60:	40 e0       	ldi	r20, 0x00	; 0
    4d62:	50 e0       	ldi	r21, 0x00	; 0
    4d64:	ba 01       	movw	r22, r20
    4d66:	cf 01       	movw	r24, r30
    4d68:	8e 5a       	subi	r24, 0xAE	; 174
    4d6a:	9f 4f       	sbci	r25, 0xFF	; 255
    4d6c:	0e 94 90 09 	call	0x1320	; 0x1320 <st_clust>
    4d70:	e8 ad       	sts	0x68, r30
    4d72:	f9 ad       	sts	0x69, r31
    4d74:	81 e0       	ldi	r24, 0x01	; 1
    4d76:	84 83       	std	Z+4, r24	; 0x04
    4d78:	6c ad       	sts	0x6c, r22
    4d7a:	7d ad       	sts	0x6d, r23
    4d7c:	ce 01       	movw	r24, r28
    4d7e:	c8 96       	adiw	r24, 0x38	; 56
    4d80:	0e 94 7b 11 	call	0x22f6	; 0x22f6 <dir_sdi>
    4d84:	88 23       	and	r24, r24
    4d86:	e9 f4       	brne	.+58     	; 0x4dc2 <f_rename+0x1e0>
    4d88:	2a 96       	adiw	r28, 0x0a	; 10
    4d8a:	4c ad       	sts	0x6c, r20
    4d8c:	5d ad       	sts	0x6d, r21
    4d8e:	6e ad       	sts	0x6e, r22
    4d90:	7f ad       	sts	0x6f, r23
    4d92:	2a 97       	sbiw	r28, 0x0a	; 10
    4d94:	88 ad       	sts	0x68, r24
    4d96:	99 ad       	sts	0x69, r25
    4d98:	0e 94 19 0a 	call	0x1432	; 0x1432 <move_window>
    4d9c:	88 23       	and	r24, r24
    4d9e:	89 f4       	brne	.+34     	; 0x4dc2 <f_rename+0x1e0>
    4da0:	2c 96       	adiw	r28, 0x0c	; 12
    4da2:	ee ad       	sts	0x6e, r30
    4da4:	ff ad       	sts	0x6f, r31
    4da6:	2c 97       	sbiw	r28, 0x0c	; 12
    4da8:	85 ee       	ldi	r24, 0xE5	; 229
    4daa:	80 83       	st	Z, r24
    4dac:	88 ad       	sts	0x68, r24
    4dae:	99 ad       	sts	0x69, r25
    4db0:	21 e0       	ldi	r18, 0x01	; 1
    4db2:	fc 01       	movw	r30, r24
    4db4:	24 83       	std	Z+4, r18	; 0x04
    4db6:	0e 94 92 0a 	call	0x1524	; 0x1524 <sync>
    4dba:	03 c0       	rjmp	.+6      	; 0x4dc2 <f_rename+0x1e0>
    4dbc:	88 e0       	ldi	r24, 0x08	; 8
    4dbe:	01 c0       	rjmp	.+2      	; 0x4dc2 <f_rename+0x1e0>
    4dc0:	84 e0       	ldi	r24, 0x04	; 4
    4dc2:	c1 5b       	subi	r28, 0xB1	; 177
    4dc4:	df 4f       	sbci	r29, 0xFF	; 255
    4dc6:	0f b6       	in	r0, 0x3f	; 63
    4dc8:	f8 94       	cli
    4dca:	de bf       	out	0x3e, r29	; 62
    4dcc:	0f be       	out	0x3f, r0	; 63
    4dce:	cd bf       	out	0x3d, r28	; 61
    4dd0:	df 91       	pop	r29
    4dd2:	cf 91       	pop	r28
    4dd4:	1f 91       	pop	r17
    4dd6:	0f 91       	pop	r16
    4dd8:	ff 90       	pop	r15
    4dda:	ef 90       	pop	r14
    4ddc:	08 95       	ret
    4dde:	2c 96       	adiw	r28, 0x0c	; 12
    4de0:	6e ad       	sts	0x6e, r22
    4de2:	7f ad       	sts	0x6f, r23
    4de4:	2c 97       	sbiw	r28, 0x0c	; 12
    4de6:	61 15       	cp	r22, r1
    4de8:	71 05       	cpc	r23, r1
    4dea:	09 f0       	breq	.+2      	; 0x4dee <f_rename+0x20c>
    4dec:	38 cf       	rjmp	.-400    	; 0x4c5e <f_rename+0x7c>
    4dee:	e8 cf       	rjmp	.-48     	; 0x4dc0 <f_rename+0x1de>
    4df0:	82 e0       	ldi	r24, 0x02	; 2
    4df2:	e7 cf       	rjmp	.-50     	; 0x4dc2 <f_rename+0x1e0>

00004df4 <put_rc>:
    4df4:	90 e0       	ldi	r25, 0x00	; 0
    4df6:	29 ea       	ldi	r18, 0xA9	; 169
    4df8:	31 e0       	ldi	r19, 0x01	; 1
    4dfa:	07 c0       	rjmp	.+14     	; 0x4e0a <put_rc+0x16>
    4dfc:	f9 01       	movw	r30, r18
    4dfe:	2f 5f       	subi	r18, 0xFF	; 255
    4e00:	3f 4f       	sbci	r19, 0xFF	; 255
    4e02:	e4 91       	lpm	r30, Z
    4e04:	ee 23       	and	r30, r30
    4e06:	d1 f7       	brne	.-12     	; 0x4dfc <put_rc+0x8>
    4e08:	9f 5f       	subi	r25, 0xFF	; 255
    4e0a:	98 17       	cp	r25, r24
    4e0c:	21 f0       	breq	.+8      	; 0x4e16 <put_rc+0x22>
    4e0e:	f9 01       	movw	r30, r18
    4e10:	44 91       	lpm	r20, Z
    4e12:	44 23       	and	r20, r20
    4e14:	99 f7       	brne	.-26     	; 0x4dfc <put_rc+0x8>
    4e16:	00 d0       	rcall	.+0      	; 0x4e18 <put_rc+0x24>
    4e18:	00 d0       	rcall	.+0      	; 0x4e1a <put_rc+0x26>
    4e1a:	00 d0       	rcall	.+0      	; 0x4e1c <put_rc+0x28>
    4e1c:	ed b7       	in	r30, 0x3d	; 61
    4e1e:	fe b7       	in	r31, 0x3e	; 62
    4e20:	31 96       	adiw	r30, 0x01	; 1
    4e22:	45 e4       	ldi	r20, 0x45	; 69
    4e24:	59 e0       	ldi	r21, 0x09	; 9
    4e26:	ad b7       	in	r26, 0x3d	; 61
    4e28:	be b7       	in	r27, 0x3e	; 62
    4e2a:	12 96       	adiw	r26, 0x02	; 2
    4e2c:	5c 93       	st	X, r21
    4e2e:	4e 93       	st	-X, r20
    4e30:	11 97       	sbiw	r26, 0x01	; 1
    4e32:	82 83       	std	Z+2, r24	; 0x02
    4e34:	13 82       	std	Z+3, r1	; 0x03
    4e36:	35 83       	std	Z+5, r19	; 0x05
    4e38:	24 83       	std	Z+4, r18	; 0x04
    4e3a:	0e 94 03 2c 	call	0x5806	; 0x5806 <xprintf>
    4e3e:	ed b7       	in	r30, 0x3d	; 61
    4e40:	fe b7       	in	r31, 0x3e	; 62
    4e42:	36 96       	adiw	r30, 0x06	; 6
    4e44:	0f b6       	in	r0, 0x3f	; 63
    4e46:	f8 94       	cli
    4e48:	fe bf       	out	0x3e, r31	; 62
    4e4a:	0f be       	out	0x3f, r0	; 63
    4e4c:	ed bf       	out	0x3d, r30	; 61
    4e4e:	08 95       	ret

00004e50 <put_dump>:
    4e50:	af 92       	push	r10
    4e52:	bf 92       	push	r11
    4e54:	cf 92       	push	r12
    4e56:	df 92       	push	r13
    4e58:	ef 92       	push	r14
    4e5a:	ff 92       	push	r15
    4e5c:	0f 93       	push	r16
    4e5e:	1f 93       	push	r17
    4e60:	cf 93       	push	r28
    4e62:	df 93       	push	r29
    4e64:	00 d0       	rcall	.+0      	; 0x4e66 <put_dump+0x16>
    4e66:	cd b7       	in	r28, 0x3d	; 61
    4e68:	de b7       	in	r29, 0x3e	; 62
    4e6a:	d2 2e       	mov	r13, r18
    4e6c:	00 d0       	rcall	.+0      	; 0x4e6e <put_dump+0x1e>
    4e6e:	00 d0       	rcall	.+0      	; 0x4e70 <put_dump+0x20>
    4e70:	00 d0       	rcall	.+0      	; 0x4e72 <put_dump+0x22>
    4e72:	28 e3       	ldi	r18, 0x38	; 56
    4e74:	39 e0       	ldi	r19, 0x09	; 9
    4e76:	ad b7       	in	r26, 0x3d	; 61
    4e78:	be b7       	in	r27, 0x3e	; 62
    4e7a:	12 96       	adiw	r26, 0x02	; 2
    4e7c:	3c 93       	st	X, r19
    4e7e:	2e 93       	st	-X, r18
    4e80:	11 97       	sbiw	r26, 0x01	; 1
    4e82:	ed b7       	in	r30, 0x3d	; 61
    4e84:	fe b7       	in	r31, 0x3e	; 62
    4e86:	43 83       	std	Z+3, r20	; 0x03
    4e88:	54 83       	std	Z+4, r21	; 0x04
    4e8a:	65 83       	std	Z+5, r22	; 0x05
    4e8c:	76 83       	std	Z+6, r23	; 0x06
    4e8e:	89 83       	std	Y+1, r24	; 0x01
    4e90:	9a 83       	std	Y+2, r25	; 0x02
    4e92:	0e 94 03 2c 	call	0x5806	; 0x5806 <xprintf>
    4e96:	89 81       	ldd	r24, Y+1	; 0x01
    4e98:	a8 2e       	mov	r10, r24
    4e9a:	9a 81       	ldd	r25, Y+2	; 0x02
    4e9c:	b9 2e       	mov	r11, r25
    4e9e:	8d b7       	in	r24, 0x3d	; 61
    4ea0:	9e b7       	in	r25, 0x3e	; 62
    4ea2:	06 96       	adiw	r24, 0x06	; 6
    4ea4:	0f b6       	in	r0, 0x3f	; 63
    4ea6:	f8 94       	cli
    4ea8:	9e bf       	out	0x3e, r25	; 62
    4eaa:	0f be       	out	0x3f, r0	; 63
    4eac:	8d bf       	out	0x3d, r24	; 61
    4eae:	85 01       	movw	r16, r10
    4eb0:	ca 2c       	mov	r12, r10
    4eb2:	0f 2e       	mov	r0, r31
    4eb4:	ff e3       	ldi	r31, 0x3F	; 63
    4eb6:	ef 2e       	mov	r14, r31
    4eb8:	f9 e0       	ldi	r31, 0x09	; 9
    4eba:	ff 2e       	mov	r15, r31
    4ebc:	f0 2d       	mov	r31, r0
    4ebe:	16 c0       	rjmp	.+44     	; 0x4eec <put_dump+0x9c>
    4ec0:	d8 01       	movw	r26, r16
    4ec2:	8d 91       	ld	r24, X+
    4ec4:	8d 01       	movw	r16, r26
    4ec6:	00 d0       	rcall	.+0      	; 0x4ec8 <put_dump+0x78>
    4ec8:	00 d0       	rcall	.+0      	; 0x4eca <put_dump+0x7a>
    4eca:	ed b7       	in	r30, 0x3d	; 61
    4ecc:	fe b7       	in	r31, 0x3e	; 62
    4ece:	31 96       	adiw	r30, 0x01	; 1
    4ed0:	ad b7       	in	r26, 0x3d	; 61
    4ed2:	be b7       	in	r27, 0x3e	; 62
    4ed4:	12 96       	adiw	r26, 0x02	; 2
    4ed6:	fc 92       	st	X, r15
    4ed8:	ee 92       	st	-X, r14
    4eda:	11 97       	sbiw	r26, 0x01	; 1
    4edc:	82 83       	std	Z+2, r24	; 0x02
    4ede:	13 82       	std	Z+3, r1	; 0x03
    4ee0:	0e 94 03 2c 	call	0x5806	; 0x5806 <xprintf>
    4ee4:	0f 90       	pop	r0
    4ee6:	0f 90       	pop	r0
    4ee8:	0f 90       	pop	r0
    4eea:	0f 90       	pop	r0
    4eec:	80 2f       	mov	r24, r16
    4eee:	8c 19       	sub	r24, r12
    4ef0:	8d 15       	cp	r24, r13
    4ef2:	30 f3       	brcs	.-52     	; 0x4ec0 <put_dump+0x70>
    4ef4:	80 e2       	ldi	r24, 0x20	; 32
    4ef6:	08 c0       	rjmp	.+16     	; 0x4f08 <put_dump+0xb8>
    4ef8:	f5 01       	movw	r30, r10
    4efa:	81 91       	ld	r24, Z+
    4efc:	5f 01       	movw	r10, r30
    4efe:	98 2f       	mov	r25, r24
    4f00:	90 52       	subi	r25, 0x20	; 32
    4f02:	9f 35       	cpi	r25, 0x5F	; 95
    4f04:	08 f0       	brcs	.+2      	; 0x4f08 <put_dump+0xb8>
    4f06:	8e e2       	ldi	r24, 0x2E	; 46
    4f08:	0e 94 59 2b 	call	0x56b2	; 0x56b2 <xputc>
    4f0c:	8a 2d       	mov	r24, r10
    4f0e:	8c 19       	sub	r24, r12
    4f10:	8d 15       	cp	r24, r13
    4f12:	90 f3       	brcs	.-28     	; 0x4ef8 <put_dump+0xa8>
    4f14:	8a e0       	ldi	r24, 0x0A	; 10
    4f16:	0e 94 59 2b 	call	0x56b2	; 0x56b2 <xputc>
    4f1a:	0f 90       	pop	r0
    4f1c:	0f 90       	pop	r0
    4f1e:	df 91       	pop	r29
    4f20:	cf 91       	pop	r28
    4f22:	1f 91       	pop	r17
    4f24:	0f 91       	pop	r16
    4f26:	ff 90       	pop	r15
    4f28:	ef 90       	pop	r14
    4f2a:	df 90       	pop	r13
    4f2c:	cf 90       	pop	r12
    4f2e:	bf 90       	pop	r11
    4f30:	af 90       	pop	r10
    4f32:	08 95       	ret

00004f34 <scan_files.constprop.0>:
    4f34:	bf 92       	push	r11
    4f36:	cf 92       	push	r12
    4f38:	df 92       	push	r13
    4f3a:	ef 92       	push	r14
    4f3c:	ff 92       	push	r15
    4f3e:	0f 93       	push	r16
    4f40:	1f 93       	push	r17
    4f42:	cf 93       	push	r28
    4f44:	df 93       	push	r29
    4f46:	cd b7       	in	r28, 0x3d	; 61
    4f48:	de b7       	in	r29, 0x3e	; 62
    4f4a:	66 97       	sbiw	r28, 0x16	; 22
    4f4c:	0f b6       	in	r0, 0x3f	; 63
    4f4e:	f8 94       	cli
    4f50:	de bf       	out	0x3e, r29	; 62
    4f52:	0f be       	out	0x3f, r0	; 63
    4f54:	cd bf       	out	0x3d, r28	; 61
    4f56:	0a e1       	ldi	r16, 0x1A	; 26
    4f58:	19 e0       	ldi	r17, 0x09	; 9
    4f5a:	7e 01       	movw	r14, r28
    4f5c:	08 94       	sec
    4f5e:	e1 1c       	adc	r14, r1
    4f60:	f1 1c       	adc	r15, r1
    4f62:	c7 01       	movw	r24, r14
    4f64:	b8 01       	movw	r22, r16
    4f66:	0e 94 6b 20 	call	0x40d6	; 0x40d6 <f_opendir>
    4f6a:	88 23       	and	r24, r24
    4f6c:	09 f0       	breq	.+2      	; 0x4f70 <scan_files.constprop.0+0x3c>
    4f6e:	66 c0       	rjmp	.+204    	; 0x503c <scan_files.constprop.0+0x108>
    4f70:	f8 01       	movw	r30, r16
    4f72:	01 90       	ld	r0, Z+
    4f74:	00 20       	and	r0, r0
    4f76:	e9 f7       	brne	.-6      	; 0x4f72 <scan_files.constprop.0+0x3e>
    4f78:	8f 01       	movw	r16, r30
    4f7a:	01 50       	subi	r16, 0x01	; 1
    4f7c:	10 40       	sbci	r17, 0x00	; 0
    4f7e:	0a 51       	subi	r16, 0x1A	; 26
    4f80:	19 40       	sbci	r17, 0x09	; 9
    4f82:	be 2c       	mov	r11, r14
    4f84:	df 2c       	mov	r13, r15
    4f86:	8a e1       	ldi	r24, 0x1A	; 26
    4f88:	e8 2e       	mov	r14, r24
    4f8a:	89 e0       	ldi	r24, 0x09	; 9
    4f8c:	f8 2e       	mov	r15, r24
    4f8e:	e0 0e       	add	r14, r16
    4f90:	f1 1e       	adc	r15, r17
    4f92:	9f e2       	ldi	r25, 0x2F	; 47
    4f94:	c9 2e       	mov	r12, r25
    4f96:	05 5e       	subi	r16, 0xE5	; 229
    4f98:	16 4f       	sbci	r17, 0xF6	; 246
    4f9a:	43 c0       	rjmp	.+134    	; 0x5022 <scan_files.constprop.0+0xee>
    4f9c:	9e 32       	cpi	r25, 0x2E	; 46
    4f9e:	09 f4       	brne	.+2      	; 0x4fa2 <scan_files.constprop.0+0x6e>
    4fa0:	40 c0       	rjmp	.+128    	; 0x5022 <scan_files.constprop.0+0xee>
    4fa2:	80 91 c7 04 	lds	r24, 0x04C7
    4fa6:	84 ff       	sbrs	r24, 4
    4fa8:	17 c0       	rjmp	.+46     	; 0x4fd8 <scan_files.constprop.0+0xa4>
    4faa:	80 91 80 0d 	lds	r24, 0x0D80
    4fae:	90 91 81 0d 	lds	r25, 0x0D81
    4fb2:	01 96       	adiw	r24, 0x01	; 1
    4fb4:	90 93 81 0d 	sts	0x0D81, r25
    4fb8:	80 93 80 0d 	sts	0x0D80, r24
    4fbc:	f7 01       	movw	r30, r14
    4fbe:	c0 82       	st	Z, r12
    4fc0:	c8 01       	movw	r24, r16
    4fc2:	68 ec       	ldi	r22, 0xC8	; 200
    4fc4:	74 e0       	ldi	r23, 0x04	; 4
    4fc6:	0e 94 ca 37 	call	0x6f94	; 0x6f94 <strcpy>
    4fca:	0e 94 9a 27 	call	0x4f34	; 0x4f34 <scan_files.constprop.0>
    4fce:	f7 01       	movw	r30, r14
    4fd0:	10 82       	st	Z, r1
    4fd2:	88 23       	and	r24, r24
    4fd4:	31 f1       	breq	.+76     	; 0x5022 <scan_files.constprop.0+0xee>
    4fd6:	32 c0       	rjmp	.+100    	; 0x503c <scan_files.constprop.0+0x108>
    4fd8:	80 91 82 0d 	lds	r24, 0x0D82
    4fdc:	90 91 83 0d 	lds	r25, 0x0D83
    4fe0:	01 96       	adiw	r24, 0x01	; 1
    4fe2:	90 93 83 0d 	sts	0x0D83, r25
    4fe6:	80 93 82 0d 	sts	0x0D82, r24
    4fea:	80 91 16 09 	lds	r24, 0x0916
    4fee:	90 91 17 09 	lds	r25, 0x0917
    4ff2:	a0 91 18 09 	lds	r26, 0x0918
    4ff6:	b0 91 19 09 	lds	r27, 0x0919
    4ffa:	40 91 bf 04 	lds	r20, 0x04BF
    4ffe:	50 91 c0 04 	lds	r21, 0x04C0
    5002:	60 91 c1 04 	lds	r22, 0x04C1
    5006:	70 91 c2 04 	lds	r23, 0x04C2
    500a:	84 0f       	add	r24, r20
    500c:	95 1f       	adc	r25, r21
    500e:	a6 1f       	adc	r26, r22
    5010:	b7 1f       	adc	r27, r23
    5012:	80 93 16 09 	sts	0x0916, r24
    5016:	90 93 17 09 	sts	0x0917, r25
    501a:	a0 93 18 09 	sts	0x0918, r26
    501e:	b0 93 19 09 	sts	0x0919, r27
    5022:	8b 2d       	mov	r24, r11
    5024:	9d 2d       	mov	r25, r13
    5026:	6f eb       	ldi	r22, 0xBF	; 191
    5028:	74 e0       	ldi	r23, 0x04	; 4
    502a:	0e 94 cd 20 	call	0x419a	; 0x419a <f_readdir>
    502e:	88 23       	and	r24, r24
    5030:	29 f4       	brne	.+10     	; 0x503c <scan_files.constprop.0+0x108>
    5032:	90 91 c8 04 	lds	r25, 0x04C8
    5036:	99 23       	and	r25, r25
    5038:	09 f0       	breq	.+2      	; 0x503c <scan_files.constprop.0+0x108>
    503a:	b0 cf       	rjmp	.-160    	; 0x4f9c <scan_files.constprop.0+0x68>
    503c:	66 96       	adiw	r28, 0x16	; 22
    503e:	0f b6       	in	r0, 0x3f	; 63
    5040:	f8 94       	cli
    5042:	de bf       	out	0x3e, r29	; 62
    5044:	0f be       	out	0x3f, r0	; 63
    5046:	cd bf       	out	0x3d, r28	; 61
    5048:	df 91       	pop	r29
    504a:	cf 91       	pop	r28
    504c:	1f 91       	pop	r17
    504e:	0f 91       	pop	r16
    5050:	ff 90       	pop	r15
    5052:	ef 90       	pop	r14
    5054:	df 90       	pop	r13
    5056:	cf 90       	pop	r12
    5058:	bf 90       	pop	r11
    505a:	08 95       	ret

0000505c <__vector_16>:
    505c:	1f 92       	push	r1
    505e:	0f 92       	push	r0
    5060:	0f b6       	in	r0, 0x3f	; 63
    5062:	0f 92       	push	r0
    5064:	11 24       	eor	r1, r1
    5066:	2f 93       	push	r18
    5068:	3f 93       	push	r19
    506a:	4f 93       	push	r20
    506c:	5f 93       	push	r21
    506e:	6f 93       	push	r22
    5070:	7f 93       	push	r23
    5072:	8f 93       	push	r24
    5074:	9f 93       	push	r25
    5076:	af 93       	push	r26
    5078:	bf 93       	push	r27
    507a:	ef 93       	push	r30
    507c:	ff 93       	push	r31
    507e:	80 91 84 0d 	lds	r24, 0x0D84
    5082:	90 91 85 0d 	lds	r25, 0x0D85
    5086:	a0 91 86 0d 	lds	r26, 0x0D86
    508a:	b0 91 87 0d 	lds	r27, 0x0D87
    508e:	01 96       	adiw	r24, 0x01	; 1
    5090:	a1 1d       	adc	r26, r1
    5092:	b1 1d       	adc	r27, r1
    5094:	80 93 84 0d 	sts	0x0D84, r24
    5098:	90 93 85 0d 	sts	0x0D85, r25
    509c:	a0 93 86 0d 	sts	0x0D86, r26
    50a0:	b0 93 87 0d 	sts	0x0D87, r27
    50a4:	0e 94 61 09 	call	0x12c2	; 0x12c2 <disk_timerproc>
    50a8:	ff 91       	pop	r31
    50aa:	ef 91       	pop	r30
    50ac:	bf 91       	pop	r27
    50ae:	af 91       	pop	r26
    50b0:	9f 91       	pop	r25
    50b2:	8f 91       	pop	r24
    50b4:	7f 91       	pop	r23
    50b6:	6f 91       	pop	r22
    50b8:	5f 91       	pop	r21
    50ba:	4f 91       	pop	r20
    50bc:	3f 91       	pop	r19
    50be:	2f 91       	pop	r18
    50c0:	0f 90       	pop	r0
    50c2:	0f be       	out	0x3f, r0	; 63
    50c4:	0f 90       	pop	r0
    50c6:	1f 90       	pop	r1
    50c8:	18 95       	reti

000050ca <__vector_1>:
    50ca:	1f 92       	push	r1
    50cc:	0f 92       	push	r0
    50ce:	0f b6       	in	r0, 0x3f	; 63
    50d0:	0f 92       	push	r0
    50d2:	11 24       	eor	r1, r1
    50d4:	8f 93       	push	r24
    50d6:	9f 93       	push	r25
    50d8:	80 91 1a 0d 	lds	r24, 0x0D1A
    50dc:	90 91 1b 0d 	lds	r25, 0x0D1B
    50e0:	81 30       	cpi	r24, 0x01	; 1
    50e2:	91 05       	cpc	r25, r1
    50e4:	59 f4       	brne	.+22     	; 0x50fc <__vector_1+0x32>
    50e6:	5e 9a       	sbi	0x0b, 6	; 11
    50e8:	80 91 1a 0d 	lds	r24, 0x0D1A
    50ec:	90 91 1b 0d 	lds	r25, 0x0D1B
    50f0:	01 96       	adiw	r24, 0x01	; 1
    50f2:	90 93 1b 0d 	sts	0x0D1B, r25
    50f6:	80 93 1a 0d 	sts	0x0D1A, r24
    50fa:	0d c0       	rjmp	.+26     	; 0x5116 <__vector_1+0x4c>
    50fc:	80 91 1a 0d 	lds	r24, 0x0D1A
    5100:	90 91 1b 0d 	lds	r25, 0x0D1B
    5104:	82 30       	cpi	r24, 0x02	; 2
    5106:	91 05       	cpc	r25, r1
    5108:	11 f4       	brne	.+4      	; 0x510e <__vector_1+0x44>
    510a:	5e 98       	cbi	0x0b, 6	; 11
    510c:	04 c0       	rjmp	.+8      	; 0x5116 <__vector_1+0x4c>
    510e:	10 92 1b 0d 	sts	0x0D1B, r1
    5112:	10 92 1a 0d 	sts	0x0D1A, r1
    5116:	9f 91       	pop	r25
    5118:	8f 91       	pop	r24
    511a:	0f 90       	pop	r0
    511c:	0f be       	out	0x3f, r0	; 63
    511e:	0f 90       	pop	r0
    5120:	1f 90       	pop	r1
    5122:	18 95       	reti

00005124 <wrOV7670Reg>:
    5124:	cf 93       	push	r28
    5126:	df 93       	push	r29
    5128:	00 d0       	rcall	.+0      	; 0x512a <wrOV7670Reg+0x6>
    512a:	00 d0       	rcall	.+0      	; 0x512c <wrOV7670Reg+0x8>
    512c:	cd b7       	in	r28, 0x3d	; 61
    512e:	de b7       	in	r29, 0x3e	; 62
    5130:	92 e4       	ldi	r25, 0x42	; 66
    5132:	99 83       	std	Y+1, r25	; 0x01
    5134:	8a 83       	std	Y+2, r24	; 0x02
    5136:	6b 83       	std	Y+3, r22	; 0x03
    5138:	ce 01       	movw	r24, r28
    513a:	01 96       	adiw	r24, 0x01	; 1
    513c:	63 e0       	ldi	r22, 0x03	; 3
    513e:	0e 94 46 2a 	call	0x548c	; 0x548c <TWI_Start_Transceiver_With_Data>
    5142:	0e 94 3b 2a 	call	0x5476	; 0x5476 <TWI_Transceiver_Busy>
    5146:	88 23       	and	r24, r24
    5148:	e1 f7       	brne	.-8      	; 0x5142 <wrOV7670Reg+0x1e>
    514a:	80 91 84 02 	lds	r24, 0x0284
    514e:	81 70       	andi	r24, 0x01	; 1
    5150:	0f 90       	pop	r0
    5152:	0f 90       	pop	r0
    5154:	0f 90       	pop	r0
    5156:	0f 90       	pop	r0
    5158:	df 91       	pop	r29
    515a:	cf 91       	pop	r28
    515c:	08 95       	ret

0000515e <rdOV7670Reg>:
    515e:	0f 93       	push	r16
    5160:	1f 93       	push	r17
    5162:	cf 93       	push	r28
    5164:	df 93       	push	r29
    5166:	00 d0       	rcall	.+0      	; 0x5168 <rdOV7670Reg+0xa>
    5168:	00 d0       	rcall	.+0      	; 0x516a <rdOV7670Reg+0xc>
    516a:	cd b7       	in	r28, 0x3d	; 61
    516c:	de b7       	in	r29, 0x3e	; 62
    516e:	8b 01       	movw	r16, r22
    5170:	92 e4       	ldi	r25, 0x42	; 66
    5172:	99 83       	std	Y+1, r25	; 0x01
    5174:	8a 83       	std	Y+2, r24	; 0x02
    5176:	ce 01       	movw	r24, r28
    5178:	01 96       	adiw	r24, 0x01	; 1
    517a:	62 e0       	ldi	r22, 0x02	; 2
    517c:	0e 94 46 2a 	call	0x548c	; 0x548c <TWI_Start_Transceiver_With_Data>
    5180:	83 e4       	ldi	r24, 0x43	; 67
    5182:	89 83       	std	Y+1, r24	; 0x01
    5184:	ce 01       	movw	r24, r28
    5186:	01 96       	adiw	r24, 0x01	; 1
    5188:	62 e0       	ldi	r22, 0x02	; 2
    518a:	0e 94 46 2a 	call	0x548c	; 0x548c <TWI_Start_Transceiver_With_Data>
    518e:	ce 01       	movw	r24, r28
    5190:	01 96       	adiw	r24, 0x01	; 1
    5192:	62 e0       	ldi	r22, 0x02	; 2
    5194:	0e 94 74 2a 	call	0x54e8	; 0x54e8 <TWI_Get_Data_From_Transceiver>
    5198:	8a 81       	ldd	r24, Y+2	; 0x02
    519a:	f8 01       	movw	r30, r16
    519c:	80 83       	st	Z, r24
    519e:	80 91 84 02 	lds	r24, 0x0284
    51a2:	81 70       	andi	r24, 0x01	; 1
    51a4:	0f 90       	pop	r0
    51a6:	0f 90       	pop	r0
    51a8:	0f 90       	pop	r0
    51aa:	0f 90       	pop	r0
    51ac:	df 91       	pop	r29
    51ae:	cf 91       	pop	r28
    51b0:	1f 91       	pop	r17
    51b2:	0f 91       	pop	r16
    51b4:	08 95       	ret

000051b6 <OV7670_init>:
    51b6:	cf 93       	push	r28
    51b8:	df 93       	push	r29
    51ba:	10 92 1b 0d 	sts	0x0D1B, r1
    51be:	10 92 1a 0d 	sts	0x0D1A, r1
    51c2:	52 98       	cbi	0x0a, 2	; 10
    51c4:	5a 9a       	sbi	0x0b, 2	; 11
    51c6:	81 e0       	ldi	r24, 0x01	; 1
    51c8:	8d bb       	out	0x1d, r24	; 29
    51ca:	82 e0       	ldi	r24, 0x02	; 2
    51cc:	80 93 69 00 	sts	0x0069, r24
    51d0:	82 e1       	ldi	r24, 0x12	; 18
    51d2:	60 e8       	ldi	r22, 0x80	; 128
    51d4:	0e 94 92 28 	call	0x5124	; 0x5124 <wrOV7670Reg>
    51d8:	88 23       	and	r24, r24
    51da:	29 f1       	breq	.+74     	; 0x5226 <OV7670_init+0x70>
    51dc:	8f e2       	ldi	r24, 0x2F	; 47
    51de:	95 e7       	ldi	r25, 0x75	; 117
    51e0:	01 97       	sbiw	r24, 0x01	; 1
    51e2:	f1 f7       	brne	.-4      	; 0x51e0 <OV7670_init+0x2a>
    51e4:	00 c0       	rjmp	.+0      	; 0x51e6 <OV7670_init+0x30>
    51e6:	00 00       	nop
    51e8:	8a e1       	ldi	r24, 0x1A	; 26
    51ea:	99 e0       	ldi	r25, 0x09	; 9
    51ec:	6a e0       	ldi	r22, 0x0A	; 10
    51ee:	70 e0       	ldi	r23, 0x00	; 0
    51f0:	4e e4       	ldi	r20, 0x4E	; 78
    51f2:	51 e0       	ldi	r21, 0x01	; 1
    51f4:	0e 94 d1 37 	call	0x6fa2	; 0x6fa2 <__eerd_block_m644p>
    51f8:	cb e1       	ldi	r28, 0x1B	; 27
    51fa:	d9 e0       	ldi	r29, 0x09	; 9
    51fc:	fe 01       	movw	r30, r28
    51fe:	31 97       	sbiw	r30, 0x01	; 1
    5200:	80 81       	ld	r24, Z
    5202:	68 81       	ld	r22, Y
    5204:	0e 94 92 28 	call	0x5124	; 0x5124 <wrOV7670Reg>
    5208:	88 23       	and	r24, r24
    520a:	69 f0       	breq	.+26     	; 0x5226 <OV7670_init+0x70>
    520c:	87 eb       	ldi	r24, 0xB7	; 183
    520e:	9b e0       	ldi	r25, 0x0B	; 11
    5210:	01 97       	sbiw	r24, 0x01	; 1
    5212:	f1 f7       	brne	.-4      	; 0x5210 <OV7670_init+0x5a>
    5214:	00 c0       	rjmp	.+0      	; 0x5216 <OV7670_init+0x60>
    5216:	00 00       	nop
    5218:	22 96       	adiw	r28, 0x02	; 2
    521a:	9a e0       	ldi	r25, 0x0A	; 10
    521c:	c9 36       	cpi	r28, 0x69	; 105
    521e:	d9 07       	cpc	r29, r25
    5220:	69 f7       	brne	.-38     	; 0x51fc <OV7670_init+0x46>
    5222:	81 e0       	ldi	r24, 0x01	; 1
    5224:	01 c0       	rjmp	.+2      	; 0x5228 <OV7670_init+0x72>
    5226:	80 e0       	ldi	r24, 0x00	; 0
    5228:	df 91       	pop	r29
    522a:	cf 91       	pop	r28
    522c:	08 95       	ret

0000522e <FIFO_Reset>:
    522e:	5b 98       	cbi	0x0b, 3	; 11
    5230:	5f 98       	cbi	0x0b, 7	; 11
    5232:	5c 9a       	sbi	0x0b, 4	; 11
    5234:	5c 98       	cbi	0x0b, 4	; 11
    5236:	5f 9a       	sbi	0x0b, 7	; 11
    5238:	5b 9a       	sbi	0x0b, 3	; 11
    523a:	08 95       	ret

0000523c <LoadImageToBuffer>:
    523c:	80 91 1a 0d 	lds	r24, 0x0D1A
    5240:	90 91 1b 0d 	lds	r25, 0x0D1B
    5244:	00 97       	sbiw	r24, 0x00	; 0
    5246:	d1 f7       	brne	.-12     	; 0x523c <LoadImageToBuffer>
    5248:	5b 98       	cbi	0x0b, 3	; 11
    524a:	87 eb       	ldi	r24, 0xB7	; 183
    524c:	9b e0       	ldi	r25, 0x0B	; 11
    524e:	01 97       	sbiw	r24, 0x01	; 1
    5250:	f1 f7       	brne	.-4      	; 0x524e <LoadImageToBuffer+0x12>
    5252:	00 c0       	rjmp	.+0      	; 0x5254 <LoadImageToBuffer+0x18>
    5254:	00 00       	nop
    5256:	5b 9a       	sbi	0x0b, 3	; 11
    5258:	87 eb       	ldi	r24, 0xB7	; 183
    525a:	9b e0       	ldi	r25, 0x0B	; 11
    525c:	01 97       	sbiw	r24, 0x01	; 1
    525e:	f1 f7       	brne	.-4      	; 0x525c <LoadImageToBuffer+0x20>
    5260:	00 c0       	rjmp	.+0      	; 0x5262 <LoadImageToBuffer+0x26>
    5262:	00 00       	nop
    5264:	81 e0       	ldi	r24, 0x01	; 1
    5266:	90 e0       	ldi	r25, 0x00	; 0
    5268:	90 93 1b 0d 	sts	0x0D1B, r25
    526c:	80 93 1a 0d 	sts	0x0D1A, r24
    5270:	08 95       	ret

00005272 <FIFO_init>:
    5272:	8a b1       	in	r24, 0x0a	; 10
    5274:	88 6f       	ori	r24, 0xF8	; 248
    5276:	8a b9       	out	0x0a, r24	; 10
    5278:	5b 98       	cbi	0x0b, 3	; 11
    527a:	5c 98       	cbi	0x0b, 4	; 11
    527c:	5d 98       	cbi	0x0b, 5	; 11
    527e:	5f 9a       	sbi	0x0b, 7	; 11
    5280:	5e 98       	cbi	0x0b, 6	; 11
    5282:	88 e2       	ldi	r24, 0x28	; 40
    5284:	8a 95       	dec	r24
    5286:	f1 f7       	brne	.-4      	; 0x5284 <FIFO_init+0x12>
    5288:	5c 9a       	sbi	0x0b, 4	; 11
    528a:	88 e2       	ldi	r24, 0x28	; 40
    528c:	8a 95       	dec	r24
    528e:	f1 f7       	brne	.-4      	; 0x528c <FIFO_init+0x1a>
    5290:	5c 98       	cbi	0x0b, 4	; 11
    5292:	5f 98       	cbi	0x0b, 7	; 11
    5294:	88 e2       	ldi	r24, 0x28	; 40
    5296:	8a 95       	dec	r24
    5298:	f1 f7       	brne	.-4      	; 0x5296 <FIFO_init+0x24>
    529a:	5c 9a       	sbi	0x0b, 4	; 11
    529c:	88 e2       	ldi	r24, 0x28	; 40
    529e:	8a 95       	dec	r24
    52a0:	f1 f7       	brne	.-4      	; 0x529e <FIFO_init+0x2c>
    52a2:	5c 98       	cbi	0x0b, 4	; 11
    52a4:	5f 9a       	sbi	0x0b, 7	; 11
    52a6:	88 e2       	ldi	r24, 0x28	; 40
    52a8:	8a 95       	dec	r24
    52aa:	f1 f7       	brne	.-4      	; 0x52a8 <FIFO_init+0x36>
    52ac:	5b 9a       	sbi	0x0b, 3	; 11
    52ae:	81 e0       	ldi	r24, 0x01	; 1
    52b0:	08 95       	ret

000052b2 <FIFO_TO_AVR>:
    52b2:	11 b8       	out	0x01, r1	; 1
    52b4:	5c 9a       	sbi	0x0b, 4	; 11
    52b6:	80 b1       	in	r24, 0x00	; 0
    52b8:	5c 98       	cbi	0x0b, 4	; 11
    52ba:	38 2f       	mov	r19, r24
    52bc:	20 e0       	ldi	r18, 0x00	; 0
    52be:	5c 9a       	sbi	0x0b, 4	; 11
    52c0:	80 b1       	in	r24, 0x00	; 0
    52c2:	5c 98       	cbi	0x0b, 4	; 11
    52c4:	90 e0       	ldi	r25, 0x00	; 0
    52c6:	82 2b       	or	r24, r18
    52c8:	93 2b       	or	r25, r19
    52ca:	08 95       	ret

000052cc <GetImageIfAvailiable>:
    52cc:	8f 92       	push	r8
    52ce:	9f 92       	push	r9
    52d0:	af 92       	push	r10
    52d2:	bf 92       	push	r11
    52d4:	cf 92       	push	r12
    52d6:	df 92       	push	r13
    52d8:	ef 92       	push	r14
    52da:	ff 92       	push	r15
    52dc:	0f 93       	push	r16
    52de:	1f 93       	push	r17
    52e0:	cf 93       	push	r28
    52e2:	df 93       	push	r29
    52e4:	00 d0       	rcall	.+0      	; 0x52e6 <GetImageIfAvailiable+0x1a>
    52e6:	00 d0       	rcall	.+0      	; 0x52e8 <GetImageIfAvailiable+0x1c>
    52e8:	cd b7       	in	r28, 0x3d	; 61
    52ea:	de b7       	in	r29, 0x3e	; 62
    52ec:	20 91 1a 0d 	lds	r18, 0x0D1A
    52f0:	30 91 1b 0d 	lds	r19, 0x0D1B
    52f4:	22 30       	cpi	r18, 0x02	; 2
    52f6:	31 05       	cpc	r19, r1
    52f8:	09 f0       	breq	.+2      	; 0x52fc <GetImageIfAvailiable+0x30>
    52fa:	a1 c0       	rjmp	.+322    	; 0x543e <GetImageIfAvailiable+0x172>
    52fc:	5f 98       	cbi	0x0b, 7	; 11
    52fe:	5c 9a       	sbi	0x0b, 4	; 11
    5300:	5c 98       	cbi	0x0b, 4	; 11
    5302:	5f 9a       	sbi	0x0b, 7	; 11
    5304:	a7 eb       	ldi	r26, 0xB7	; 183
    5306:	bb e0       	ldi	r27, 0x0B	; 11
    5308:	11 97       	sbiw	r26, 0x01	; 1
    530a:	f1 f7       	brne	.-4      	; 0x5308 <GetImageIfAvailiable+0x3c>
    530c:	00 c0       	rjmp	.+0      	; 0x530e <GetImageIfAvailiable+0x42>
    530e:	00 00       	nop
    5310:	cc 24       	eor	r12, r12
    5312:	dd 24       	eor	r13, r13
    5314:	76 01       	movw	r14, r12
    5316:	4c 01       	movw	r8, r24
    5318:	aa 24       	eor	r10, r10
    531a:	97 fc       	sbrc	r9, 7
    531c:	a0 94       	com	r10
    531e:	ba 2c       	mov	r11, r10
    5320:	80 e0       	ldi	r24, 0x00	; 0
    5322:	98 e5       	ldi	r25, 0x58	; 88
    5324:	a2 e0       	ldi	r26, 0x02	; 2
    5326:	b0 e0       	ldi	r27, 0x00	; 0
    5328:	88 0e       	add	r8, r24
    532a:	99 1e       	adc	r9, r25
    532c:	aa 1e       	adc	r10, r26
    532e:	bb 1e       	adc	r11, r27
    5330:	53 c0       	rjmp	.+166    	; 0x53d8 <GetImageIfAvailiable+0x10c>
    5332:	0e 94 59 29 	call	0x52b2	; 0x52b2 <FIFO_TO_AVR>
    5336:	f8 01       	movw	r30, r16
    5338:	31 97       	sbiw	r30, 0x01	; 1
    533a:	10 82       	st	Z, r1
    533c:	d8 01       	movw	r26, r16
    533e:	8c 93       	st	X, r24
    5340:	0e 5f       	subi	r16, 0xFE	; 254
    5342:	1f 4f       	sbci	r17, 0xFF	; 255
    5344:	bb e0       	ldi	r27, 0x0B	; 11
    5346:	0b 39       	cpi	r16, 0x9B	; 155
    5348:	1b 07       	cpc	r17, r27
    534a:	99 f7       	brne	.-26     	; 0x5332 <GetImageIfAvailiable+0x66>
    534c:	b5 01       	movw	r22, r10
    534e:	a4 01       	movw	r20, r8
    5350:	4c 0d       	add	r20, r12
    5352:	5d 1d       	adc	r21, r13
    5354:	6e 1d       	adc	r22, r14
    5356:	7f 1d       	adc	r23, r15
    5358:	85 ed       	ldi	r24, 0xD5	; 213
    535a:	94 e0       	ldi	r25, 0x04	; 4
    535c:	0e 94 6f 1e 	call	0x3cde	; 0x3cde <f_lseek>
    5360:	85 ed       	ldi	r24, 0xD5	; 213
    5362:	94 e0       	ldi	r25, 0x04	; 4
    5364:	6a e1       	ldi	r22, 0x1A	; 26
    5366:	79 e0       	ldi	r23, 0x09	; 9
    5368:	20 e8       	ldi	r18, 0x80	; 128
    536a:	32 e0       	ldi	r19, 0x02	; 2
    536c:	40 e0       	ldi	r20, 0x00	; 0
    536e:	50 e0       	ldi	r21, 0x00	; 0
    5370:	8e 01       	movw	r16, r28
    5372:	0f 5f       	subi	r16, 0xFF	; 255
    5374:	1f 4f       	sbci	r17, 0xFF	; 255
    5376:	0e 94 5d 1b 	call	0x36ba	; 0x36ba <f_write>
    537a:	88 23       	and	r24, r24
    537c:	e1 f0       	breq	.+56     	; 0x53b6 <GetImageIfAvailiable+0xea>
    537e:	00 d0       	rcall	.+0      	; 0x5380 <GetImageIfAvailiable+0xb4>
    5380:	00 d0       	rcall	.+0      	; 0x5382 <GetImageIfAvailiable+0xb6>
    5382:	ed b7       	in	r30, 0x3d	; 61
    5384:	fe b7       	in	r31, 0x3e	; 62
    5386:	31 96       	adiw	r30, 0x01	; 1
    5388:	22 e5       	ldi	r18, 0x52	; 82
    538a:	39 e0       	ldi	r19, 0x09	; 9
    538c:	ad b7       	in	r26, 0x3d	; 61
    538e:	be b7       	in	r27, 0x3e	; 62
    5390:	12 96       	adiw	r26, 0x02	; 2
    5392:	3c 93       	st	X, r19
    5394:	2e 93       	st	-X, r18
    5396:	11 97       	sbiw	r26, 0x01	; 1
    5398:	82 83       	std	Z+2, r24	; 0x02
    539a:	13 82       	std	Z+3, r1	; 0x03
    539c:	0e 94 03 2c 	call	0x5806	; 0x5806 <xprintf>
    53a0:	10 92 1b 0d 	sts	0x0D1B, r1
    53a4:	10 92 1a 0d 	sts	0x0D1A, r1
    53a8:	0f 90       	pop	r0
    53aa:	0f 90       	pop	r0
    53ac:	0f 90       	pop	r0
    53ae:	0f 90       	pop	r0
    53b0:	0e 94 17 29 	call	0x522e	; 0x522e <FIFO_Reset>
    53b4:	42 c0       	rjmp	.+132    	; 0x543a <GetImageIfAvailiable+0x16e>
    53b6:	80 e8       	ldi	r24, 0x80	; 128
    53b8:	9d ef       	ldi	r25, 0xFD	; 253
    53ba:	af ef       	ldi	r26, 0xFF	; 255
    53bc:	bf ef       	ldi	r27, 0xFF	; 255
    53be:	c8 0e       	add	r12, r24
    53c0:	d9 1e       	adc	r13, r25
    53c2:	ea 1e       	adc	r14, r26
    53c4:	fb 1e       	adc	r15, r27
    53c6:	90 e0       	ldi	r25, 0x00	; 0
    53c8:	c9 16       	cp	r12, r25
    53ca:	98 ea       	ldi	r25, 0xA8	; 168
    53cc:	d9 06       	cpc	r13, r25
    53ce:	9d ef       	ldi	r25, 0xFD	; 253
    53d0:	e9 06       	cpc	r14, r25
    53d2:	9f ef       	ldi	r25, 0xFF	; 255
    53d4:	f9 06       	cpc	r15, r25
    53d6:	19 f0       	breq	.+6      	; 0x53de <GetImageIfAvailiable+0x112>
    53d8:	0b e1       	ldi	r16, 0x1B	; 27
    53da:	19 e0       	ldi	r17, 0x09	; 9
    53dc:	aa cf       	rjmp	.-172    	; 0x5332 <GetImageIfAvailiable+0x66>
    53de:	5f 98       	cbi	0x0b, 7	; 11
    53e0:	5c 9a       	sbi	0x0b, 4	; 11
    53e2:	5c 98       	cbi	0x0b, 4	; 11
    53e4:	5f 9a       	sbi	0x0b, 7	; 11
    53e6:	10 92 1b 0d 	sts	0x0D1B, r1
    53ea:	10 92 1a 0d 	sts	0x0D1A, r1
    53ee:	00 d0       	rcall	.+0      	; 0x53f0 <GetImageIfAvailiable+0x124>
    53f0:	87 e6       	ldi	r24, 0x67	; 103
    53f2:	99 e0       	ldi	r25, 0x09	; 9
    53f4:	ad b7       	in	r26, 0x3d	; 61
    53f6:	be b7       	in	r27, 0x3e	; 62
    53f8:	12 96       	adiw	r26, 0x02	; 2
    53fa:	9c 93       	st	X, r25
    53fc:	8e 93       	st	-X, r24
    53fe:	11 97       	sbiw	r26, 0x01	; 1
    5400:	0e 94 03 2c 	call	0x5806	; 0x5806 <xprintf>
    5404:	0f 90       	pop	r0
    5406:	0f 90       	pop	r0
    5408:	85 ed       	ldi	r24, 0xD5	; 213
    540a:	94 e0       	ldi	r25, 0x04	; 4
    540c:	0e 94 03 1e 	call	0x3c06	; 0x3c06 <f_close>
    5410:	00 d0       	rcall	.+0      	; 0x5412 <GetImageIfAvailiable+0x146>
    5412:	00 d0       	rcall	.+0      	; 0x5414 <GetImageIfAvailiable+0x148>
    5414:	ed b7       	in	r30, 0x3d	; 61
    5416:	fe b7       	in	r31, 0x3e	; 62
    5418:	31 96       	adiw	r30, 0x01	; 1
    541a:	21 e7       	ldi	r18, 0x71	; 113
    541c:	39 e0       	ldi	r19, 0x09	; 9
    541e:	ad b7       	in	r26, 0x3d	; 61
    5420:	be b7       	in	r27, 0x3e	; 62
    5422:	12 96       	adiw	r26, 0x02	; 2
    5424:	3c 93       	st	X, r19
    5426:	2e 93       	st	-X, r18
    5428:	11 97       	sbiw	r26, 0x01	; 1
    542a:	82 83       	std	Z+2, r24	; 0x02
    542c:	13 82       	std	Z+3, r1	; 0x03
    542e:	0e 94 03 2c 	call	0x5806	; 0x5806 <xprintf>
    5432:	0f 90       	pop	r0
    5434:	0f 90       	pop	r0
    5436:	0f 90       	pop	r0
    5438:	0f 90       	pop	r0
    543a:	81 e0       	ldi	r24, 0x01	; 1
    543c:	01 c0       	rjmp	.+2      	; 0x5440 <GetImageIfAvailiable+0x174>
    543e:	80 e0       	ldi	r24, 0x00	; 0
    5440:	0f 90       	pop	r0
    5442:	0f 90       	pop	r0
    5444:	0f 90       	pop	r0
    5446:	0f 90       	pop	r0
    5448:	df 91       	pop	r29
    544a:	cf 91       	pop	r28
    544c:	1f 91       	pop	r17
    544e:	0f 91       	pop	r16
    5450:	ff 90       	pop	r15
    5452:	ef 90       	pop	r14
    5454:	df 90       	pop	r13
    5456:	cf 90       	pop	r12
    5458:	bf 90       	pop	r11
    545a:	af 90       	pop	r10
    545c:	9f 90       	pop	r9
    545e:	8f 90       	pop	r8
    5460:	08 95       	ret

00005462 <TWI_Master_Initialise>:
    5462:	84 e3       	ldi	r24, 0x34	; 52
    5464:	80 93 b8 00 	sts	0x00B8, r24
    5468:	8f ef       	ldi	r24, 0xFF	; 255
    546a:	80 93 bb 00 	sts	0x00BB, r24
    546e:	84 e0       	ldi	r24, 0x04	; 4
    5470:	80 93 bc 00 	sts	0x00BC, r24
    5474:	08 95       	ret

00005476 <TWI_Transceiver_Busy>:
    5476:	80 91 bc 00 	lds	r24, 0x00BC
    547a:	81 70       	andi	r24, 0x01	; 1
    547c:	08 95       	ret

0000547e <TWI_Get_State_Info>:
    547e:	80 91 bc 00 	lds	r24, 0x00BC
    5482:	80 fd       	sbrc	r24, 0
    5484:	fc cf       	rjmp	.-8      	; 0x547e <TWI_Get_State_Info>
    5486:	80 91 7a 02 	lds	r24, 0x027A
    548a:	08 95       	ret

0000548c <TWI_Start_Transceiver_With_Data>:
    548c:	20 91 bc 00 	lds	r18, 0x00BC
    5490:	20 fd       	sbrc	r18, 0
    5492:	fc cf       	rjmp	.-8      	; 0x548c <TWI_Start_Transceiver_With_Data>
    5494:	60 93 85 02 	sts	0x0285, r22
    5498:	fc 01       	movw	r30, r24
    549a:	20 81       	ld	r18, Z
    549c:	20 93 86 02 	sts	0x0286, r18
    54a0:	20 fd       	sbrc	r18, 0
    54a2:	0c c0       	rjmp	.+24     	; 0x54bc <TWI_Start_Transceiver_With_Data+0x30>
    54a4:	28 2f       	mov	r18, r24
    54a6:	a7 e8       	ldi	r26, 0x87	; 135
    54a8:	b2 e0       	ldi	r27, 0x02	; 2
    54aa:	fc 01       	movw	r30, r24
    54ac:	02 c0       	rjmp	.+4      	; 0x54b2 <TWI_Start_Transceiver_With_Data+0x26>
    54ae:	80 81       	ld	r24, Z
    54b0:	8d 93       	st	X+, r24
    54b2:	31 96       	adiw	r30, 0x01	; 1
    54b4:	8e 2f       	mov	r24, r30
    54b6:	82 1b       	sub	r24, r18
    54b8:	86 17       	cp	r24, r22
    54ba:	c8 f3       	brcs	.-14     	; 0x54ae <TWI_Start_Transceiver_With_Data+0x22>
    54bc:	10 92 84 02 	sts	0x0284, r1
    54c0:	88 ef       	ldi	r24, 0xF8	; 248
    54c2:	80 93 7a 02 	sts	0x027A, r24
    54c6:	85 ea       	ldi	r24, 0xA5	; 165
    54c8:	80 93 bc 00 	sts	0x00BC, r24
    54cc:	08 95       	ret

000054ce <TWI_Start_Transceiver>:
    54ce:	80 91 bc 00 	lds	r24, 0x00BC
    54d2:	80 fd       	sbrc	r24, 0
    54d4:	fc cf       	rjmp	.-8      	; 0x54ce <TWI_Start_Transceiver>
    54d6:	10 92 84 02 	sts	0x0284, r1
    54da:	88 ef       	ldi	r24, 0xF8	; 248
    54dc:	80 93 7a 02 	sts	0x027A, r24
    54e0:	85 ea       	ldi	r24, 0xA5	; 165
    54e2:	80 93 bc 00 	sts	0x00BC, r24
    54e6:	08 95       	ret

000054e8 <TWI_Get_Data_From_Transceiver>:
    54e8:	20 91 bc 00 	lds	r18, 0x00BC
    54ec:	20 fd       	sbrc	r18, 0
    54ee:	fc cf       	rjmp	.-8      	; 0x54e8 <TWI_Get_Data_From_Transceiver>
    54f0:	20 91 84 02 	lds	r18, 0x0284
    54f4:	20 ff       	sbrs	r18, 0
    54f6:	0a c0       	rjmp	.+20     	; 0x550c <TWI_Get_Data_From_Transceiver+0x24>
    54f8:	a6 e8       	ldi	r26, 0x86	; 134
    54fa:	b2 e0       	ldi	r27, 0x02	; 2
    54fc:	fc 01       	movw	r30, r24
    54fe:	02 c0       	rjmp	.+4      	; 0x5504 <TWI_Get_Data_From_Transceiver+0x1c>
    5500:	9d 91       	ld	r25, X+
    5502:	91 93       	st	Z+, r25
    5504:	9e 2f       	mov	r25, r30
    5506:	98 1b       	sub	r25, r24
    5508:	96 17       	cp	r25, r22
    550a:	d0 f3       	brcs	.-12     	; 0x5500 <TWI_Get_Data_From_Transceiver+0x18>
    550c:	80 91 84 02 	lds	r24, 0x0284
    5510:	81 70       	andi	r24, 0x01	; 1
    5512:	08 95       	ret

00005514 <__vector_26>:
    5514:	1f 92       	push	r1
    5516:	0f 92       	push	r0
    5518:	0f b6       	in	r0, 0x3f	; 63
    551a:	0f 92       	push	r0
    551c:	11 24       	eor	r1, r1
    551e:	2f 93       	push	r18
    5520:	3f 93       	push	r19
    5522:	8f 93       	push	r24
    5524:	9f 93       	push	r25
    5526:	ef 93       	push	r30
    5528:	ff 93       	push	r31
    552a:	80 91 b9 00 	lds	r24, 0x00B9
    552e:	88 32       	cpi	r24, 0x28	; 40
    5530:	d1 f0       	breq	.+52     	; 0x5566 <__vector_26+0x52>
    5532:	89 32       	cpi	r24, 0x29	; 41
    5534:	40 f4       	brcc	.+16     	; 0x5546 <__vector_26+0x32>
    5536:	80 31       	cpi	r24, 0x10	; 16
    5538:	a1 f0       	breq	.+40     	; 0x5562 <__vector_26+0x4e>
    553a:	88 31       	cpi	r24, 0x18	; 24
    553c:	a1 f0       	breq	.+40     	; 0x5566 <__vector_26+0x52>
    553e:	88 30       	cpi	r24, 0x08	; 8
    5540:	09 f0       	breq	.+2      	; 0x5544 <__vector_26+0x30>
    5542:	4d c0       	rjmp	.+154    	; 0x55de <__vector_26+0xca>
    5544:	0e c0       	rjmp	.+28     	; 0x5562 <__vector_26+0x4e>
    5546:	80 34       	cpi	r24, 0x40	; 64
    5548:	59 f1       	breq	.+86     	; 0x55a0 <__vector_26+0x8c>
    554a:	81 34       	cpi	r24, 0x41	; 65
    554c:	20 f4       	brcc	.+8      	; 0x5556 <__vector_26+0x42>
    554e:	88 33       	cpi	r24, 0x38	; 56
    5550:	09 f0       	breq	.+2      	; 0x5554 <__vector_26+0x40>
    5552:	45 c0       	rjmp	.+138    	; 0x55de <__vector_26+0xca>
    5554:	42 c0       	rjmp	.+132    	; 0x55da <__vector_26+0xc6>
    5556:	80 35       	cpi	r24, 0x50	; 80
    5558:	b9 f0       	breq	.+46     	; 0x5588 <__vector_26+0x74>
    555a:	88 35       	cpi	r24, 0x58	; 88
    555c:	09 f0       	breq	.+2      	; 0x5560 <__vector_26+0x4c>
    555e:	3f c0       	rjmp	.+126    	; 0x55de <__vector_26+0xca>
    5560:	2d c0       	rjmp	.+90     	; 0x55bc <__vector_26+0xa8>
    5562:	10 92 8a 02 	sts	0x028A, r1
    5566:	80 91 8a 02 	lds	r24, 0x028A
    556a:	90 91 85 02 	lds	r25, 0x0285
    556e:	89 17       	cp	r24, r25
    5570:	68 f5       	brcc	.+90     	; 0x55cc <__vector_26+0xb8>
    5572:	e8 2f       	mov	r30, r24
    5574:	f0 e0       	ldi	r31, 0x00	; 0
    5576:	ea 57       	subi	r30, 0x7A	; 122
    5578:	fd 4f       	sbci	r31, 0xFD	; 253
    557a:	90 81       	ld	r25, Z
    557c:	90 93 bb 00 	sts	0x00BB, r25
    5580:	8f 5f       	subi	r24, 0xFF	; 255
    5582:	80 93 8a 02 	sts	0x028A, r24
    5586:	18 c0       	rjmp	.+48     	; 0x55b8 <__vector_26+0xa4>
    5588:	80 91 8a 02 	lds	r24, 0x028A
    558c:	90 91 bb 00 	lds	r25, 0x00BB
    5590:	e8 2f       	mov	r30, r24
    5592:	f0 e0       	ldi	r31, 0x00	; 0
    5594:	ea 57       	subi	r30, 0x7A	; 122
    5596:	fd 4f       	sbci	r31, 0xFD	; 253
    5598:	90 83       	st	Z, r25
    559a:	8f 5f       	subi	r24, 0xFF	; 255
    559c:	80 93 8a 02 	sts	0x028A, r24
    55a0:	20 91 8a 02 	lds	r18, 0x028A
    55a4:	30 e0       	ldi	r19, 0x00	; 0
    55a6:	80 91 85 02 	lds	r24, 0x0285
    55aa:	90 e0       	ldi	r25, 0x00	; 0
    55ac:	01 97       	sbiw	r24, 0x01	; 1
    55ae:	28 17       	cp	r18, r24
    55b0:	39 07       	cpc	r19, r25
    55b2:	14 f4       	brge	.+4      	; 0x55b8 <__vector_26+0xa4>
    55b4:	85 ec       	ldi	r24, 0xC5	; 197
    55b6:	18 c0       	rjmp	.+48     	; 0x55e8 <__vector_26+0xd4>
    55b8:	85 e8       	ldi	r24, 0x85	; 133
    55ba:	16 c0       	rjmp	.+44     	; 0x55e8 <__vector_26+0xd4>
    55bc:	80 91 bb 00 	lds	r24, 0x00BB
    55c0:	e0 91 8a 02 	lds	r30, 0x028A
    55c4:	f0 e0       	ldi	r31, 0x00	; 0
    55c6:	ea 57       	subi	r30, 0x7A	; 122
    55c8:	fd 4f       	sbci	r31, 0xFD	; 253
    55ca:	80 83       	st	Z, r24
    55cc:	80 91 84 02 	lds	r24, 0x0284
    55d0:	81 60       	ori	r24, 0x01	; 1
    55d2:	80 93 84 02 	sts	0x0284, r24
    55d6:	84 e9       	ldi	r24, 0x94	; 148
    55d8:	07 c0       	rjmp	.+14     	; 0x55e8 <__vector_26+0xd4>
    55da:	85 ea       	ldi	r24, 0xA5	; 165
    55dc:	05 c0       	rjmp	.+10     	; 0x55e8 <__vector_26+0xd4>
    55de:	80 91 b9 00 	lds	r24, 0x00B9
    55e2:	80 93 7a 02 	sts	0x027A, r24
    55e6:	84 e0       	ldi	r24, 0x04	; 4
    55e8:	80 93 bc 00 	sts	0x00BC, r24
    55ec:	ff 91       	pop	r31
    55ee:	ef 91       	pop	r30
    55f0:	9f 91       	pop	r25
    55f2:	8f 91       	pop	r24
    55f4:	3f 91       	pop	r19
    55f6:	2f 91       	pop	r18
    55f8:	0f 90       	pop	r0
    55fa:	0f be       	out	0x3f, r0	; 63
    55fc:	0f 90       	pop	r0
    55fe:	1f 90       	pop	r1
    5600:	18 95       	reti

00005602 <USART0_Init>:
    5602:	10 92 c5 00 	sts	0x00C5, r1
    5606:	8c e0       	ldi	r24, 0x0C	; 12
    5608:	80 93 c4 00 	sts	0x00C4, r24
    560c:	88 e1       	ldi	r24, 0x18	; 24
    560e:	80 93 c1 00 	sts	0x00C1, r24
    5612:	86 e0       	ldi	r24, 0x06	; 6
    5614:	80 93 c2 00 	sts	0x00C2, r24
    5618:	08 95       	ret

0000561a <Usart_SendChar>:
    561a:	90 91 c0 00 	lds	r25, 0x00C0
    561e:	95 ff       	sbrs	r25, 5
    5620:	fc cf       	rjmp	.-8      	; 0x561a <Usart_SendChar>
    5622:	80 93 c6 00 	sts	0x00C6, r24
    5626:	08 95       	ret

00005628 <Usart_Receive>:
    5628:	80 91 c0 00 	lds	r24, 0x00C0
    562c:	87 ff       	sbrs	r24, 7
    562e:	fc cf       	rjmp	.-8      	; 0x5628 <Usart_Receive>
    5630:	80 91 c6 00 	lds	r24, 0x00C6
    5634:	08 95       	ret

00005636 <Usart_printf>:
    5636:	cf 93       	push	r28
    5638:	c8 2f       	mov	r28, r24
    563a:	8a 30       	cpi	r24, 0x0A	; 10
    563c:	19 f4       	brne	.+6      	; 0x5644 <Usart_printf+0xe>
    563e:	8d e0       	ldi	r24, 0x0D	; 13
    5640:	0e 94 0d 2b 	call	0x561a	; 0x561a <Usart_SendChar>
    5644:	8c 2f       	mov	r24, r28
    5646:	0e 94 0d 2b 	call	0x561a	; 0x561a <Usart_SendChar>
    564a:	80 e0       	ldi	r24, 0x00	; 0
    564c:	90 e0       	ldi	r25, 0x00	; 0
    564e:	cf 91       	pop	r28
    5650:	08 95       	ret

00005652 <Usart_get_line>:
    5652:	ef 92       	push	r14
    5654:	ff 92       	push	r15
    5656:	0f 93       	push	r16
    5658:	1f 93       	push	r17
    565a:	cf 93       	push	r28
    565c:	df 93       	push	r29
    565e:	7c 01       	movw	r14, r24
    5660:	8b 01       	movw	r16, r22
    5662:	c0 e0       	ldi	r28, 0x00	; 0
    5664:	d0 e0       	ldi	r29, 0x00	; 0
    5666:	01 50       	subi	r16, 0x01	; 1
    5668:	10 40       	sbci	r17, 0x00	; 0
    566a:	0e 94 14 2b 	call	0x5628	; 0x5628 <Usart_Receive>
    566e:	8d 30       	cpi	r24, 0x0D	; 13
    5670:	99 f0       	breq	.+38     	; 0x5698 <Usart_get_line+0x46>
    5672:	88 30       	cpi	r24, 0x08	; 8
    5674:	21 f4       	brne	.+8      	; 0x567e <Usart_get_line+0x2c>
    5676:	20 97       	sbiw	r28, 0x00	; 0
    5678:	c1 f3       	breq	.-16     	; 0x566a <Usart_get_line+0x18>
    567a:	21 97       	sbiw	r28, 0x01	; 1
    567c:	0a c0       	rjmp	.+20     	; 0x5692 <Usart_get_line+0x40>
    567e:	80 32       	cpi	r24, 0x20	; 32
    5680:	a0 f3       	brcs	.-24     	; 0x566a <Usart_get_line+0x18>
    5682:	c0 17       	cp	r28, r16
    5684:	d1 07       	cpc	r29, r17
    5686:	8c f7       	brge	.-30     	; 0x566a <Usart_get_line+0x18>
    5688:	f7 01       	movw	r30, r14
    568a:	ec 0f       	add	r30, r28
    568c:	fd 1f       	adc	r31, r29
    568e:	80 83       	st	Z, r24
    5690:	21 96       	adiw	r28, 0x01	; 1
    5692:	0e 94 0d 2b 	call	0x561a	; 0x561a <Usart_SendChar>
    5696:	e9 cf       	rjmp	.-46     	; 0x566a <Usart_get_line+0x18>
    5698:	ce 0d       	add	r28, r14
    569a:	df 1d       	adc	r29, r15
    569c:	18 82       	st	Y, r1
    569e:	8a e0       	ldi	r24, 0x0A	; 10
    56a0:	0e 94 0d 2b 	call	0x561a	; 0x561a <Usart_SendChar>
    56a4:	df 91       	pop	r29
    56a6:	cf 91       	pop	r28
    56a8:	1f 91       	pop	r17
    56aa:	0f 91       	pop	r16
    56ac:	ff 90       	pop	r15
    56ae:	ef 90       	pop	r14
    56b0:	08 95       	ret

000056b2 <xputc>:

.func xputc
.global xputc
xputc:
#if CR_CRLF
	cpi	r24, 10		;LF --> CRLF
    56b2:	8a 30       	cpi	r24, 0x0A	; 10
	brne	1f		;
    56b4:	19 f4       	brne	.+6      	; 0x56bc <xputc+0xa>
	ldi	r24, 13		;
    56b6:	8d e0       	ldi	r24, 0x0D	; 13
	rcall	1f		;
    56b8:	01 d0       	rcall	.+2      	; 0x56bc <xputc+0xa>
	ldi	r24, 10		;/
    56ba:	8a e0       	ldi	r24, 0x0A	; 10
1:
#endif
	push	ZH
    56bc:	ff 93       	push	r31
	push	ZL
    56be:	ef 93       	push	r30
	lds	ZL, xfunc_out+0	;Pointer to the registered output function.
    56c0:	e0 91 8b 02 	lds	r30, 0x028B
	lds	ZH, xfunc_out+1	;/
    56c4:	f0 91 8c 02 	lds	r31, 0x028C
	sbiw	ZL, 0		;Skip if null
    56c8:	30 97       	sbiw	r30, 0x00	; 0
	breq	2f		;/
    56ca:	09 f0       	breq	.+2      	; 0x56ce <xputc+0x1c>
	icall
    56cc:	09 95       	icall
2:	pop	ZL
    56ce:	ef 91       	pop	r30
	pop	ZH
    56d0:	ff 91       	pop	r31
	ret
    56d2:	08 95       	ret

000056d4 <xputs>:
;			);

.func xputs
.global xputs
xputs:
	_MOVW	ZH,ZL, r25,r24	; Z = pointer to rom string
    56d4:	fc 01       	movw	r30, r24
1:	_LPMI	r24
    56d6:	85 91       	lpm	r24, Z+
	cpi	r24, 0
    56d8:	80 30       	cpi	r24, 0x00	; 0
	breq	2f
    56da:	11 f0       	breq	.+4      	; 0x56e0 <xputs+0xc>
	rcall	xputc
    56dc:	ea df       	rcall	.-44     	; 0x56b2 <xputc>
	rjmp	1b
    56de:	fb cf       	rjmp	.-10     	; 0x56d6 <xputs+0x2>
2:	ret
    56e0:	08 95       	ret

000056e2 <xitoa>:

.func xitoa
.global xitoa
xitoa:
				;r25:r22 = value, r20 = base, r18 = digits
	clr	r31		;r31 = stack level
    56e2:	ff 27       	eor	r31, r31
	ldi	r30, ' '	;r30 = sign
    56e4:	e0 e2       	ldi	r30, 0x20	; 32
	ldi	r19, ' '	;r19 = filler
    56e6:	30 e2       	ldi	r19, 0x20	; 32
	sbrs	r20, 7		;When base indicates signd format and the value
    56e8:	47 ff       	sbrs	r20, 7
	rjmp	0f		;is minus, add a '-'.
    56ea:	0c c0       	rjmp	.+24     	; 0x5704 <xitoa+0x22>
	neg	r20		;
    56ec:	41 95       	neg	r20
	sbrs	r25, 7		;
    56ee:	97 ff       	sbrs	r25, 7
	rjmp	0f		;
    56f0:	09 c0       	rjmp	.+18     	; 0x5704 <xitoa+0x22>
	ldi	r30, '-'	;
    56f2:	ed e2       	ldi	r30, 0x2D	; 45
	com	r22		;
    56f4:	60 95       	com	r22
	com	r23		;
    56f6:	70 95       	com	r23
	com	r24		;
    56f8:	80 95       	com	r24
	com	r25		;
    56fa:	90 95       	com	r25
	adc	r22, r1		;
    56fc:	61 1d       	adc	r22, r1
	adc	r23, r1		;
    56fe:	71 1d       	adc	r23, r1
	adc	r24, r1		;
    5700:	81 1d       	adc	r24, r1
	adc	r25, r1		;/
    5702:	91 1d       	adc	r25, r1
0:	sbrs	r18, 7		;When digits indicates zero filled,
    5704:	27 ff       	sbrs	r18, 7
	rjmp	1f		;filler is '0'.
    5706:	02 c0       	rjmp	.+4      	; 0x570c <xitoa+0x2a>
	neg	r18		;
    5708:	21 95       	neg	r18
	ldi	r19, '0'	;/
    570a:	30 e3       	ldi	r19, 0x30	; 48
				;----- string conversion loop
1:	ldi	r21, 32		;r26 = r25:r22 % r20
    570c:	50 e2       	ldi	r21, 0x20	; 32
	clr	r26		;r25:r22 /= r20
    570e:	aa 27       	eor	r26, r26
2:	lsl	r22		;
    5710:	66 0f       	add	r22, r22
	rol	r23		;
    5712:	77 1f       	adc	r23, r23
	rol	r24		;
    5714:	88 1f       	adc	r24, r24
	rol	r25		;
    5716:	99 1f       	adc	r25, r25
	rol	r26		;
    5718:	aa 1f       	adc	r26, r26
	cp	r26, r20	;
    571a:	a4 17       	cp	r26, r20
	brcs	3f		;
    571c:	10 f0       	brcs	.+4      	; 0x5722 <xitoa+0x40>
	sub	r26, r20	;
    571e:	a4 1b       	sub	r26, r20
	inc	r22		;
    5720:	63 95       	inc	r22
3:	dec	r21		;
    5722:	5a 95       	dec	r21
	brne	2b		;/
    5724:	a9 f7       	brne	.-22     	; 0x5710 <xitoa+0x2e>
	cpi	r26, 10		;r26 is a numeral digit '0'-'F'
    5726:	aa 30       	cpi	r26, 0x0A	; 10
	brcs	4f		;
    5728:	08 f0       	brcs	.+2      	; 0x572c <xitoa+0x4a>
	subi	r26, -7		;
    572a:	a9 5f       	subi	r26, 0xF9	; 249
4:	subi	r26, -'0'	;/
    572c:	a0 5d       	subi	r26, 0xD0	; 208
	push	r26		;Stack it
    572e:	af 93       	push	r26
	inc	r31		;/
    5730:	f3 95       	inc	r31
	cp	r22, r1		;Repeat until r25:r22 gets zero
    5732:	61 15       	cp	r22, r1
	cpc	r23, r1		;
    5734:	71 05       	cpc	r23, r1
	cpc	r24, r1		;
    5736:	81 05       	cpc	r24, r1
	cpc	r25, r1		;
    5738:	91 05       	cpc	r25, r1
	brne	1b		;/
    573a:	41 f7       	brne	.-48     	; 0x570c <xitoa+0x2a>

	cpi	r30, '-'	;Minus sign if needed
    573c:	ed 32       	cpi	r30, 0x2D	; 45
	brne	5f		;
    573e:	11 f4       	brne	.+4      	; 0x5744 <xitoa+0x62>
	push	r30		;
    5740:	ef 93       	push	r30
	inc	r31		;/
    5742:	f3 95       	inc	r31
5:	cp	r31, r18	;Filler
    5744:	f2 17       	cp	r31, r18
	brcc	6f		;
    5746:	18 f4       	brcc	.+6      	; 0x574e <xitoa+0x6c>
	push	r19		;
    5748:	3f 93       	push	r19
	inc	r31		;
    574a:	f3 95       	inc	r31
	rjmp	5b		;/
    574c:	fb cf       	rjmp	.-10     	; 0x5744 <xitoa+0x62>

6:	pop	r24		;Flush stacked digits and exit
    574e:	8f 91       	pop	r24
	rcall	xputc		;
    5750:	b0 df       	rcall	.-160    	; 0x56b2 <xputc>
	dec	r31		;
    5752:	fa 95       	dec	r31
	brne	6b		;/
    5754:	e1 f7       	brne	.-8      	; 0x574e <xitoa+0x6c>

	ret
    5756:	08 95       	ret

00005758 <xvprintf>:

#if USE_XPRINTF

.func xvprintf
xvprintf:
	ld	ZL, Y+		;Z = pointer to format string
    5758:	e9 91       	ld	r30, Y+
	ld	ZH, Y+		;/
    575a:	f9 91       	ld	r31, Y+

0:	_LPMI	r24		;Get a format char
    575c:	85 91       	lpm	r24, Z+
	cpi	r24, 0		;End of format string?
    575e:	80 30       	cpi	r24, 0x00	; 0
	breq	90f		;/
    5760:	21 f0       	breq	.+8      	; 0x576a <xvprintf+0x12>
	cpi	r24, '%'	;Is format?
    5762:	85 32       	cpi	r24, 0x25	; 37
	breq	20f		;/
    5764:	19 f0       	breq	.+6      	; 0x576c <xvprintf+0x14>
1:	rcall	xputc		;Put a normal character
    5766:	a5 df       	rcall	.-182    	; 0x56b2 <xputc>
	rjmp	0b		;/
    5768:	f9 cf       	rjmp	.-14     	; 0x575c <xvprintf+0x4>
90:	ret
    576a:	08 95       	ret

20:	ldi	r18, 0		;r18: digits
    576c:	20 e0       	ldi	r18, 0x00	; 0
	clt			;T: filler
    576e:	e8 94       	clt
	_LPMI	r21		;Get flags
    5770:	55 91       	lpm	r21, Z+
	cpi	r21, '%'	;Is a %?
    5772:	55 32       	cpi	r21, 0x25	; 37
	breq	1b		;/
    5774:	c1 f3       	breq	.-16     	; 0x5766 <xvprintf+0xe>
	cpi	r21, '0'	;Zero filled?
    5776:	50 33       	cpi	r21, 0x30	; 48
	brne	23f		;
    5778:	11 f4       	brne	.+4      	; 0x577e <xvprintf+0x26>
	set			;/
    577a:	68 94       	set
22:	_LPMI	r21		;Get width
    577c:	55 91       	lpm	r21, Z+
23:	cpi	r21, '9'+1	;
    577e:	5a 33       	cpi	r21, 0x3A	; 58
	brcc	24f		;
    5780:	48 f4       	brcc	.+18     	; 0x5794 <xvprintf+0x3c>
	subi	r21, '0'	;
    5782:	50 53       	subi	r21, 0x30	; 48
	brcs	90b		;
    5784:	90 f3       	brcs	.-28     	; 0x576a <xvprintf+0x12>
	lsl	r18		;
    5786:	22 0f       	add	r18, r18
	mov	r0, r18		;
    5788:	02 2e       	mov	r0, r18
	lsl	r18		;
    578a:	22 0f       	add	r18, r18
	lsl	r18		;
    578c:	22 0f       	add	r18, r18
	add	r18, r0		;
    578e:	20 0d       	add	r18, r0
	add	r18, r21	;
    5790:	25 0f       	add	r18, r21
	rjmp	22b		;/
    5792:	f4 cf       	rjmp	.-24     	; 0x577c <xvprintf+0x24>

24:	brtc	25f		;get value (low word)
    5794:	0e f4       	brtc	.+2      	; 0x5798 <xvprintf+0x40>
	neg	r18		;
    5796:	21 95       	neg	r18
25:	ld	r24, Y+		;
    5798:	89 91       	ld	r24, Y+
	ld	r25, Y+		;/
    579a:	99 91       	ld	r25, Y+
	cpi	r21, 'c'	;Is type character?
    579c:	53 36       	cpi	r21, 0x63	; 99
	breq	1b		;/
    579e:	19 f3       	breq	.-58     	; 0x5766 <xvprintf+0xe>
	cpi	r21, 's'	;Is type RAM string?
    57a0:	53 37       	cpi	r21, 0x73	; 115
	breq	50f		;/
    57a2:	29 f1       	breq	.+74     	; 0x57ee <xvprintf+0x96>
	cpi	r21, 'S'	;Is type ROM string?
    57a4:	53 35       	cpi	r21, 0x53	; 83
	breq	60f		;/
    57a6:	59 f1       	breq	.+86     	; 0x57fe <xvprintf+0xa6>
	_MOVW	r23,r22,r25,r24	;r25:r22 = value
    57a8:	bc 01       	movw	r22, r24
	clr	r24		;
    57aa:	88 27       	eor	r24, r24
	clr	r25		;
    57ac:	99 27       	eor	r25, r25
	clt			;/
    57ae:	e8 94       	clt
	cpi	r21, 'l'	;Is long int?
    57b0:	5c 36       	cpi	r21, 0x6C	; 108
	brne	26f		;
    57b2:	21 f4       	brne	.+8      	; 0x57bc <xvprintf+0x64>
	ld	r24, Y+		;get value (high word)
    57b4:	89 91       	ld	r24, Y+
	ld	r25, Y+		;
    57b6:	99 91       	ld	r25, Y+
	set			;
    57b8:	68 94       	set
	_LPMI	r21		;/
    57ba:	55 91       	lpm	r21, Z+
26:	cpi	r21, 'd'	;Is type signed decimal?
    57bc:	54 36       	cpi	r21, 0x64	; 100
	brne	27f		;/
    57be:	39 f4       	brne	.+14     	; 0x57ce <xvprintf+0x76>
	ldi	r20, -10	;
    57c0:	46 ef       	ldi	r20, 0xF6	; 246
	brts	40f		;
    57c2:	7e f0       	brts	.+30     	; 0x57e2 <xvprintf+0x8a>
	sbrs	r23, 7		;
    57c4:	77 ff       	sbrs	r23, 7
	rjmp	40f		;
    57c6:	0d c0       	rjmp	.+26     	; 0x57e2 <xvprintf+0x8a>
	ldi	r24, -1		;
    57c8:	8f ef       	ldi	r24, 0xFF	; 255
	ldi	r25, -1		;
    57ca:	9f ef       	ldi	r25, 0xFF	; 255
	rjmp	40f		;/
    57cc:	0a c0       	rjmp	.+20     	; 0x57e2 <xvprintf+0x8a>
27:	cpi	r21, 'u'	;Is type unsigned decimal?
    57ce:	55 37       	cpi	r21, 0x75	; 117
	ldi	r20, 10		;
    57d0:	4a e0       	ldi	r20, 0x0A	; 10
	breq	40f		;/
    57d2:	39 f0       	breq	.+14     	; 0x57e2 <xvprintf+0x8a>
	cpi	r21, 'X'	;Is type hexdecimal?
    57d4:	58 35       	cpi	r21, 0x58	; 88
	ldi	r20, 16		;
    57d6:	40 e1       	ldi	r20, 0x10	; 16
	breq	40f		;/
    57d8:	21 f0       	breq	.+8      	; 0x57e2 <xvprintf+0x8a>
	cpi	r21, 'b'	;Is type binary?
    57da:	52 36       	cpi	r21, 0x62	; 98
	ldi	r20, 2		;
    57dc:	42 e0       	ldi	r20, 0x02	; 2
	breq	40f		;/
    57de:	09 f0       	breq	.+2      	; 0x57e2 <xvprintf+0x8a>
	ret			;abort
    57e0:	08 95       	ret
40:	push	ZH		;Output the value
    57e2:	ff 93       	push	r31
	push	ZL		;
    57e4:	ef 93       	push	r30
	rcall	xitoa		;
    57e6:	7d df       	rcall	.-262    	; 0x56e2 <xitoa>
42:	pop	ZL		;
    57e8:	ef 91       	pop	r30
	pop	ZH		;
    57ea:	ff 91       	pop	r31
	rjmp	0b		;/
    57ec:	b7 cf       	rjmp	.-146    	; 0x575c <xvprintf+0x4>

50:	push	ZH		;Put a string on the RAM
    57ee:	ff 93       	push	r31
	push	ZL
    57f0:	ef 93       	push	r30
	_MOVW	ZH,ZL, r25,r24
    57f2:	fc 01       	movw	r30, r24
51:	ld	r24, Z+
    57f4:	81 91       	ld	r24, Z+
	cpi	r24, 0
    57f6:	80 30       	cpi	r24, 0x00	; 0
	breq	42b
    57f8:	b9 f3       	breq	.-18     	; 0x57e8 <xvprintf+0x90>
	rcall	xputc
    57fa:	5b df       	rcall	.-330    	; 0x56b2 <xputc>
	rjmp	51b
    57fc:	fb cf       	rjmp	.-10     	; 0x57f4 <xvprintf+0x9c>

60:	push	ZH		;Put a string on the ROM
    57fe:	ff 93       	push	r31
	push	ZL
    5800:	ef 93       	push	r30
	rcall	xputs
    5802:	68 df       	rcall	.-304    	; 0x56d4 <xputs>
	rjmp	42b
    5804:	f1 cf       	rjmp	.-30     	; 0x57e8 <xvprintf+0x90>

00005806 <xprintf>:


.func xprintf
.global xprintf
xprintf:
	push	YH
    5806:	df 93       	push	r29
	push	YL
    5808:	cf 93       	push	r28
	in	YL, _SFR_IO_ADDR(SPL)
    580a:	cd b7       	in	r28, 0x3d	; 61
#ifdef SPH
	in	YH, _SFR_IO_ADDR(SPH)
    580c:	de b7       	in	r29, 0x3e	; 62
#else
	clr	YH
#endif
	adiw	YL, 5		;Y = pointer to arguments
    580e:	25 96       	adiw	r28, 0x05	; 5
	rcall	xvprintf
    5810:	a3 df       	rcall	.-186    	; 0x5758 <xvprintf>
	pop	YL
    5812:	cf 91       	pop	r28
	pop	YH
    5814:	df 91       	pop	r29
	ret
    5816:	08 95       	ret

00005818 <xatoi>:

#if USE_XATOI
.func xatoi
.global xatoi
xatoi:
	_MOVW	r1, r0, r23, r22
    5818:	0b 01       	movw	r0, r22
	_MOVW	XH, XL, r25, r24
    581a:	dc 01       	movw	r26, r24
	ld	ZL, X+
    581c:	ed 91       	ld	r30, X+
	ld	ZH, X+
    581e:	fd 91       	ld	r31, X+
	clr	r18		;r21:r18 = 0;
    5820:	22 27       	eor	r18, r18
	clr	r19		;
    5822:	33 27       	eor	r19, r19
	clr	r20		;
    5824:	44 27       	eor	r20, r20
	clr	r21		;/
    5826:	55 27       	eor	r21, r21
	clt			;T = 0;
    5828:	e8 94       	clt

	ldi	r25, 10		;r25 = 10;
    582a:	9a e0       	ldi	r25, 0x0A	; 10
	rjmp	41f		;/
    582c:	01 c0       	rjmp	.+2      	; 0x5830 <xatoi+0x18>
40:	adiw	ZL, 1		;Z++;
    582e:	31 96       	adiw	r30, 0x01	; 1
41:	ld	r22, Z		;r22 = *Z;
    5830:	60 81       	ld	r22, Z
	cpi	r22, ' '	;if(r22 == ' ') continue
    5832:	60 32       	cpi	r22, 0x20	; 32
	breq	40b		;/
    5834:	e1 f3       	breq	.-8      	; 0x582e <xatoi+0x16>
	brcs	70f		;if(r22 < ' ') error;
    5836:	a8 f1       	brcs	.+106    	; 0x58a2 <xatoi+0x8a>
	cpi	r22, '-'	;if(r22 == '-') {
    5838:	6d 32       	cpi	r22, 0x2D	; 45
	brne	42f		; T = 1;
    583a:	11 f4       	brne	.+4      	; 0x5840 <xatoi+0x28>
	set			; continue;
    583c:	68 94       	set
	rjmp	40b		;}
    583e:	f7 cf       	rjmp	.-18     	; 0x582e <xatoi+0x16>
42:	cpi	r22, '9'+1	;if(r22 > '9') error;
    5840:	6a 33       	cpi	r22, 0x3A	; 58
	brcc	70f		;/
    5842:	78 f5       	brcc	.+94     	; 0x58a2 <xatoi+0x8a>
	cpi	r22, '0'	;if(r22 < '0') error;
    5844:	60 33       	cpi	r22, 0x30	; 48
	brcs	70f		;/
    5846:	68 f1       	brcs	.+90     	; 0x58a2 <xatoi+0x8a>
	brne	51f		;if(r22 > '0') cv_start;
    5848:	71 f4       	brne	.+28     	; 0x5866 <xatoi+0x4e>
	ldi	r25, 8		;r25 = 8;
    584a:	98 e0       	ldi	r25, 0x08	; 8
	adiw	ZL, 1		;r22 = *(++Z);
    584c:	31 96       	adiw	r30, 0x01	; 1
	ld	r22, Z		;/
    584e:	60 81       	ld	r22, Z
	cpi	r22, ' '+1	;if(r22 <= ' ') exit;
    5850:	61 32       	cpi	r22, 0x21	; 33
	brcs	80f		;/
    5852:	48 f1       	brcs	.+82     	; 0x58a6 <xatoi+0x8e>
	cpi	r22, 'b'	;if(r22 == 'b') {
    5854:	62 36       	cpi	r22, 0x62	; 98
	brne	43f		; r25 = 2;
    5856:	11 f4       	brne	.+4      	; 0x585c <xatoi+0x44>
	ldi	r25, 2		; cv_start;
    5858:	92 e0       	ldi	r25, 0x02	; 2
	rjmp	50f		;}
    585a:	03 c0       	rjmp	.+6      	; 0x5862 <xatoi+0x4a>
43:	cpi	r22, 'x'	;if(r22 != 'x') error;
    585c:	68 37       	cpi	r22, 0x78	; 120
	brne	51f		;/
    585e:	19 f4       	brne	.+6      	; 0x5866 <xatoi+0x4e>
	ldi	r25, 16		;r25 = 16;
    5860:	90 e1       	ldi	r25, 0x10	; 16

50:	adiw	ZL, 1		;Z++;
    5862:	31 96       	adiw	r30, 0x01	; 1
	ld	r22, Z		;r22 = *Z;
    5864:	60 81       	ld	r22, Z
51:	cpi	r22, ' '+1	;if(r22 <= ' ') break;
    5866:	61 32       	cpi	r22, 0x21	; 33
	brcs	80f		;/
    5868:	f0 f0       	brcs	.+60     	; 0x58a6 <xatoi+0x8e>
	cpi	r22, 'a'	;if(r22 >= 'a') r22 =- 0x20;
    586a:	61 36       	cpi	r22, 0x61	; 97
	brcs	52f		;
    586c:	08 f0       	brcs	.+2      	; 0x5870 <xatoi+0x58>
	subi	r22, 0x20	;/
    586e:	60 52       	subi	r22, 0x20	; 32
52:	subi	r22, '0'	;if((r22 -= '0') < 0) error;
    5870:	60 53       	subi	r22, 0x30	; 48
	brcs	70f		;/
    5872:	b8 f0       	brcs	.+46     	; 0x58a2 <xatoi+0x8a>
	cpi	r22, 10		;if(r22 >= 10) {
    5874:	6a 30       	cpi	r22, 0x0A	; 10
	brcs	53f		; r22 -= 7;
    5876:	18 f0       	brcs	.+6      	; 0x587e <xatoi+0x66>
	subi	r22, 7		; if(r22 < 10) 
    5878:	67 50       	subi	r22, 0x07	; 7
	cpi	r22, 10		;
    587a:	6a 30       	cpi	r22, 0x0A	; 10
	brcs	70f		;}
    587c:	90 f0       	brcs	.+36     	; 0x58a2 <xatoi+0x8a>
53:	cp	r22, r25	;if(r22 >= r25) error;
    587e:	69 17       	cp	r22, r25
	brcc	70f		;/
    5880:	80 f4       	brcc	.+32     	; 0x58a2 <xatoi+0x8a>
60:	ldi	r24, 33		;r21:r18 *= r25;
    5882:	81 e2       	ldi	r24, 0x21	; 33
	sub	r23, r23	;
    5884:	77 1b       	sub	r23, r23
61:	brcc	62f		;
    5886:	08 f4       	brcc	.+2      	; 0x588a <xatoi+0x72>
	add	r23, r25	;
    5888:	79 0f       	add	r23, r25
62:	lsr	r23		;
    588a:	76 95       	lsr	r23
	ror	r21		;
    588c:	57 95       	ror	r21
	ror	r20		;
    588e:	47 95       	ror	r20
	ror	r19		;
    5890:	37 95       	ror	r19
	ror	r18		;
    5892:	27 95       	ror	r18
	dec	r24		;
    5894:	8a 95       	dec	r24
	brne	61b		;/
    5896:	b9 f7       	brne	.-18     	; 0x5886 <xatoi+0x6e>
	add	r18, r22	;r21:r18 += r22;
    5898:	26 0f       	add	r18, r22
	adc	r19, r24	;
    589a:	38 1f       	adc	r19, r24
	adc	r20, r24	;
    589c:	48 1f       	adc	r20, r24
	adc	r21, r24	;/
    589e:	58 1f       	adc	r21, r24
	rjmp	50b		;repeat
    58a0:	e0 cf       	rjmp	.-64     	; 0x5862 <xatoi+0x4a>

70:	ldi	r24, 0
    58a2:	80 e0       	ldi	r24, 0x00	; 0
	rjmp	81f
    58a4:	01 c0       	rjmp	.+2      	; 0x58a8 <xatoi+0x90>
80:	ldi	r24, 1
    58a6:	81 e0       	ldi	r24, 0x01	; 1
81:	brtc	82f
    58a8:	4e f4       	brtc	.+18     	; 0x58bc <xatoi+0xa4>
	clr	r22
    58aa:	66 27       	eor	r22, r22
	com	r18
    58ac:	20 95       	com	r18
	com	r19
    58ae:	30 95       	com	r19
	com	r20
    58b0:	40 95       	com	r20
	com	r21
    58b2:	50 95       	com	r21
	adc	r18, r22
    58b4:	26 1f       	adc	r18, r22
	adc	r19, r22
    58b6:	36 1f       	adc	r19, r22
	adc	r20, r22
    58b8:	46 1f       	adc	r20, r22
	adc	r21, r22
    58ba:	56 1f       	adc	r21, r22
82:	st	-X, ZH
    58bc:	fe 93       	st	-X, r31
	st	-X, ZL
    58be:	ee 93       	st	-X, r30
	_MOVW	XH, XL, r1, r0
    58c0:	d0 01       	movw	r26, r0
	st	X+, r18
    58c2:	2d 93       	st	X+, r18
	st	X+, r19
    58c4:	3d 93       	st	X+, r19
	st	X+, r20
    58c6:	4d 93       	st	X+, r20
	st	X+, r21
    58c8:	5d 93       	st	X+, r21
	clr	r1
    58ca:	11 24       	eor	r1, r1
	ret
    58cc:	08 95       	ret

000058ce <main>:
    58ce:	cf 93       	push	r28
    58d0:	df 93       	push	r29
    58d2:	cd b7       	in	r28, 0x3d	; 61
    58d4:	de b7       	in	r29, 0x3e	; 62
    58d6:	e5 97       	sbiw	r28, 0x35	; 53
    58d8:	0f b6       	in	r0, 0x3f	; 63
    58da:	f8 94       	cli
    58dc:	de bf       	out	0x3e, r29	; 62
    58de:	0f be       	out	0x3f, r0	; 63
    58e0:	cd bf       	out	0x3d, r28	; 61
    58e2:	0e 94 2c 05 	call	0xa58	; 0xa58 <IO_Init>
    58e6:	0e 94 01 2b 	call	0x5602	; 0x5602 <USART0_Init>
    58ea:	8d e0       	ldi	r24, 0x0D	; 13
    58ec:	9b e2       	ldi	r25, 0x2B	; 43
    58ee:	90 93 8c 02 	sts	0x028C, r25
    58f2:	80 93 8b 02 	sts	0x028B, r24
    58f6:	24 b7       	in	r18, 0x34	; 52
    58f8:	14 be       	out	0x34, r1	; 52
    58fa:	00 d0       	rcall	.+0      	; 0x58fc <main+0x2e>
    58fc:	00 d0       	rcall	.+0      	; 0x58fe <main+0x30>
    58fe:	ed b7       	in	r30, 0x3d	; 61
    5900:	fe b7       	in	r31, 0x3e	; 62
    5902:	31 96       	adiw	r30, 0x01	; 1
    5904:	8c ed       	ldi	r24, 0xDC	; 220
    5906:	90 e0       	ldi	r25, 0x00	; 0
    5908:	ad b7       	in	r26, 0x3d	; 61
    590a:	be b7       	in	r27, 0x3e	; 62
    590c:	12 96       	adiw	r26, 0x02	; 2
    590e:	9c 93       	st	X, r25
    5910:	8e 93       	st	-X, r24
    5912:	11 97       	sbiw	r26, 0x01	; 1
    5914:	22 83       	std	Z+2, r18	; 0x02
    5916:	13 82       	std	Z+3, r1	; 0x03
    5918:	0e 94 03 2c 	call	0x5806	; 0x5806 <xprintf>
    591c:	0f 90       	pop	r0
    591e:	0f 90       	pop	r0
    5920:	0f 90       	pop	r0
    5922:	0f 90       	pop	r0
    5924:	88 ee       	ldi	r24, 0xE8	; 232
    5926:	90 e0       	ldi	r25, 0x00	; 0
    5928:	0e 94 6a 2b 	call	0x56d4	; 0x56d4 <xputs>
    592c:	8a e0       	ldi	r24, 0x0A	; 10
    592e:	91 e0       	ldi	r25, 0x01	; 1
    5930:	0e 94 6a 2b 	call	0x56d4	; 0x56d4 <xputs>
    5934:	00 d0       	rcall	.+0      	; 0x5936 <main+0x68>
    5936:	00 d0       	rcall	.+0      	; 0x5938 <main+0x6a>
    5938:	87 e1       	ldi	r24, 0x17	; 23
    593a:	91 e0       	ldi	r25, 0x01	; 1
    593c:	ed b7       	in	r30, 0x3d	; 61
    593e:	fe b7       	in	r31, 0x3e	; 62
    5940:	92 83       	std	Z+2, r25	; 0x02
    5942:	81 83       	std	Z+1, r24	; 0x01
    5944:	84 ea       	ldi	r24, 0xA4	; 164
    5946:	93 e0       	ldi	r25, 0x03	; 3
    5948:	94 83       	std	Z+4, r25	; 0x04
    594a:	83 83       	std	Z+3, r24	; 0x03
    594c:	0e 94 03 2c 	call	0x5806	; 0x5806 <xprintf>
    5950:	0f 90       	pop	r0
    5952:	0f 90       	pop	r0
    5954:	0f 90       	pop	r0
    5956:	0f 90       	pop	r0
    5958:	88 e2       	ldi	r24, 0x28	; 40
    595a:	91 e0       	ldi	r25, 0x01	; 1
    595c:	0e 94 6a 2b 	call	0x56d4	; 0x56d4 <xputs>
    5960:	0e 94 31 2a 	call	0x5462	; 0x5462 <TWI_Master_Initialise>
    5964:	00 d0       	rcall	.+0      	; 0x5966 <main+0x98>
    5966:	82 e6       	ldi	r24, 0x62	; 98
    5968:	91 e0       	ldi	r25, 0x01	; 1
    596a:	ad b7       	in	r26, 0x3d	; 61
    596c:	be b7       	in	r27, 0x3e	; 62
    596e:	12 96       	adiw	r26, 0x02	; 2
    5970:	9c 93       	st	X, r25
    5972:	8e 93       	st	-X, r24
    5974:	11 97       	sbiw	r26, 0x01	; 1
    5976:	0e 94 03 2c 	call	0x5806	; 0x5806 <xprintf>
    597a:	0f 90       	pop	r0
    597c:	0f 90       	pop	r0
    597e:	0e 94 39 29 	call	0x5272	; 0x5272 <FIFO_init>
    5982:	00 d0       	rcall	.+0      	; 0x5984 <main+0xb6>
    5984:	00 d0       	rcall	.+0      	; 0x5986 <main+0xb8>
    5986:	ed b7       	in	r30, 0x3d	; 61
    5988:	fe b7       	in	r31, 0x3e	; 62
    598a:	31 96       	adiw	r30, 0x01	; 1
    598c:	24 e7       	ldi	r18, 0x74	; 116
    598e:	31 e0       	ldi	r19, 0x01	; 1
    5990:	ad b7       	in	r26, 0x3d	; 61
    5992:	be b7       	in	r27, 0x3e	; 62
    5994:	12 96       	adiw	r26, 0x02	; 2
    5996:	3c 93       	st	X, r19
    5998:	2e 93       	st	-X, r18
    599a:	11 97       	sbiw	r26, 0x01	; 1
    599c:	82 83       	std	Z+2, r24	; 0x02
    599e:	13 82       	std	Z+3, r1	; 0x03
    59a0:	0e 94 03 2c 	call	0x5806	; 0x5806 <xprintf>
    59a4:	0f 90       	pop	r0
    59a6:	0f 90       	pop	r0
    59a8:	0f 90       	pop	r0
    59aa:	0f 90       	pop	r0
    59ac:	0e 94 db 28 	call	0x51b6	; 0x51b6 <OV7670_init>
    59b0:	00 d0       	rcall	.+0      	; 0x59b2 <main+0xe4>
    59b2:	00 d0       	rcall	.+0      	; 0x59b4 <main+0xe6>
    59b4:	ed b7       	in	r30, 0x3d	; 61
    59b6:	fe b7       	in	r31, 0x3e	; 62
    59b8:	31 96       	adiw	r30, 0x01	; 1
    59ba:	29 e8       	ldi	r18, 0x89	; 137
    59bc:	31 e0       	ldi	r19, 0x01	; 1
    59be:	ad b7       	in	r26, 0x3d	; 61
    59c0:	be b7       	in	r27, 0x3e	; 62
    59c2:	12 96       	adiw	r26, 0x02	; 2
    59c4:	3c 93       	st	X, r19
    59c6:	2e 93       	st	-X, r18
    59c8:	11 97       	sbiw	r26, 0x01	; 1
    59ca:	82 83       	std	Z+2, r24	; 0x02
    59cc:	13 82       	std	Z+3, r1	; 0x03
    59ce:	0e 94 03 2c 	call	0x5806	; 0x5806 <xprintf>
    59d2:	0f 90       	pop	r0
    59d4:	0f 90       	pop	r0
    59d6:	0f 90       	pop	r0
    59d8:	0f 90       	pop	r0
    59da:	44 24       	eor	r4, r4
    59dc:	55 24       	eor	r5, r5
    59de:	32 01       	movw	r6, r4
    59e0:	6c e1       	ldi	r22, 0x1C	; 28
    59e2:	26 2e       	mov	r2, r22
    59e4:	6d e0       	ldi	r22, 0x0D	; 13
    59e6:	36 2e       	mov	r3, r22
    59e8:	8e e3       	ldi	r24, 0x3E	; 62
    59ea:	0e 94 59 2b 	call	0x56b2	; 0x56b2 <xputc>
    59ee:	3d 82       	std	Y+5, r3	; 0x05
    59f0:	2c 82       	std	Y+4, r2	; 0x04
    59f2:	8c e1       	ldi	r24, 0x1C	; 28
    59f4:	9d e0       	ldi	r25, 0x0D	; 13
    59f6:	64 e6       	ldi	r22, 0x64	; 100
    59f8:	70 e0       	ldi	r23, 0x00	; 0
    59fa:	0e 94 29 2b 	call	0x5652	; 0x5652 <Usart_get_line>
    59fe:	ec 81       	ldd	r30, Y+4	; 0x04
    5a00:	fd 81       	ldd	r31, Y+5	; 0x05
    5a02:	df 01       	movw	r26, r30
    5a04:	8d 91       	ld	r24, X+
    5a06:	bd 83       	std	Y+5, r27	; 0x05
    5a08:	ac 83       	std	Y+4, r26	; 0x04
    5a0a:	84 36       	cpi	r24, 0x64	; 100
    5a0c:	81 f0       	breq	.+32     	; 0x5a2e <main+0x160>
    5a0e:	85 36       	cpi	r24, 0x65	; 101
    5a10:	38 f4       	brcc	.+14     	; 0x5a20 <main+0x152>
    5a12:	8f 33       	cpi	r24, 0x3F	; 63
    5a14:	11 f4       	brne	.+4      	; 0x5a1a <main+0x14c>
    5a16:	0c 94 56 37 	jmp	0x6eac	; 0x6eac <main+0x15de>
    5a1a:	82 36       	cpi	r24, 0x62	; 98
    5a1c:	29 f7       	brne	.-54     	; 0x59e8 <main+0x11a>
    5a1e:	b4 c1       	rjmp	.+872    	; 0x5d88 <main+0x4ba>
    5a20:	86 36       	cpi	r24, 0x66	; 102
    5a22:	09 f4       	brne	.+2      	; 0x5a26 <main+0x158>
    5a24:	15 c3       	rjmp	.+1578   	; 0x6050 <main+0x782>
    5a26:	80 37       	cpi	r24, 0x70	; 112
    5a28:	f9 f6       	brne	.-66     	; 0x59e8 <main+0x11a>
    5a2a:	0c 94 48 37 	jmp	0x6e90	; 0x6e90 <main+0x15c2>
    5a2e:	81 81       	ldd	r24, Z+1	; 0x01
    5a30:	11 96       	adiw	r26, 0x01	; 1
    5a32:	bd 83       	std	Y+5, r27	; 0x05
    5a34:	ac 83       	std	Y+4, r26	; 0x04
    5a36:	89 36       	cpi	r24, 0x69	; 105
    5a38:	09 f4       	brne	.+2      	; 0x5a3c <main+0x16e>
    5a3a:	71 c0       	rjmp	.+226    	; 0x5b1e <main+0x250>
    5a3c:	83 37       	cpi	r24, 0x73	; 115
    5a3e:	09 f4       	brne	.+2      	; 0x5a42 <main+0x174>
    5a40:	91 c0       	rjmp	.+290    	; 0x5b64 <main+0x296>
    5a42:	84 36       	cpi	r24, 0x64	; 100
    5a44:	89 f6       	brne	.-94     	; 0x59e8 <main+0x11a>
    5a46:	ce 01       	movw	r24, r28
    5a48:	04 96       	adiw	r24, 0x04	; 4
    5a4a:	be 01       	movw	r22, r28
    5a4c:	66 5e       	subi	r22, 0xE6	; 230
    5a4e:	7f 4f       	sbci	r23, 0xFF	; 255
    5a50:	0e 94 0c 2c 	call	0x5818	; 0x5818 <xatoi>
    5a54:	88 23       	and	r24, r24
    5a56:	41 f2       	breq	.-112    	; 0x59e8 <main+0x11a>
    5a58:	ce 01       	movw	r24, r28
    5a5a:	04 96       	adiw	r24, 0x04	; 4
    5a5c:	be 01       	movw	r22, r28
    5a5e:	6a 5e       	subi	r22, 0xEA	; 234
    5a60:	7f 4f       	sbci	r23, 0xFF	; 255
    5a62:	0e 94 0c 2c 	call	0x5818	; 0x5818 <xatoi>
    5a66:	88 23       	and	r24, r24
    5a68:	21 f4       	brne	.+8      	; 0x5a72 <main+0x1a4>
    5a6a:	4e 8a       	std	Y+22, r4	; 0x16
    5a6c:	5f 8a       	std	Y+23, r5	; 0x17
    5a6e:	68 8e       	std	Y+24, r6	; 0x18
    5a70:	79 8e       	std	Y+25, r7	; 0x19
    5a72:	2e 89       	ldd	r18, Y+22	; 0x16
    5a74:	3f 89       	ldd	r19, Y+23	; 0x17
    5a76:	48 8d       	ldd	r20, Y+24	; 0x18
    5a78:	59 8d       	ldd	r21, Y+25	; 0x19
    5a7a:	8a 8d       	ldd	r24, Y+26	; 0x1a
    5a7c:	6a e1       	ldi	r22, 0x1A	; 26
    5a7e:	79 e0       	ldi	r23, 0x09	; 9
    5a80:	01 e0       	ldi	r16, 0x01	; 1
    5a82:	0e 94 02 07 	call	0xe04	; 0xe04 <disk_read>
    5a86:	88 23       	and	r24, r24
    5a88:	41 f0       	breq	.+16     	; 0x5a9a <main+0x1cc>
    5a8a:	00 d0       	rcall	.+0      	; 0x5a8c <main+0x1be>
    5a8c:	00 d0       	rcall	.+0      	; 0x5a8e <main+0x1c0>
    5a8e:	ed b7       	in	r30, 0x3d	; 61
    5a90:	fe b7       	in	r31, 0x3e	; 62
    5a92:	31 96       	adiw	r30, 0x01	; 1
    5a94:	20 ea       	ldi	r18, 0xA0	; 160
    5a96:	31 e0       	ldi	r19, 0x01	; 1
    5a98:	56 c0       	rjmp	.+172    	; 0x5b46 <main+0x278>
    5a9a:	8e 89       	ldd	r24, Y+22	; 0x16
    5a9c:	9f 89       	ldd	r25, Y+23	; 0x17
    5a9e:	a8 8d       	ldd	r26, Y+24	; 0x18
    5aa0:	b9 8d       	ldd	r27, Y+25	; 0x19
    5aa2:	2c 01       	movw	r4, r24
    5aa4:	3d 01       	movw	r6, r26
    5aa6:	08 94       	sec
    5aa8:	41 1c       	adc	r4, r1
    5aaa:	51 1c       	adc	r5, r1
    5aac:	61 1c       	adc	r6, r1
    5aae:	71 1c       	adc	r7, r1
    5ab0:	00 d0       	rcall	.+0      	; 0x5ab2 <main+0x1e4>
    5ab2:	00 d0       	rcall	.+0      	; 0x5ab4 <main+0x1e6>
    5ab4:	00 d0       	rcall	.+0      	; 0x5ab6 <main+0x1e8>
    5ab6:	27 ea       	ldi	r18, 0xA7	; 167
    5ab8:	31 e0       	ldi	r19, 0x01	; 1
    5aba:	ed b7       	in	r30, 0x3d	; 61
    5abc:	fe b7       	in	r31, 0x3e	; 62
    5abe:	32 83       	std	Z+2, r19	; 0x02
    5ac0:	21 83       	std	Z+1, r18	; 0x01
    5ac2:	83 83       	std	Z+3, r24	; 0x03
    5ac4:	94 83       	std	Z+4, r25	; 0x04
    5ac6:	a5 83       	std	Z+5, r26	; 0x05
    5ac8:	b6 83       	std	Z+6, r27	; 0x06
    5aca:	0e 94 03 2c 	call	0x5806	; 0x5806 <xprintf>
    5ace:	2d b7       	in	r18, 0x3d	; 61
    5ad0:	3e b7       	in	r19, 0x3e	; 62
    5ad2:	2a 5f       	subi	r18, 0xFA	; 250
    5ad4:	3f 4f       	sbci	r19, 0xFF	; 255
    5ad6:	0f b6       	in	r0, 0x3f	; 63
    5ad8:	f8 94       	cli
    5ada:	3e bf       	out	0x3e, r19	; 62
    5adc:	0f be       	out	0x3f, r0	; 63
    5ade:	2d bf       	out	0x3d, r18	; 61
    5ae0:	cc 24       	eor	r12, r12
    5ae2:	dd 24       	eor	r13, r13
    5ae4:	76 01       	movw	r14, r12
    5ae6:	0a e1       	ldi	r16, 0x1A	; 26
    5ae8:	19 e0       	ldi	r17, 0x09	; 9
    5aea:	c8 01       	movw	r24, r16
    5aec:	b7 01       	movw	r22, r14
    5aee:	a6 01       	movw	r20, r12
    5af0:	20 e1       	ldi	r18, 0x10	; 16
    5af2:	0e 94 28 27 	call	0x4e50	; 0x4e50 <put_dump>
    5af6:	00 5f       	subi	r16, 0xF0	; 240
    5af8:	1f 4f       	sbci	r17, 0xFF	; 255
    5afa:	80 e1       	ldi	r24, 0x10	; 16
    5afc:	90 e0       	ldi	r25, 0x00	; 0
    5afe:	a0 e0       	ldi	r26, 0x00	; 0
    5b00:	b0 e0       	ldi	r27, 0x00	; 0
    5b02:	c8 0e       	add	r12, r24
    5b04:	d9 1e       	adc	r13, r25
    5b06:	ea 1e       	adc	r14, r26
    5b08:	fb 1e       	adc	r15, r27
    5b0a:	90 e0       	ldi	r25, 0x00	; 0
    5b0c:	c9 16       	cp	r12, r25
    5b0e:	92 e0       	ldi	r25, 0x02	; 2
    5b10:	d9 06       	cpc	r13, r25
    5b12:	90 e0       	ldi	r25, 0x00	; 0
    5b14:	e9 06       	cpc	r14, r25
    5b16:	90 e0       	ldi	r25, 0x00	; 0
    5b18:	f9 06       	cpc	r15, r25
    5b1a:	39 f7       	brne	.-50     	; 0x5aea <main+0x21c>
    5b1c:	65 cf       	rjmp	.-310    	; 0x59e8 <main+0x11a>
    5b1e:	ce 01       	movw	r24, r28
    5b20:	04 96       	adiw	r24, 0x04	; 4
    5b22:	be 01       	movw	r22, r28
    5b24:	66 5e       	subi	r22, 0xE6	; 230
    5b26:	7f 4f       	sbci	r23, 0xFF	; 255
    5b28:	0e 94 0c 2c 	call	0x5818	; 0x5818 <xatoi>
    5b2c:	88 23       	and	r24, r24
    5b2e:	09 f4       	brne	.+2      	; 0x5b32 <main+0x264>
    5b30:	5b cf       	rjmp	.-330    	; 0x59e8 <main+0x11a>
    5b32:	8a 8d       	ldd	r24, Y+26	; 0x1a
    5b34:	0e 94 34 06 	call	0xc68	; 0xc68 <disk_initialize>
    5b38:	00 d0       	rcall	.+0      	; 0x5b3a <main+0x26c>
    5b3a:	00 d0       	rcall	.+0      	; 0x5b3c <main+0x26e>
    5b3c:	ed b7       	in	r30, 0x3d	; 61
    5b3e:	fe b7       	in	r31, 0x3e	; 62
    5b40:	31 96       	adiw	r30, 0x01	; 1
    5b42:	23 eb       	ldi	r18, 0xB3	; 179
    5b44:	31 e0       	ldi	r19, 0x01	; 1
    5b46:	ad b7       	in	r26, 0x3d	; 61
    5b48:	be b7       	in	r27, 0x3e	; 62
    5b4a:	12 96       	adiw	r26, 0x02	; 2
    5b4c:	3c 93       	st	X, r19
    5b4e:	2e 93       	st	-X, r18
    5b50:	11 97       	sbiw	r26, 0x01	; 1
    5b52:	82 83       	std	Z+2, r24	; 0x02
    5b54:	13 82       	std	Z+3, r1	; 0x03
    5b56:	0e 94 03 2c 	call	0x5806	; 0x5806 <xprintf>
    5b5a:	0f 90       	pop	r0
    5b5c:	0f 90       	pop	r0
    5b5e:	0f 90       	pop	r0
    5b60:	0f 90       	pop	r0
    5b62:	42 cf       	rjmp	.-380    	; 0x59e8 <main+0x11a>
    5b64:	ce 01       	movw	r24, r28
    5b66:	04 96       	adiw	r24, 0x04	; 4
    5b68:	be 01       	movw	r22, r28
    5b6a:	66 5e       	subi	r22, 0xE6	; 230
    5b6c:	7f 4f       	sbci	r23, 0xFF	; 255
    5b6e:	0e 94 0c 2c 	call	0x5818	; 0x5818 <xatoi>
    5b72:	88 23       	and	r24, r24
    5b74:	09 f4       	brne	.+2      	; 0x5b78 <main+0x2aa>
    5b76:	38 cf       	rjmp	.-400    	; 0x59e8 <main+0x11a>
    5b78:	8a 8d       	ldd	r24, Y+26	; 0x1a
    5b7a:	61 e0       	ldi	r22, 0x01	; 1
    5b7c:	ae 01       	movw	r20, r28
    5b7e:	4a 5e       	subi	r20, 0xEA	; 234
    5b80:	5f 4f       	sbci	r21, 0xFF	; 255
    5b82:	0e 94 c5 07 	call	0xf8a	; 0xf8a <disk_ioctl>
    5b86:	88 23       	and	r24, r24
    5b88:	e1 f4       	brne	.+56     	; 0x5bc2 <main+0x2f4>
    5b8a:	00 d0       	rcall	.+0      	; 0x5b8c <main+0x2be>
    5b8c:	00 d0       	rcall	.+0      	; 0x5b8e <main+0x2c0>
    5b8e:	00 d0       	rcall	.+0      	; 0x5b90 <main+0x2c2>
    5b90:	8a eb       	ldi	r24, 0xBA	; 186
    5b92:	91 e0       	ldi	r25, 0x01	; 1
    5b94:	ed b7       	in	r30, 0x3d	; 61
    5b96:	fe b7       	in	r31, 0x3e	; 62
    5b98:	92 83       	std	Z+2, r25	; 0x02
    5b9a:	81 83       	std	Z+1, r24	; 0x01
    5b9c:	8e 89       	ldd	r24, Y+22	; 0x16
    5b9e:	9f 89       	ldd	r25, Y+23	; 0x17
    5ba0:	a8 8d       	ldd	r26, Y+24	; 0x18
    5ba2:	b9 8d       	ldd	r27, Y+25	; 0x19
    5ba4:	83 83       	std	Z+3, r24	; 0x03
    5ba6:	94 83       	std	Z+4, r25	; 0x04
    5ba8:	a5 83       	std	Z+5, r26	; 0x05
    5baa:	b6 83       	std	Z+6, r27	; 0x06
    5bac:	0e 94 03 2c 	call	0x5806	; 0x5806 <xprintf>
    5bb0:	2d b7       	in	r18, 0x3d	; 61
    5bb2:	3e b7       	in	r19, 0x3e	; 62
    5bb4:	2a 5f       	subi	r18, 0xFA	; 250
    5bb6:	3f 4f       	sbci	r19, 0xFF	; 255
    5bb8:	0f b6       	in	r0, 0x3f	; 63
    5bba:	f8 94       	cli
    5bbc:	3e bf       	out	0x3e, r19	; 62
    5bbe:	0f be       	out	0x3f, r0	; 63
    5bc0:	2d bf       	out	0x3d, r18	; 61
    5bc2:	8a 8d       	ldd	r24, Y+26	; 0x1a
    5bc4:	63 e0       	ldi	r22, 0x03	; 3
    5bc6:	ae 01       	movw	r20, r28
    5bc8:	4a 5e       	subi	r20, 0xEA	; 234
    5bca:	5f 4f       	sbci	r21, 0xFF	; 255
    5bcc:	0e 94 c5 07 	call	0xf8a	; 0xf8a <disk_ioctl>
    5bd0:	88 23       	and	r24, r24
    5bd2:	01 f5       	brne	.+64     	; 0x5c14 <main+0x346>
    5bd4:	00 d0       	rcall	.+0      	; 0x5bd6 <main+0x308>
    5bd6:	00 d0       	rcall	.+0      	; 0x5bd8 <main+0x30a>
    5bd8:	00 d0       	rcall	.+0      	; 0x5bda <main+0x30c>
    5bda:	83 ed       	ldi	r24, 0xD3	; 211
    5bdc:	91 e0       	ldi	r25, 0x01	; 1
    5bde:	ad b7       	in	r26, 0x3d	; 61
    5be0:	be b7       	in	r27, 0x3e	; 62
    5be2:	12 96       	adiw	r26, 0x02	; 2
    5be4:	9c 93       	st	X, r25
    5be6:	8e 93       	st	-X, r24
    5be8:	11 97       	sbiw	r26, 0x01	; 1
    5bea:	8e 89       	ldd	r24, Y+22	; 0x16
    5bec:	9f 89       	ldd	r25, Y+23	; 0x17
    5bee:	a8 8d       	ldd	r26, Y+24	; 0x18
    5bf0:	b9 8d       	ldd	r27, Y+25	; 0x19
    5bf2:	ed b7       	in	r30, 0x3d	; 61
    5bf4:	fe b7       	in	r31, 0x3e	; 62
    5bf6:	83 83       	std	Z+3, r24	; 0x03
    5bf8:	94 83       	std	Z+4, r25	; 0x04
    5bfa:	a5 83       	std	Z+5, r26	; 0x05
    5bfc:	b6 83       	std	Z+6, r27	; 0x06
    5bfe:	0e 94 03 2c 	call	0x5806	; 0x5806 <xprintf>
    5c02:	2d b7       	in	r18, 0x3d	; 61
    5c04:	3e b7       	in	r19, 0x3e	; 62
    5c06:	2a 5f       	subi	r18, 0xFA	; 250
    5c08:	3f 4f       	sbci	r19, 0xFF	; 255
    5c0a:	0f b6       	in	r0, 0x3f	; 63
    5c0c:	f8 94       	cli
    5c0e:	3e bf       	out	0x3e, r19	; 62
    5c10:	0f be       	out	0x3f, r0	; 63
    5c12:	2d bf       	out	0x3d, r18	; 61
    5c14:	8a 8d       	ldd	r24, Y+26	; 0x1a
    5c16:	6a e0       	ldi	r22, 0x0A	; 10
    5c18:	ae 01       	movw	r20, r28
    5c1a:	4f 5f       	subi	r20, 0xFF	; 255
    5c1c:	5f 4f       	sbci	r21, 0xFF	; 255
    5c1e:	0e 94 c5 07 	call	0xf8a	; 0xf8a <disk_ioctl>
    5c22:	88 23       	and	r24, r24
    5c24:	b1 f4       	brne	.+44     	; 0x5c52 <main+0x384>
    5c26:	00 d0       	rcall	.+0      	; 0x5c28 <main+0x35a>
    5c28:	00 d0       	rcall	.+0      	; 0x5c2a <main+0x35c>
    5c2a:	ed b7       	in	r30, 0x3d	; 61
    5c2c:	fe b7       	in	r31, 0x3e	; 62
    5c2e:	31 96       	adiw	r30, 0x01	; 1
    5c30:	8d ee       	ldi	r24, 0xED	; 237
    5c32:	91 e0       	ldi	r25, 0x01	; 1
    5c34:	ad b7       	in	r26, 0x3d	; 61
    5c36:	be b7       	in	r27, 0x3e	; 62
    5c38:	12 96       	adiw	r26, 0x02	; 2
    5c3a:	9c 93       	st	X, r25
    5c3c:	8e 93       	st	-X, r24
    5c3e:	11 97       	sbiw	r26, 0x01	; 1
    5c40:	89 81       	ldd	r24, Y+1	; 0x01
    5c42:	82 83       	std	Z+2, r24	; 0x02
    5c44:	13 82       	std	Z+3, r1	; 0x03
    5c46:	0e 94 03 2c 	call	0x5806	; 0x5806 <xprintf>
    5c4a:	0f 90       	pop	r0
    5c4c:	0f 90       	pop	r0
    5c4e:	0f 90       	pop	r0
    5c50:	0f 90       	pop	r0
    5c52:	8a 8d       	ldd	r24, Y+26	; 0x1a
    5c54:	6b e0       	ldi	r22, 0x0B	; 11
    5c56:	4a e1       	ldi	r20, 0x1A	; 26
    5c58:	59 e0       	ldi	r21, 0x09	; 9
    5c5a:	0e 94 c5 07 	call	0xf8a	; 0xf8a <disk_ioctl>
    5c5e:	88 23       	and	r24, r24
    5c60:	61 f4       	brne	.+24     	; 0x5c7a <main+0x3ac>
    5c62:	8c ef       	ldi	r24, 0xFC	; 252
    5c64:	91 e0       	ldi	r25, 0x01	; 1
    5c66:	0e 94 6a 2b 	call	0x56d4	; 0x56d4 <xputs>
    5c6a:	8a e1       	ldi	r24, 0x1A	; 26
    5c6c:	99 e0       	ldi	r25, 0x09	; 9
    5c6e:	40 e0       	ldi	r20, 0x00	; 0
    5c70:	50 e0       	ldi	r21, 0x00	; 0
    5c72:	ba 01       	movw	r22, r20
    5c74:	20 e1       	ldi	r18, 0x10	; 16
    5c76:	0e 94 28 27 	call	0x4e50	; 0x4e50 <put_dump>
    5c7a:	8a 8d       	ldd	r24, Y+26	; 0x1a
    5c7c:	6c e0       	ldi	r22, 0x0C	; 12
    5c7e:	4a e1       	ldi	r20, 0x1A	; 26
    5c80:	59 e0       	ldi	r21, 0x09	; 9
    5c82:	0e 94 c5 07 	call	0xf8a	; 0xf8a <disk_ioctl>
    5c86:	88 23       	and	r24, r24
    5c88:	61 f4       	brne	.+24     	; 0x5ca2 <main+0x3d4>
    5c8a:	82 e0       	ldi	r24, 0x02	; 2
    5c8c:	92 e0       	ldi	r25, 0x02	; 2
    5c8e:	0e 94 6a 2b 	call	0x56d4	; 0x56d4 <xputs>
    5c92:	8a e1       	ldi	r24, 0x1A	; 26
    5c94:	99 e0       	ldi	r25, 0x09	; 9
    5c96:	40 e0       	ldi	r20, 0x00	; 0
    5c98:	50 e0       	ldi	r21, 0x00	; 0
    5c9a:	ba 01       	movw	r22, r20
    5c9c:	20 e1       	ldi	r18, 0x10	; 16
    5c9e:	0e 94 28 27 	call	0x4e50	; 0x4e50 <put_dump>
    5ca2:	8a 8d       	ldd	r24, Y+26	; 0x1a
    5ca4:	6d e0       	ldi	r22, 0x0D	; 13
    5ca6:	4a e1       	ldi	r20, 0x1A	; 26
    5ca8:	59 e0       	ldi	r21, 0x09	; 9
    5caa:	0e 94 c5 07 	call	0xf8a	; 0xf8a <disk_ioctl>
    5cae:	88 23       	and	r24, r24
    5cb0:	61 f4       	brne	.+24     	; 0x5cca <main+0x3fc>
    5cb2:	88 e0       	ldi	r24, 0x08	; 8
    5cb4:	92 e0       	ldi	r25, 0x02	; 2
    5cb6:	0e 94 6a 2b 	call	0x56d4	; 0x56d4 <xputs>
    5cba:	8a e1       	ldi	r24, 0x1A	; 26
    5cbc:	99 e0       	ldi	r25, 0x09	; 9
    5cbe:	40 e0       	ldi	r20, 0x00	; 0
    5cc0:	50 e0       	ldi	r21, 0x00	; 0
    5cc2:	ba 01       	movw	r22, r20
    5cc4:	24 e0       	ldi	r18, 0x04	; 4
    5cc6:	0e 94 28 27 	call	0x4e50	; 0x4e50 <put_dump>
    5cca:	8a 8d       	ldd	r24, Y+26	; 0x1a
    5ccc:	6e e0       	ldi	r22, 0x0E	; 14
    5cce:	4a e1       	ldi	r20, 0x1A	; 26
    5cd0:	59 e0       	ldi	r21, 0x09	; 9
    5cd2:	0e 94 c5 07 	call	0xf8a	; 0xf8a <disk_ioctl>
    5cd6:	88 23       	and	r24, r24
    5cd8:	19 f5       	brne	.+70     	; 0x5d20 <main+0x452>
    5cda:	8e e0       	ldi	r24, 0x0E	; 14
    5cdc:	92 e0       	ldi	r25, 0x02	; 2
    5cde:	0e 94 6a 2b 	call	0x56d4	; 0x56d4 <xputs>
    5ce2:	1e 86       	std	Y+14, r1	; 0x0e
    5ce4:	1f 86       	std	Y+15, r1	; 0x0f
    5ce6:	18 8a       	std	Y+16, r1	; 0x10
    5ce8:	19 8a       	std	Y+17, r1	; 0x11
    5cea:	11 c0       	rjmp	.+34     	; 0x5d0e <main+0x440>
    5cec:	ca 01       	movw	r24, r20
    5cee:	86 5e       	subi	r24, 0xE6	; 230
    5cf0:	96 4f       	sbci	r25, 0xF6	; 246
    5cf2:	20 e1       	ldi	r18, 0x10	; 16
    5cf4:	0e 94 28 27 	call	0x4e50	; 0x4e50 <put_dump>
    5cf8:	8e 85       	ldd	r24, Y+14	; 0x0e
    5cfa:	9f 85       	ldd	r25, Y+15	; 0x0f
    5cfc:	a8 89       	ldd	r26, Y+16	; 0x10
    5cfe:	b9 89       	ldd	r27, Y+17	; 0x11
    5d00:	40 96       	adiw	r24, 0x10	; 16
    5d02:	a1 1d       	adc	r26, r1
    5d04:	b1 1d       	adc	r27, r1
    5d06:	8e 87       	std	Y+14, r24	; 0x0e
    5d08:	9f 87       	std	Y+15, r25	; 0x0f
    5d0a:	a8 8b       	std	Y+16, r26	; 0x10
    5d0c:	b9 8b       	std	Y+17, r27	; 0x11
    5d0e:	4e 85       	ldd	r20, Y+14	; 0x0e
    5d10:	5f 85       	ldd	r21, Y+15	; 0x0f
    5d12:	68 89       	ldd	r22, Y+16	; 0x10
    5d14:	79 89       	ldd	r23, Y+17	; 0x11
    5d16:	40 34       	cpi	r20, 0x40	; 64
    5d18:	51 05       	cpc	r21, r1
    5d1a:	61 05       	cpc	r22, r1
    5d1c:	71 05       	cpc	r23, r1
    5d1e:	30 f3       	brcs	.-52     	; 0x5cec <main+0x41e>
    5d20:	8a 8d       	ldd	r24, Y+26	; 0x1a
    5d22:	65 e1       	ldi	r22, 0x15	; 21
    5d24:	4c e1       	ldi	r20, 0x1C	; 28
    5d26:	5d e0       	ldi	r21, 0x0D	; 13
    5d28:	0e 94 c5 07 	call	0xf8a	; 0xf8a <disk_ioctl>
    5d2c:	88 23       	and	r24, r24
    5d2e:	91 f4       	brne	.+36     	; 0x5d54 <main+0x486>
    5d30:	10 92 44 0d 	sts	0x0D44, r1
    5d34:	00 d0       	rcall	.+0      	; 0x5d36 <main+0x468>
    5d36:	00 d0       	rcall	.+0      	; 0x5d38 <main+0x46a>
    5d38:	8a e1       	ldi	r24, 0x1A	; 26
    5d3a:	92 e0       	ldi	r25, 0x02	; 2
    5d3c:	ed b7       	in	r30, 0x3d	; 61
    5d3e:	fe b7       	in	r31, 0x3e	; 62
    5d40:	92 83       	std	Z+2, r25	; 0x02
    5d42:	81 83       	std	Z+1, r24	; 0x01
    5d44:	34 82       	std	Z+4, r3	; 0x04
    5d46:	23 82       	std	Z+3, r2	; 0x03
    5d48:	0e 94 03 2c 	call	0x5806	; 0x5806 <xprintf>
    5d4c:	0f 90       	pop	r0
    5d4e:	0f 90       	pop	r0
    5d50:	0f 90       	pop	r0
    5d52:	0f 90       	pop	r0
    5d54:	8a 8d       	ldd	r24, Y+26	; 0x1a
    5d56:	66 e1       	ldi	r22, 0x16	; 22
    5d58:	4c e1       	ldi	r20, 0x1C	; 28
    5d5a:	5d e0       	ldi	r21, 0x0D	; 13
    5d5c:	0e 94 c5 07 	call	0xf8a	; 0xf8a <disk_ioctl>
    5d60:	88 23       	and	r24, r24
    5d62:	09 f0       	breq	.+2      	; 0x5d66 <main+0x498>
    5d64:	41 ce       	rjmp	.-894    	; 0x59e8 <main+0x11a>
    5d66:	10 92 30 0d 	sts	0x0D30, r1
    5d6a:	00 d0       	rcall	.+0      	; 0x5d6c <main+0x49e>
    5d6c:	00 d0       	rcall	.+0      	; 0x5d6e <main+0x4a0>
    5d6e:	85 e2       	ldi	r24, 0x25	; 37
    5d70:	92 e0       	ldi	r25, 0x02	; 2
    5d72:	ad b7       	in	r26, 0x3d	; 61
    5d74:	be b7       	in	r27, 0x3e	; 62
    5d76:	12 96       	adiw	r26, 0x02	; 2
    5d78:	9c 93       	st	X, r25
    5d7a:	8e 93       	st	-X, r24
    5d7c:	11 97       	sbiw	r26, 0x01	; 1
    5d7e:	14 96       	adiw	r26, 0x04	; 4
    5d80:	3c 92       	st	X, r3
    5d82:	2e 92       	st	-X, r2
    5d84:	13 97       	sbiw	r26, 0x03	; 3
    5d86:	e7 ce       	rjmp	.-562    	; 0x5b56 <main+0x288>
    5d88:	81 81       	ldd	r24, Z+1	; 0x01
    5d8a:	11 96       	adiw	r26, 0x01	; 1
    5d8c:	bd 83       	std	Y+5, r27	; 0x05
    5d8e:	ac 83       	std	Y+4, r26	; 0x04
    5d90:	86 36       	cpi	r24, 0x66	; 102
    5d92:	09 f4       	brne	.+2      	; 0x5d96 <main+0x4c8>
    5d94:	4a c1       	rjmp	.+660    	; 0x602a <main+0x75c>
    5d96:	87 36       	cpi	r24, 0x67	; 103
    5d98:	30 f4       	brcc	.+12     	; 0x5da6 <main+0x4d8>
    5d9a:	84 36       	cpi	r24, 0x64	; 100
    5d9c:	59 f0       	breq	.+22     	; 0x5db4 <main+0x4e6>
    5d9e:	85 36       	cpi	r24, 0x65	; 101
    5da0:	09 f0       	breq	.+2      	; 0x5da4 <main+0x4d6>
    5da2:	22 ce       	rjmp	.-956    	; 0x59e8 <main+0x11a>
    5da4:	4a c0       	rjmp	.+148    	; 0x5e3a <main+0x56c>
    5da6:	82 37       	cpi	r24, 0x72	; 114
    5da8:	09 f4       	brne	.+2      	; 0x5dac <main+0x4de>
    5daa:	d1 c0       	rjmp	.+418    	; 0x5f4e <main+0x680>
    5dac:	87 37       	cpi	r24, 0x77	; 119
    5dae:	09 f0       	breq	.+2      	; 0x5db2 <main+0x4e4>
    5db0:	1b ce       	rjmp	.-970    	; 0x59e8 <main+0x11a>
    5db2:	04 c1       	rjmp	.+520    	; 0x5fbc <main+0x6ee>
    5db4:	ce 01       	movw	r24, r28
    5db6:	04 96       	adiw	r24, 0x04	; 4
    5db8:	be 01       	movw	r22, r28
    5dba:	66 5e       	subi	r22, 0xE6	; 230
    5dbc:	7f 4f       	sbci	r23, 0xFF	; 255
    5dbe:	0e 94 0c 2c 	call	0x5818	; 0x5818 <xatoi>
    5dc2:	88 23       	and	r24, r24
    5dc4:	09 f4       	brne	.+2      	; 0x5dc8 <main+0x4fa>
    5dc6:	10 ce       	rjmp	.-992    	; 0x59e8 <main+0x11a>
    5dc8:	8a 8d       	ldd	r24, Y+26	; 0x1a
    5dca:	9b 8d       	ldd	r25, Y+27	; 0x1b
    5dcc:	ac 8d       	ldd	r26, Y+28	; 0x1c
    5dce:	bd 8d       	ldd	r27, Y+29	; 0x1d
    5dd0:	8c 01       	movw	r16, r24
    5dd2:	06 5e       	subi	r16, 0xE6	; 230
    5dd4:	16 4f       	sbci	r17, 0xF6	; 246
    5dd6:	6c 01       	movw	r12, r24
    5dd8:	7d 01       	movw	r14, r26
    5dda:	80 e2       	ldi	r24, 0x20	; 32
    5ddc:	90 e0       	ldi	r25, 0x00	; 0
    5dde:	a0 e0       	ldi	r26, 0x00	; 0
    5de0:	b0 e0       	ldi	r27, 0x00	; 0
    5de2:	8e 83       	std	Y+6, r24	; 0x06
    5de4:	9f 83       	std	Y+7, r25	; 0x07
    5de6:	a8 87       	std	Y+8, r26	; 0x08
    5de8:	b9 87       	std	Y+9, r27	; 0x09
    5dea:	1e c0       	rjmp	.+60     	; 0x5e28 <main+0x55a>
    5dec:	c8 01       	movw	r24, r16
    5dee:	b7 01       	movw	r22, r14
    5df0:	a6 01       	movw	r20, r12
    5df2:	20 e1       	ldi	r18, 0x10	; 16
    5df4:	0e 94 28 27 	call	0x4e50	; 0x4e50 <put_dump>
    5df8:	8e 81       	ldd	r24, Y+6	; 0x06
    5dfa:	9f 81       	ldd	r25, Y+7	; 0x07
    5dfc:	a8 85       	ldd	r26, Y+8	; 0x08
    5dfe:	b9 85       	ldd	r27, Y+9	; 0x09
    5e00:	01 97       	sbiw	r24, 0x01	; 1
    5e02:	a1 09       	sbc	r26, r1
    5e04:	b1 09       	sbc	r27, r1
    5e06:	8e 83       	std	Y+6, r24	; 0x06
    5e08:	9f 83       	std	Y+7, r25	; 0x07
    5e0a:	a8 87       	std	Y+8, r26	; 0x08
    5e0c:	b9 87       	std	Y+9, r27	; 0x09
    5e0e:	8c 81       	ldd	r24, Y+4	; 0x04
    5e10:	9d 81       	ldd	r25, Y+5	; 0x05
    5e12:	40 96       	adiw	r24, 0x10	; 16
    5e14:	9d 83       	std	Y+5, r25	; 0x05
    5e16:	8c 83       	std	Y+4, r24	; 0x04
    5e18:	20 e1       	ldi	r18, 0x10	; 16
    5e1a:	30 e0       	ldi	r19, 0x00	; 0
    5e1c:	40 e0       	ldi	r20, 0x00	; 0
    5e1e:	50 e0       	ldi	r21, 0x00	; 0
    5e20:	c2 0e       	add	r12, r18
    5e22:	d3 1e       	adc	r13, r19
    5e24:	e4 1e       	adc	r14, r20
    5e26:	f5 1e       	adc	r15, r21
    5e28:	8e 81       	ldd	r24, Y+6	; 0x06
    5e2a:	9f 81       	ldd	r25, Y+7	; 0x07
    5e2c:	a8 85       	ldd	r26, Y+8	; 0x08
    5e2e:	b9 85       	ldd	r27, Y+9	; 0x09
    5e30:	00 97       	sbiw	r24, 0x00	; 0
    5e32:	a1 05       	cpc	r26, r1
    5e34:	b1 05       	cpc	r27, r1
    5e36:	d1 f6       	brne	.-76     	; 0x5dec <main+0x51e>
    5e38:	d7 cd       	rjmp	.-1106   	; 0x59e8 <main+0x11a>
    5e3a:	ce 01       	movw	r24, r28
    5e3c:	04 96       	adiw	r24, 0x04	; 4
    5e3e:	be 01       	movw	r22, r28
    5e40:	66 5e       	subi	r22, 0xE6	; 230
    5e42:	7f 4f       	sbci	r23, 0xFF	; 255
    5e44:	0e 94 0c 2c 	call	0x5818	; 0x5818 <xatoi>
    5e48:	88 23       	and	r24, r24
    5e4a:	09 f4       	brne	.+2      	; 0x5e4e <main+0x580>
    5e4c:	cd cd       	rjmp	.-1126   	; 0x59e8 <main+0x11a>
    5e4e:	ce 01       	movw	r24, r28
    5e50:	04 96       	adiw	r24, 0x04	; 4
    5e52:	be 01       	movw	r22, r28
    5e54:	6a 5e       	subi	r22, 0xEA	; 234
    5e56:	7f 4f       	sbci	r23, 0xFF	; 255
    5e58:	0e 94 0c 2c 	call	0x5818	; 0x5818 <xatoi>
    5e5c:	88 23       	and	r24, r24
    5e5e:	d1 f0       	breq	.+52     	; 0x5e94 <main+0x5c6>
    5e60:	8a 8d       	ldd	r24, Y+26	; 0x1a
    5e62:	9b 8d       	ldd	r25, Y+27	; 0x1b
    5e64:	ac 8d       	ldd	r26, Y+28	; 0x1c
    5e66:	bd 8d       	ldd	r27, Y+29	; 0x1d
    5e68:	fc 01       	movw	r30, r24
    5e6a:	e6 5e       	subi	r30, 0xE6	; 230
    5e6c:	f6 4f       	sbci	r31, 0xF6	; 246
    5e6e:	2e 89       	ldd	r18, Y+22	; 0x16
    5e70:	20 83       	st	Z, r18
    5e72:	01 96       	adiw	r24, 0x01	; 1
    5e74:	a1 1d       	adc	r26, r1
    5e76:	b1 1d       	adc	r27, r1
    5e78:	8a 8f       	std	Y+26, r24	; 0x1a
    5e7a:	9b 8f       	std	Y+27, r25	; 0x1b
    5e7c:	ac 8f       	std	Y+28, r26	; 0x1c
    5e7e:	bd 8f       	std	Y+29, r27	; 0x1d
    5e80:	ce 01       	movw	r24, r28
    5e82:	04 96       	adiw	r24, 0x04	; 4
    5e84:	be 01       	movw	r22, r28
    5e86:	6a 5e       	subi	r22, 0xEA	; 234
    5e88:	7f 4f       	sbci	r23, 0xFF	; 255
    5e8a:	0e 94 0c 2c 	call	0x5818	; 0x5818 <xatoi>
    5e8e:	88 23       	and	r24, r24
    5e90:	39 f7       	brne	.-50     	; 0x5e60 <main+0x592>
    5e92:	aa cd       	rjmp	.-1196   	; 0x59e8 <main+0x11a>
    5e94:	8a 8d       	ldd	r24, Y+26	; 0x1a
    5e96:	9b 8d       	ldd	r25, Y+27	; 0x1b
    5e98:	ac 8d       	ldd	r26, Y+28	; 0x1c
    5e9a:	bd 8d       	ldd	r27, Y+29	; 0x1d
    5e9c:	00 d0       	rcall	.+0      	; 0x5e9e <main+0x5d0>
    5e9e:	00 d0       	rcall	.+0      	; 0x5ea0 <main+0x5d2>
    5ea0:	00 d0       	rcall	.+0      	; 0x5ea2 <main+0x5d4>
    5ea2:	2d b7       	in	r18, 0x3d	; 61
    5ea4:	3e b7       	in	r19, 0x3e	; 62
    5ea6:	2f 5f       	subi	r18, 0xFF	; 255
    5ea8:	3f 4f       	sbci	r19, 0xFF	; 255
    5eaa:	5e e2       	ldi	r21, 0x2E	; 46
    5eac:	a5 2e       	mov	r10, r21
    5eae:	52 e0       	ldi	r21, 0x02	; 2
    5eb0:	b5 2e       	mov	r11, r21
    5eb2:	ed b7       	in	r30, 0x3d	; 61
    5eb4:	fe b7       	in	r31, 0x3e	; 62
    5eb6:	b2 82       	std	Z+2, r11	; 0x02
    5eb8:	a1 82       	std	Z+1, r10	; 0x01
    5eba:	f9 01       	movw	r30, r18
    5ebc:	93 83       	std	Z+3, r25	; 0x03
    5ebe:	82 83       	std	Z+2, r24	; 0x02
    5ec0:	fc 01       	movw	r30, r24
    5ec2:	e6 5e       	subi	r30, 0xE6	; 230
    5ec4:	f6 4f       	sbci	r31, 0xF6	; 246
    5ec6:	80 81       	ld	r24, Z
    5ec8:	d9 01       	movw	r26, r18
    5eca:	14 96       	adiw	r26, 0x04	; 4
    5ecc:	8c 93       	st	X, r24
    5ece:	14 97       	sbiw	r26, 0x04	; 4
    5ed0:	15 96       	adiw	r26, 0x05	; 5
    5ed2:	1c 92       	st	X, r1
    5ed4:	0e 94 03 2c 	call	0x5806	; 0x5806 <xprintf>
    5ed8:	ed b7       	in	r30, 0x3d	; 61
    5eda:	fe b7       	in	r31, 0x3e	; 62
    5edc:	36 96       	adiw	r30, 0x06	; 6
    5ede:	0f b6       	in	r0, 0x3f	; 63
    5ee0:	f8 94       	cli
    5ee2:	fe bf       	out	0x3e, r31	; 62
    5ee4:	0f be       	out	0x3f, r0	; 63
    5ee6:	ed bf       	out	0x3d, r30	; 61
    5ee8:	8c e1       	ldi	r24, 0x1C	; 28
    5eea:	9d e0       	ldi	r25, 0x0D	; 13
    5eec:	64 e6       	ldi	r22, 0x64	; 100
    5eee:	70 e0       	ldi	r23, 0x00	; 0
    5ef0:	0e 94 29 2b 	call	0x5652	; 0x5652 <Usart_get_line>
    5ef4:	3d 82       	std	Y+5, r3	; 0x05
    5ef6:	2c 82       	std	Y+4, r2	; 0x04
    5ef8:	80 91 1c 0d 	lds	r24, 0x0D1C
    5efc:	8e 32       	cpi	r24, 0x2E	; 46
    5efe:	09 f4       	brne	.+2      	; 0x5f02 <main+0x634>
    5f00:	73 cd       	rjmp	.-1306   	; 0x59e8 <main+0x11a>
    5f02:	80 32       	cpi	r24, 0x20	; 32
    5f04:	28 f4       	brcc	.+10     	; 0x5f10 <main+0x642>
    5f06:	8a 8d       	ldd	r24, Y+26	; 0x1a
    5f08:	9b 8d       	ldd	r25, Y+27	; 0x1b
    5f0a:	ac 8d       	ldd	r26, Y+28	; 0x1c
    5f0c:	bd 8d       	ldd	r27, Y+29	; 0x1d
    5f0e:	12 c0       	rjmp	.+36     	; 0x5f34 <main+0x666>
    5f10:	ce 01       	movw	r24, r28
    5f12:	04 96       	adiw	r24, 0x04	; 4
    5f14:	be 01       	movw	r22, r28
    5f16:	6a 5e       	subi	r22, 0xEA	; 234
    5f18:	7f 4f       	sbci	r23, 0xFF	; 255
    5f1a:	0e 94 0c 2c 	call	0x5818	; 0x5818 <xatoi>
    5f1e:	88 23       	and	r24, r24
    5f20:	89 f0       	breq	.+34     	; 0x5f44 <main+0x676>
    5f22:	8a 8d       	ldd	r24, Y+26	; 0x1a
    5f24:	9b 8d       	ldd	r25, Y+27	; 0x1b
    5f26:	ac 8d       	ldd	r26, Y+28	; 0x1c
    5f28:	bd 8d       	ldd	r27, Y+29	; 0x1d
    5f2a:	fc 01       	movw	r30, r24
    5f2c:	e6 5e       	subi	r30, 0xE6	; 230
    5f2e:	f6 4f       	sbci	r31, 0xF6	; 246
    5f30:	2e 89       	ldd	r18, Y+22	; 0x16
    5f32:	20 83       	st	Z, r18
    5f34:	01 96       	adiw	r24, 0x01	; 1
    5f36:	a1 1d       	adc	r26, r1
    5f38:	b1 1d       	adc	r27, r1
    5f3a:	8a 8f       	std	Y+26, r24	; 0x1a
    5f3c:	9b 8f       	std	Y+27, r25	; 0x1b
    5f3e:	ac 8f       	std	Y+28, r26	; 0x1c
    5f40:	bd 8f       	std	Y+29, r27	; 0x1d
    5f42:	a8 cf       	rjmp	.-176    	; 0x5e94 <main+0x5c6>
    5f44:	89 e3       	ldi	r24, 0x39	; 57
    5f46:	92 e0       	ldi	r25, 0x02	; 2
    5f48:	0e 94 6a 2b 	call	0x56d4	; 0x56d4 <xputs>
    5f4c:	a3 cf       	rjmp	.-186    	; 0x5e94 <main+0x5c6>
    5f4e:	ce 01       	movw	r24, r28
    5f50:	04 96       	adiw	r24, 0x04	; 4
    5f52:	be 01       	movw	r22, r28
    5f54:	66 5e       	subi	r22, 0xE6	; 230
    5f56:	7f 4f       	sbci	r23, 0xFF	; 255
    5f58:	0e 94 0c 2c 	call	0x5818	; 0x5818 <xatoi>
    5f5c:	88 23       	and	r24, r24
    5f5e:	09 f4       	brne	.+2      	; 0x5f62 <main+0x694>
    5f60:	43 cd       	rjmp	.-1402   	; 0x59e8 <main+0x11a>
    5f62:	ce 01       	movw	r24, r28
    5f64:	04 96       	adiw	r24, 0x04	; 4
    5f66:	be 01       	movw	r22, r28
    5f68:	6a 5e       	subi	r22, 0xEA	; 234
    5f6a:	7f 4f       	sbci	r23, 0xFF	; 255
    5f6c:	0e 94 0c 2c 	call	0x5818	; 0x5818 <xatoi>
    5f70:	88 23       	and	r24, r24
    5f72:	09 f4       	brne	.+2      	; 0x5f76 <main+0x6a8>
    5f74:	39 cd       	rjmp	.-1422   	; 0x59e8 <main+0x11a>
    5f76:	ce 01       	movw	r24, r28
    5f78:	04 96       	adiw	r24, 0x04	; 4
    5f7a:	be 01       	movw	r22, r28
    5f7c:	6e 5e       	subi	r22, 0xEE	; 238
    5f7e:	7f 4f       	sbci	r23, 0xFF	; 255
    5f80:	0e 94 0c 2c 	call	0x5818	; 0x5818 <xatoi>
    5f84:	88 23       	and	r24, r24
    5f86:	41 f4       	brne	.+16     	; 0x5f98 <main+0x6ca>
    5f88:	81 e0       	ldi	r24, 0x01	; 1
    5f8a:	90 e0       	ldi	r25, 0x00	; 0
    5f8c:	a0 e0       	ldi	r26, 0x00	; 0
    5f8e:	b0 e0       	ldi	r27, 0x00	; 0
    5f90:	8a 8b       	std	Y+18, r24	; 0x12
    5f92:	9b 8b       	std	Y+19, r25	; 0x13
    5f94:	ac 8b       	std	Y+20, r26	; 0x14
    5f96:	bd 8b       	std	Y+21, r27	; 0x15
    5f98:	2e 89       	ldd	r18, Y+22	; 0x16
    5f9a:	3f 89       	ldd	r19, Y+23	; 0x17
    5f9c:	48 8d       	ldd	r20, Y+24	; 0x18
    5f9e:	59 8d       	ldd	r21, Y+25	; 0x19
    5fa0:	8a 8d       	ldd	r24, Y+26	; 0x1a
    5fa2:	6a e1       	ldi	r22, 0x1A	; 26
    5fa4:	79 e0       	ldi	r23, 0x09	; 9
    5fa6:	0a 89       	ldd	r16, Y+18	; 0x12
    5fa8:	0e 94 02 07 	call	0xe04	; 0xe04 <disk_read>
    5fac:	00 d0       	rcall	.+0      	; 0x5fae <main+0x6e0>
    5fae:	00 d0       	rcall	.+0      	; 0x5fb0 <main+0x6e2>
    5fb0:	ed b7       	in	r30, 0x3d	; 61
    5fb2:	fe b7       	in	r31, 0x3e	; 62
    5fb4:	31 96       	adiw	r30, 0x01	; 1
    5fb6:	2e e3       	ldi	r18, 0x3E	; 62
    5fb8:	32 e0       	ldi	r19, 0x02	; 2
    5fba:	c5 cd       	rjmp	.-1142   	; 0x5b46 <main+0x278>
    5fbc:	ce 01       	movw	r24, r28
    5fbe:	04 96       	adiw	r24, 0x04	; 4
    5fc0:	be 01       	movw	r22, r28
    5fc2:	66 5e       	subi	r22, 0xE6	; 230
    5fc4:	7f 4f       	sbci	r23, 0xFF	; 255
    5fc6:	0e 94 0c 2c 	call	0x5818	; 0x5818 <xatoi>
    5fca:	88 23       	and	r24, r24
    5fcc:	09 f4       	brne	.+2      	; 0x5fd0 <main+0x702>
    5fce:	0c cd       	rjmp	.-1512   	; 0x59e8 <main+0x11a>
    5fd0:	ce 01       	movw	r24, r28
    5fd2:	04 96       	adiw	r24, 0x04	; 4
    5fd4:	be 01       	movw	r22, r28
    5fd6:	6a 5e       	subi	r22, 0xEA	; 234
    5fd8:	7f 4f       	sbci	r23, 0xFF	; 255
    5fda:	0e 94 0c 2c 	call	0x5818	; 0x5818 <xatoi>
    5fde:	88 23       	and	r24, r24
    5fe0:	09 f4       	brne	.+2      	; 0x5fe4 <main+0x716>
    5fe2:	02 cd       	rjmp	.-1532   	; 0x59e8 <main+0x11a>
    5fe4:	ce 01       	movw	r24, r28
    5fe6:	04 96       	adiw	r24, 0x04	; 4
    5fe8:	be 01       	movw	r22, r28
    5fea:	6e 5e       	subi	r22, 0xEE	; 238
    5fec:	7f 4f       	sbci	r23, 0xFF	; 255
    5fee:	0e 94 0c 2c 	call	0x5818	; 0x5818 <xatoi>
    5ff2:	88 23       	and	r24, r24
    5ff4:	41 f4       	brne	.+16     	; 0x6006 <main+0x738>
    5ff6:	81 e0       	ldi	r24, 0x01	; 1
    5ff8:	90 e0       	ldi	r25, 0x00	; 0
    5ffa:	a0 e0       	ldi	r26, 0x00	; 0
    5ffc:	b0 e0       	ldi	r27, 0x00	; 0
    5ffe:	8a 8b       	std	Y+18, r24	; 0x12
    6000:	9b 8b       	std	Y+19, r25	; 0x13
    6002:	ac 8b       	std	Y+20, r26	; 0x14
    6004:	bd 8b       	std	Y+21, r27	; 0x15
    6006:	2e 89       	ldd	r18, Y+22	; 0x16
    6008:	3f 89       	ldd	r19, Y+23	; 0x17
    600a:	48 8d       	ldd	r20, Y+24	; 0x18
    600c:	59 8d       	ldd	r21, Y+25	; 0x19
    600e:	8a 8d       	ldd	r24, Y+26	; 0x1a
    6010:	6a e1       	ldi	r22, 0x1A	; 26
    6012:	79 e0       	ldi	r23, 0x09	; 9
    6014:	0a 89       	ldd	r16, Y+18	; 0x12
    6016:	0e 94 56 07 	call	0xeac	; 0xeac <disk_write>
    601a:	00 d0       	rcall	.+0      	; 0x601c <main+0x74e>
    601c:	00 d0       	rcall	.+0      	; 0x601e <main+0x750>
    601e:	ed b7       	in	r30, 0x3d	; 61
    6020:	fe b7       	in	r31, 0x3e	; 62
    6022:	31 96       	adiw	r30, 0x01	; 1
    6024:	25 e4       	ldi	r18, 0x45	; 69
    6026:	32 e0       	ldi	r19, 0x02	; 2
    6028:	8e cd       	rjmp	.-1252   	; 0x5b46 <main+0x278>
    602a:	ce 01       	movw	r24, r28
    602c:	04 96       	adiw	r24, 0x04	; 4
    602e:	be 01       	movw	r22, r28
    6030:	66 5e       	subi	r22, 0xE6	; 230
    6032:	7f 4f       	sbci	r23, 0xFF	; 255
    6034:	0e 94 0c 2c 	call	0x5818	; 0x5818 <xatoi>
    6038:	88 23       	and	r24, r24
    603a:	09 f4       	brne	.+2      	; 0x603e <main+0x770>
    603c:	d5 cc       	rjmp	.-1622   	; 0x59e8 <main+0x11a>
    603e:	6a 8d       	ldd	r22, Y+26	; 0x1a
    6040:	8a e1       	ldi	r24, 0x1A	; 26
    6042:	99 e0       	ldi	r25, 0x09	; 9
    6044:	70 e0       	ldi	r23, 0x00	; 0
    6046:	40 e0       	ldi	r20, 0x00	; 0
    6048:	54 e0       	ldi	r21, 0x04	; 4
    604a:	0e 94 b8 37 	call	0x6f70	; 0x6f70 <memset>
    604e:	cc cc       	rjmp	.-1640   	; 0x59e8 <main+0x11a>
    6050:	81 81       	ldd	r24, Z+1	; 0x01
    6052:	11 96       	adiw	r26, 0x01	; 1
    6054:	bd 83       	std	Y+5, r27	; 0x05
    6056:	ac 83       	std	Y+4, r26	; 0x04
    6058:	90 e0       	ldi	r25, 0x00	; 0
    605a:	89 54       	subi	r24, 0x49	; 73
    605c:	90 40       	sbci	r25, 0x00	; 0
    605e:	80 33       	cpi	r24, 0x30	; 48
    6060:	91 05       	cpc	r25, r1
    6062:	08 f0       	brcs	.+2      	; 0x6066 <main+0x798>
    6064:	c1 cc       	rjmp	.-1662   	; 0x59e8 <main+0x11a>
    6066:	82 5c       	subi	r24, 0xC2	; 194
    6068:	9f 4f       	sbci	r25, 0xFF	; 255
    606a:	fc 01       	movw	r30, r24
    606c:	ee 0f       	add	r30, r30
    606e:	ff 1f       	adc	r31, r31
    6070:	05 90       	lpm	r0, Z+
    6072:	f4 91       	lpm	r31, Z
    6074:	e0 2d       	mov	r30, r0
    6076:	09 94       	ijmp
    6078:	ce 01       	movw	r24, r28
    607a:	04 96       	adiw	r24, 0x04	; 4
    607c:	be 01       	movw	r22, r28
    607e:	66 5e       	subi	r22, 0xE6	; 230
    6080:	7f 4f       	sbci	r23, 0xFF	; 255
    6082:	0e 94 0c 2c 	call	0x5818	; 0x5818 <xatoi>
    6086:	88 23       	and	r24, r24
    6088:	09 f4       	brne	.+2      	; 0x608c <main+0x7be>
    608a:	ae cc       	rjmp	.-1700   	; 0x59e8 <main+0x11a>
    608c:	0a 8d       	ldd	r16, Y+26	; 0x1a
    608e:	1b 8d       	ldd	r17, Y+27	; 0x1b
    6090:	2c 8d       	ldd	r18, Y+28	; 0x1c
    6092:	3d 8d       	ldd	r19, Y+29	; 0x1d
    6094:	82 e3       	ldi	r24, 0x32	; 50
    6096:	92 e0       	ldi	r25, 0x02	; 2
    6098:	08 9f       	mul	r16, r24
    609a:	b0 01       	movw	r22, r0
    609c:	09 9f       	mul	r16, r25
    609e:	70 0d       	add	r23, r0
    60a0:	18 9f       	mul	r17, r24
    60a2:	70 0d       	add	r23, r0
    60a4:	11 24       	eor	r1, r1
    60a6:	63 57       	subi	r22, 0x73	; 115
    60a8:	7d 4f       	sbci	r23, 0xFD	; 253
    60aa:	80 2f       	mov	r24, r16
    60ac:	03 c0       	rjmp	.+6      	; 0x60b4 <main+0x7e6>
    60ae:	80 e0       	ldi	r24, 0x00	; 0
    60b0:	6d e8       	ldi	r22, 0x8D	; 141
    60b2:	72 e0       	ldi	r23, 0x02	; 2
    60b4:	0e 94 25 18 	call	0x304a	; 0x304a <f_mount>
    60b8:	e7 c6       	rjmp	.+3534   	; 0x6e88 <main+0x15ba>
    60ba:	01 96       	adiw	r24, 0x01	; 1
    60bc:	9d 83       	std	Y+5, r25	; 0x05
    60be:	8c 83       	std	Y+4, r24	; 0x04
    60c0:	8c 81       	ldd	r24, Y+4	; 0x04
    60c2:	9d 81       	ldd	r25, Y+5	; 0x05
    60c4:	dc 01       	movw	r26, r24
    60c6:	2c 91       	ld	r18, X
    60c8:	20 32       	cpi	r18, 0x20	; 32
    60ca:	b9 f3       	breq	.-18     	; 0x60ba <main+0x7ec>
    60cc:	be 01       	movw	r22, r28
    60ce:	6a 5e       	subi	r22, 0xEA	; 234
    60d0:	7f 4f       	sbci	r23, 0xFF	; 255
    60d2:	ae 01       	movw	r20, r28
    60d4:	4e 5f       	subi	r20, 0xFE	; 254
    60d6:	5f 4f       	sbci	r21, 0xFF	; 255
    60d8:	0e 94 62 21 	call	0x42c4	; 0x42c4 <f_getfree>
    60dc:	88 23       	and	r24, r24
    60de:	09 f0       	breq	.+2      	; 0x60e2 <main+0x814>
    60e0:	d3 c6       	rjmp	.+3494   	; 0x6e88 <main+0x15ba>
    60e2:	2a 81       	ldd	r18, Y+2	; 0x02
    60e4:	3b 81       	ldd	r19, Y+3	; 0x03
    60e6:	ed b7       	in	r30, 0x3d	; 61
    60e8:	fe b7       	in	r31, 0x3e	; 62
    60ea:	b0 97       	sbiw	r30, 0x20	; 32
    60ec:	0f b6       	in	r0, 0x3f	; 63
    60ee:	f8 94       	cli
    60f0:	fe bf       	out	0x3e, r31	; 62
    60f2:	0f be       	out	0x3f, r0	; 63
    60f4:	ed bf       	out	0x3d, r30	; 61
    60f6:	31 96       	adiw	r30, 0x01	; 1
    60f8:	8c e4       	ldi	r24, 0x4C	; 76
    60fa:	92 e0       	ldi	r25, 0x02	; 2
    60fc:	ad b7       	in	r26, 0x3d	; 61
    60fe:	be b7       	in	r27, 0x3e	; 62
    6100:	12 96       	adiw	r26, 0x02	; 2
    6102:	9c 93       	st	X, r25
    6104:	8e 93       	st	-X, r24
    6106:	11 97       	sbiw	r26, 0x01	; 1
    6108:	d9 01       	movw	r26, r18
    610a:	8c 91       	ld	r24, X
    610c:	82 83       	std	Z+2, r24	; 0x02
    610e:	13 82       	std	Z+3, r1	; 0x03
    6110:	12 96       	adiw	r26, 0x02	; 2
    6112:	8c 91       	ld	r24, X
    6114:	90 e0       	ldi	r25, 0x00	; 0
    6116:	a0 e0       	ldi	r26, 0x00	; 0
    6118:	b0 e0       	ldi	r27, 0x00	; 0
    611a:	49 e0       	ldi	r20, 0x09	; 9
    611c:	88 0f       	add	r24, r24
    611e:	99 1f       	adc	r25, r25
    6120:	aa 1f       	adc	r26, r26
    6122:	bb 1f       	adc	r27, r27
    6124:	4a 95       	dec	r20
    6126:	d1 f7       	brne	.-12     	; 0x611c <main+0x84e>
    6128:	84 83       	std	Z+4, r24	; 0x04
    612a:	95 83       	std	Z+5, r25	; 0x05
    612c:	a6 83       	std	Z+6, r26	; 0x06
    612e:	b7 83       	std	Z+7, r27	; 0x07
    6130:	d9 01       	movw	r26, r18
    6132:	13 96       	adiw	r26, 0x03	; 3
    6134:	8c 91       	ld	r24, X
    6136:	13 97       	sbiw	r26, 0x03	; 3
    6138:	80 87       	std	Z+8, r24	; 0x08
    613a:	11 86       	std	Z+9, r1	; 0x09
    613c:	18 96       	adiw	r26, 0x08	; 8
    613e:	8d 91       	ld	r24, X+
    6140:	9c 91       	ld	r25, X
    6142:	19 97       	sbiw	r26, 0x09	; 9
    6144:	93 87       	std	Z+11, r25	; 0x0b
    6146:	82 87       	std	Z+10, r24	; 0x0a
    6148:	5e 96       	adiw	r26, 0x1e	; 30
    614a:	4d 91       	ld	r20, X+
    614c:	5d 91       	ld	r21, X+
    614e:	6d 91       	ld	r22, X+
    6150:	7c 91       	ld	r23, X
    6152:	91 97       	sbiw	r26, 0x21	; 33
    6154:	44 87       	std	Z+12, r20	; 0x0c
    6156:	55 87       	std	Z+13, r21	; 0x0d
    6158:	66 87       	std	Z+14, r22	; 0x0e
    615a:	77 87       	std	Z+15, r23	; 0x0f
    615c:	5a 96       	adiw	r26, 0x1a	; 26
    615e:	4d 91       	ld	r20, X+
    6160:	5d 91       	ld	r21, X+
    6162:	6d 91       	ld	r22, X+
    6164:	7c 91       	ld	r23, X
    6166:	5d 97       	sbiw	r26, 0x1d	; 29
    6168:	42 50       	subi	r20, 0x02	; 2
    616a:	50 40       	sbci	r21, 0x00	; 0
    616c:	60 40       	sbci	r22, 0x00	; 0
    616e:	70 40       	sbci	r23, 0x00	; 0
    6170:	40 8b       	std	Z+16, r20	; 0x10
    6172:	51 8b       	std	Z+17, r21	; 0x11
    6174:	62 8b       	std	Z+18, r22	; 0x12
    6176:	73 8b       	std	Z+19, r23	; 0x13
    6178:	92 96       	adiw	r26, 0x22	; 34
    617a:	4d 91       	ld	r20, X+
    617c:	5d 91       	ld	r21, X+
    617e:	6d 91       	ld	r22, X+
    6180:	7c 91       	ld	r23, X
    6182:	95 97       	sbiw	r26, 0x25	; 37
    6184:	44 8b       	std	Z+20, r20	; 0x14
    6186:	55 8b       	std	Z+21, r21	; 0x15
    6188:	66 8b       	std	Z+22, r22	; 0x16
    618a:	77 8b       	std	Z+23, r23	; 0x17
    618c:	96 96       	adiw	r26, 0x26	; 38
    618e:	4d 91       	ld	r20, X+
    6190:	5d 91       	ld	r21, X+
    6192:	6d 91       	ld	r22, X+
    6194:	7c 91       	ld	r23, X
    6196:	99 97       	sbiw	r26, 0x29	; 41
    6198:	40 8f       	std	Z+24, r20	; 0x18
    619a:	51 8f       	std	Z+25, r21	; 0x19
    619c:	62 8f       	std	Z+26, r22	; 0x1a
    619e:	73 8f       	std	Z+27, r23	; 0x1b
    61a0:	9a 96       	adiw	r26, 0x2a	; 42
    61a2:	4d 91       	ld	r20, X+
    61a4:	5d 91       	ld	r21, X+
    61a6:	6d 91       	ld	r22, X+
    61a8:	7c 91       	ld	r23, X
    61aa:	9d 97       	sbiw	r26, 0x2d	; 45
    61ac:	44 8f       	std	Z+28, r20	; 0x1c
    61ae:	55 8f       	std	Z+29, r21	; 0x1d
    61b0:	66 8f       	std	Z+30, r22	; 0x1e
    61b2:	77 8f       	std	Z+31, r23	; 0x1f
    61b4:	0e 94 03 2c 	call	0x5806	; 0x5806 <xprintf>
    61b8:	10 92 81 0d 	sts	0x0D81, r1
    61bc:	10 92 80 0d 	sts	0x0D80, r1
    61c0:	10 92 83 0d 	sts	0x0D83, r1
    61c4:	10 92 82 0d 	sts	0x0D82, r1
    61c8:	10 92 16 09 	sts	0x0916, r1
    61cc:	10 92 17 09 	sts	0x0917, r1
    61d0:	10 92 18 09 	sts	0x0918, r1
    61d4:	10 92 19 09 	sts	0x0919, r1
    61d8:	ed b7       	in	r30, 0x3d	; 61
    61da:	fe b7       	in	r31, 0x3e	; 62
    61dc:	b0 96       	adiw	r30, 0x20	; 32
    61de:	0f b6       	in	r0, 0x3f	; 63
    61e0:	f8 94       	cli
    61e2:	fe bf       	out	0x3e, r31	; 62
    61e4:	0f be       	out	0x3f, r0	; 63
    61e6:	ed bf       	out	0x3d, r30	; 61
    61e8:	6c 81       	ldd	r22, Y+4	; 0x04
    61ea:	7d 81       	ldd	r23, Y+5	; 0x05
    61ec:	8a e1       	ldi	r24, 0x1A	; 26
    61ee:	99 e0       	ldi	r25, 0x09	; 9
    61f0:	0e 94 ca 37 	call	0x6f94	; 0x6f94 <strcpy>
    61f4:	0e 94 9a 27 	call	0x4f34	; 0x4f34 <scan_files.constprop.0>
    61f8:	88 23       	and	r24, r24
    61fa:	09 f0       	breq	.+2      	; 0x61fe <main+0x930>
    61fc:	45 c6       	rjmp	.+3210   	; 0x6e88 <main+0x15ba>
    61fe:	2a 81       	ldd	r18, Y+2	; 0x02
    6200:	3b 81       	ldd	r19, Y+3	; 0x03
    6202:	d9 01       	movw	r26, r18
    6204:	12 96       	adiw	r26, 0x02	; 2
    6206:	cc 90       	ld	r12, X
    6208:	c6 94       	lsr	r12
    620a:	ed b7       	in	r30, 0x3d	; 61
    620c:	fe b7       	in	r31, 0x3e	; 62
    620e:	72 97       	sbiw	r30, 0x12	; 18
    6210:	0f b6       	in	r0, 0x3f	; 63
    6212:	f8 94       	cli
    6214:	fe bf       	out	0x3e, r31	; 62
    6216:	0f be       	out	0x3f, r0	; 63
    6218:	ed bf       	out	0x3d, r30	; 61
    621a:	0d b7       	in	r16, 0x3d	; 61
    621c:	1e b7       	in	r17, 0x3e	; 62
    621e:	0f 5f       	subi	r16, 0xFF	; 255
    6220:	1f 4f       	sbci	r17, 0xFF	; 255
    6222:	83 e1       	ldi	r24, 0x13	; 19
    6224:	93 e0       	ldi	r25, 0x03	; 3
    6226:	92 83       	std	Z+2, r25	; 0x02
    6228:	81 83       	std	Z+1, r24	; 0x01
    622a:	80 91 82 0d 	lds	r24, 0x0D82
    622e:	90 91 83 0d 	lds	r25, 0x0D83
    6232:	d8 01       	movw	r26, r16
    6234:	13 96       	adiw	r26, 0x03	; 3
    6236:	9c 93       	st	X, r25
    6238:	8e 93       	st	-X, r24
    623a:	12 97       	sbiw	r26, 0x02	; 2
    623c:	80 91 16 09 	lds	r24, 0x0916
    6240:	90 91 17 09 	lds	r25, 0x0917
    6244:	a0 91 18 09 	lds	r26, 0x0918
    6248:	b0 91 19 09 	lds	r27, 0x0919
    624c:	f8 01       	movw	r30, r16
    624e:	84 83       	std	Z+4, r24	; 0x04
    6250:	95 83       	std	Z+5, r25	; 0x05
    6252:	a6 83       	std	Z+6, r26	; 0x06
    6254:	b7 83       	std	Z+7, r27	; 0x07
    6256:	80 91 80 0d 	lds	r24, 0x0D80
    625a:	90 91 81 0d 	lds	r25, 0x0D81
    625e:	91 87       	std	Z+9, r25	; 0x09
    6260:	80 87       	std	Z+8, r24	; 0x08
    6262:	dd 24       	eor	r13, r13
    6264:	ee 24       	eor	r14, r14
    6266:	ff 24       	eor	r15, r15
    6268:	d9 01       	movw	r26, r18
    626a:	5a 96       	adiw	r26, 0x1a	; 26
    626c:	2d 91       	ld	r18, X+
    626e:	3d 91       	ld	r19, X+
    6270:	4d 91       	ld	r20, X+
    6272:	5c 91       	ld	r21, X
    6274:	5d 97       	sbiw	r26, 0x1d	; 29
    6276:	22 50       	subi	r18, 0x02	; 2
    6278:	30 40       	sbci	r19, 0x00	; 0
    627a:	40 40       	sbci	r20, 0x00	; 0
    627c:	50 40       	sbci	r21, 0x00	; 0
    627e:	c7 01       	movw	r24, r14
    6280:	b6 01       	movw	r22, r12
    6282:	0e 94 5c 37 	call	0x6eb8	; 0x6eb8 <__mulsi3>
    6286:	dc 01       	movw	r26, r24
    6288:	cb 01       	movw	r24, r22
    628a:	f8 01       	movw	r30, r16
    628c:	82 87       	std	Z+10, r24	; 0x0a
    628e:	93 87       	std	Z+11, r25	; 0x0b
    6290:	a4 87       	std	Z+12, r26	; 0x0c
    6292:	b5 87       	std	Z+13, r27	; 0x0d
    6294:	2e 89       	ldd	r18, Y+22	; 0x16
    6296:	3f 89       	ldd	r19, Y+23	; 0x17
    6298:	48 8d       	ldd	r20, Y+24	; 0x18
    629a:	59 8d       	ldd	r21, Y+25	; 0x19
    629c:	c7 01       	movw	r24, r14
    629e:	b6 01       	movw	r22, r12
    62a0:	0e 94 5c 37 	call	0x6eb8	; 0x6eb8 <__mulsi3>
    62a4:	dc 01       	movw	r26, r24
    62a6:	cb 01       	movw	r24, r22
    62a8:	f8 01       	movw	r30, r16
    62aa:	86 87       	std	Z+14, r24	; 0x0e
    62ac:	97 87       	std	Z+15, r25	; 0x0f
    62ae:	a0 8b       	std	Z+16, r26	; 0x10
    62b0:	b1 8b       	std	Z+17, r27	; 0x11
    62b2:	0e 94 03 2c 	call	0x5806	; 0x5806 <xprintf>
    62b6:	2d b7       	in	r18, 0x3d	; 61
    62b8:	3e b7       	in	r19, 0x3e	; 62
    62ba:	2e 5e       	subi	r18, 0xEE	; 238
    62bc:	3f 4f       	sbci	r19, 0xFF	; 255
    62be:	5b c1       	rjmp	.+694    	; 0x6576 <main+0xca8>
    62c0:	6f 5f       	subi	r22, 0xFF	; 255
    62c2:	7f 4f       	sbci	r23, 0xFF	; 255
    62c4:	7d 83       	std	Y+5, r23	; 0x05
    62c6:	6c 83       	std	Y+4, r22	; 0x04
    62c8:	6c 81       	ldd	r22, Y+4	; 0x04
    62ca:	7d 81       	ldd	r23, Y+5	; 0x05
    62cc:	db 01       	movw	r26, r22
    62ce:	8c 91       	ld	r24, X
    62d0:	80 32       	cpi	r24, 0x20	; 32
    62d2:	b1 f3       	breq	.-20     	; 0x62c0 <main+0x9f2>
    62d4:	8e 01       	movw	r16, r28
    62d6:	02 5e       	subi	r16, 0xE2	; 226
    62d8:	1f 4f       	sbci	r17, 0xFF	; 255
    62da:	c8 01       	movw	r24, r16
    62dc:	0e 94 6b 20 	call	0x40d6	; 0x40d6 <f_opendir>
    62e0:	88 23       	and	r24, r24
    62e2:	09 f0       	breq	.+2      	; 0x62e6 <main+0xa18>
    62e4:	d1 c5       	rjmp	.+2978   	; 0x6e88 <main+0x15ba>
    62e6:	1a 86       	std	Y+10, r1	; 0x0a
    62e8:	1b 86       	std	Y+11, r1	; 0x0b
    62ea:	1c 86       	std	Y+12, r1	; 0x0c
    62ec:	1d 86       	std	Y+13, r1	; 0x0d
    62ee:	1e 86       	std	Y+14, r1	; 0x0e
    62f0:	1f 86       	std	Y+15, r1	; 0x0f
    62f2:	18 8a       	std	Y+16, r1	; 0x10
    62f4:	19 8a       	std	Y+17, r1	; 0x11
    62f6:	1a 8e       	std	Y+26, r1	; 0x1a
    62f8:	1b 8e       	std	Y+27, r1	; 0x1b
    62fa:	1c 8e       	std	Y+28, r1	; 0x1c
    62fc:	1d 8e       	std	Y+29, r1	; 0x1d
    62fe:	80 2e       	mov	r8, r16
    6300:	f1 2e       	mov	r15, r17
    6302:	88 2d       	mov	r24, r8
    6304:	9f 2d       	mov	r25, r15
    6306:	6f eb       	ldi	r22, 0xBF	; 191
    6308:	74 e0       	ldi	r23, 0x04	; 4
    630a:	0e 94 cd 20 	call	0x419a	; 0x419a <f_readdir>
    630e:	88 23       	and	r24, r24
    6310:	09 f0       	breq	.+2      	; 0x6314 <main+0xa46>
    6312:	c8 c0       	rjmp	.+400    	; 0x64a4 <main+0xbd6>
    6314:	80 91 c8 04 	lds	r24, 0x04C8
    6318:	88 23       	and	r24, r24
    631a:	09 f4       	brne	.+2      	; 0x631e <main+0xa50>
    631c:	c3 c0       	rjmp	.+390    	; 0x64a4 <main+0xbd6>
    631e:	20 91 c7 04 	lds	r18, 0x04C7
    6322:	24 ff       	sbrs	r18, 4
    6324:	0e c0       	rjmp	.+28     	; 0x6342 <main+0xa74>
    6326:	8a 85       	ldd	r24, Y+10	; 0x0a
    6328:	9b 85       	ldd	r25, Y+11	; 0x0b
    632a:	ac 85       	ldd	r26, Y+12	; 0x0c
    632c:	bd 85       	ldd	r27, Y+13	; 0x0d
    632e:	01 96       	adiw	r24, 0x01	; 1
    6330:	a1 1d       	adc	r26, r1
    6332:	b1 1d       	adc	r27, r1
    6334:	8a 87       	std	Y+10, r24	; 0x0a
    6336:	9b 87       	std	Y+11, r25	; 0x0b
    6338:	ac 87       	std	Y+12, r26	; 0x0c
    633a:	bd 87       	std	Y+13, r27	; 0x0d
    633c:	84 e4       	ldi	r24, 0x44	; 68
    633e:	90 e0       	ldi	r25, 0x00	; 0
    6340:	21 c0       	rjmp	.+66     	; 0x6384 <main+0xab6>
    6342:	8e 85       	ldd	r24, Y+14	; 0x0e
    6344:	9f 85       	ldd	r25, Y+15	; 0x0f
    6346:	a8 89       	ldd	r26, Y+16	; 0x10
    6348:	b9 89       	ldd	r27, Y+17	; 0x11
    634a:	01 96       	adiw	r24, 0x01	; 1
    634c:	a1 1d       	adc	r26, r1
    634e:	b1 1d       	adc	r27, r1
    6350:	8e 87       	std	Y+14, r24	; 0x0e
    6352:	9f 87       	std	Y+15, r25	; 0x0f
    6354:	a8 8b       	std	Y+16, r26	; 0x10
    6356:	b9 8b       	std	Y+17, r27	; 0x11
    6358:	8a 8d       	ldd	r24, Y+26	; 0x1a
    635a:	9b 8d       	ldd	r25, Y+27	; 0x1b
    635c:	ac 8d       	ldd	r26, Y+28	; 0x1c
    635e:	bd 8d       	ldd	r27, Y+29	; 0x1d
    6360:	40 91 bf 04 	lds	r20, 0x04BF
    6364:	50 91 c0 04 	lds	r21, 0x04C0
    6368:	60 91 c1 04 	lds	r22, 0x04C1
    636c:	70 91 c2 04 	lds	r23, 0x04C2
    6370:	84 0f       	add	r24, r20
    6372:	95 1f       	adc	r25, r21
    6374:	a6 1f       	adc	r26, r22
    6376:	b7 1f       	adc	r27, r23
    6378:	8a 8f       	std	Y+26, r24	; 0x1a
    637a:	9b 8f       	std	Y+27, r25	; 0x1b
    637c:	ac 8f       	std	Y+28, r26	; 0x1c
    637e:	bd 8f       	std	Y+29, r27	; 0x1d
    6380:	8d e2       	ldi	r24, 0x2D	; 45
    6382:	90 e0       	ldi	r25, 0x00	; 0
    6384:	20 ff       	sbrs	r18, 0
    6386:	03 c0       	rjmp	.+6      	; 0x638e <main+0xac0>
    6388:	42 e5       	ldi	r20, 0x52	; 82
    638a:	50 e0       	ldi	r21, 0x00	; 0
    638c:	02 c0       	rjmp	.+4      	; 0x6392 <main+0xac4>
    638e:	4d e2       	ldi	r20, 0x2D	; 45
    6390:	50 e0       	ldi	r21, 0x00	; 0
    6392:	21 ff       	sbrs	r18, 1
    6394:	03 c0       	rjmp	.+6      	; 0x639c <main+0xace>
    6396:	68 e4       	ldi	r22, 0x48	; 72
    6398:	70 e0       	ldi	r23, 0x00	; 0
    639a:	02 c0       	rjmp	.+4      	; 0x63a0 <main+0xad2>
    639c:	6d e2       	ldi	r22, 0x2D	; 45
    639e:	70 e0       	ldi	r23, 0x00	; 0
    63a0:	22 ff       	sbrs	r18, 2
    63a2:	03 c0       	rjmp	.+6      	; 0x63aa <main+0xadc>
    63a4:	03 e5       	ldi	r16, 0x53	; 83
    63a6:	10 e0       	ldi	r17, 0x00	; 0
    63a8:	02 c0       	rjmp	.+4      	; 0x63ae <main+0xae0>
    63aa:	0d e2       	ldi	r16, 0x2D	; 45
    63ac:	10 e0       	ldi	r17, 0x00	; 0
    63ae:	25 ff       	sbrs	r18, 5
    63b0:	05 c0       	rjmp	.+10     	; 0x63bc <main+0xaee>
    63b2:	e1 e4       	ldi	r30, 0x41	; 65
    63b4:	f0 e0       	ldi	r31, 0x00	; 0
    63b6:	fd ab       	sts	0x5d, r31
    63b8:	ec ab       	sts	0x5c, r30
    63ba:	04 c0       	rjmp	.+8      	; 0x63c4 <main+0xaf6>
    63bc:	2d e2       	ldi	r18, 0x2D	; 45
    63be:	30 e0       	ldi	r19, 0x00	; 0
    63c0:	3d ab       	sts	0x5d, r19
    63c2:	2c ab       	sts	0x5c, r18
    63c4:	20 91 c3 04 	lds	r18, 0x04C3
    63c8:	30 91 c4 04 	lds	r19, 0x04C4
    63cc:	c0 90 c5 04 	lds	r12, 0x04C5
    63d0:	d0 90 c6 04 	lds	r13, 0x04C6
    63d4:	ad b7       	in	r26, 0x3d	; 61
    63d6:	be b7       	in	r27, 0x3e	; 62
    63d8:	5c 97       	sbiw	r26, 0x1c	; 28
    63da:	0f b6       	in	r0, 0x3f	; 63
    63dc:	f8 94       	cli
    63de:	be bf       	out	0x3e, r27	; 62
    63e0:	0f be       	out	0x3f, r0	; 63
    63e2:	ad bf       	out	0x3d, r26	; 61
    63e4:	ed b7       	in	r30, 0x3d	; 61
    63e6:	fe b7       	in	r31, 0x3e	; 62
    63e8:	31 96       	adiw	r30, 0x01	; 1
    63ea:	0f 2e       	mov	r0, r31
    63ec:	f1 e6       	ldi	r31, 0x61	; 97
    63ee:	af 2e       	mov	r10, r31
    63f0:	f3 e0       	ldi	r31, 0x03	; 3
    63f2:	bf 2e       	mov	r11, r31
    63f4:	f0 2d       	mov	r31, r0
    63f6:	12 96       	adiw	r26, 0x02	; 2
    63f8:	bc 92       	st	X, r11
    63fa:	ae 92       	st	-X, r10
    63fc:	11 97       	sbiw	r26, 0x01	; 1
    63fe:	93 83       	std	Z+3, r25	; 0x03
    6400:	82 83       	std	Z+2, r24	; 0x02
    6402:	55 83       	std	Z+5, r21	; 0x05
    6404:	44 83       	std	Z+4, r20	; 0x04
    6406:	77 83       	std	Z+7, r23	; 0x07
    6408:	66 83       	std	Z+6, r22	; 0x06
    640a:	11 87       	std	Z+9, r17	; 0x09
    640c:	00 87       	std	Z+8, r16	; 0x08
    640e:	4c a9       	sts	0x4c, r20
    6410:	5d a9       	sts	0x4d, r21
    6412:	53 87       	std	Z+11, r21	; 0x0b
    6414:	42 87       	std	Z+10, r20	; 0x0a
    6416:	c9 01       	movw	r24, r18
    6418:	89 2f       	mov	r24, r25
    641a:	99 27       	eor	r25, r25
    641c:	86 95       	lsr	r24
    641e:	84 54       	subi	r24, 0x44	; 68
    6420:	98 4f       	sbci	r25, 0xF8	; 248
    6422:	95 87       	std	Z+13, r25	; 0x0d
    6424:	84 87       	std	Z+12, r24	; 0x0c
    6426:	c9 01       	movw	r24, r18
    6428:	68 94       	set
    642a:	14 f8       	bld	r1, 4
    642c:	96 95       	lsr	r25
    642e:	87 95       	ror	r24
    6430:	16 94       	lsr	r1
    6432:	e1 f7       	brne	.-8      	; 0x642c <main+0xb5e>
    6434:	8f 70       	andi	r24, 0x0F	; 15
    6436:	90 70       	andi	r25, 0x00	; 0
    6438:	97 87       	std	Z+15, r25	; 0x0f
    643a:	86 87       	std	Z+14, r24	; 0x0e
    643c:	c9 01       	movw	r24, r18
    643e:	8f 71       	andi	r24, 0x1F	; 31
    6440:	90 70       	andi	r25, 0x00	; 0
    6442:	91 8b       	std	Z+17, r25	; 0x11
    6444:	80 8b       	std	Z+16, r24	; 0x10
    6446:	8d 2d       	mov	r24, r13
    6448:	86 95       	lsr	r24
    644a:	86 95       	lsr	r24
    644c:	86 95       	lsr	r24
    644e:	82 8b       	std	Z+18, r24	; 0x12
    6450:	13 8a       	std	Z+19, r1	; 0x13
    6452:	c6 01       	movw	r24, r12
    6454:	68 94       	set
    6456:	14 f8       	bld	r1, 4
    6458:	96 95       	lsr	r25
    645a:	87 95       	ror	r24
    645c:	16 94       	lsr	r1
    645e:	e1 f7       	brne	.-8      	; 0x6458 <main+0xb8a>
    6460:	8f 73       	andi	r24, 0x3F	; 63
    6462:	90 70       	andi	r25, 0x00	; 0
    6464:	95 8b       	std	Z+21, r25	; 0x15
    6466:	84 8b       	std	Z+20, r24	; 0x14
    6468:	80 91 bf 04 	lds	r24, 0x04BF
    646c:	90 91 c0 04 	lds	r25, 0x04C0
    6470:	a0 91 c1 04 	lds	r26, 0x04C1
    6474:	b0 91 c2 04 	lds	r27, 0x04C2
    6478:	86 8b       	std	Z+22, r24	; 0x16
    647a:	97 8b       	std	Z+23, r25	; 0x17
    647c:	a0 8f       	std	Z+24, r26	; 0x18
    647e:	b1 8f       	std	Z+25, r27	; 0x19
    6480:	88 ec       	ldi	r24, 0xC8	; 200
    6482:	94 e0       	ldi	r25, 0x04	; 4
    6484:	93 8f       	std	Z+27, r25	; 0x1b
    6486:	82 8f       	std	Z+26, r24	; 0x1a
    6488:	0e 94 03 2c 	call	0x5806	; 0x5806 <xprintf>
    648c:	ad b7       	in	r26, 0x3d	; 61
    648e:	be b7       	in	r27, 0x3e	; 62
    6490:	5c 96       	adiw	r26, 0x1c	; 28
    6492:	0f b6       	in	r0, 0x3f	; 63
    6494:	f8 94       	cli
    6496:	be bf       	out	0x3e, r27	; 62
    6498:	0f be       	out	0x3f, r0	; 63
    649a:	ad bf       	out	0x3d, r26	; 61
    649c:	8a e0       	ldi	r24, 0x0A	; 10
    649e:	0e 94 59 2b 	call	0x56b2	; 0x56b2 <xputc>
    64a2:	2f cf       	rjmp	.-418    	; 0x6302 <main+0xa34>
    64a4:	ed b7       	in	r30, 0x3d	; 61
    64a6:	fe b7       	in	r31, 0x3e	; 62
    64a8:	3e 97       	sbiw	r30, 0x0e	; 14
    64aa:	0f b6       	in	r0, 0x3f	; 63
    64ac:	f8 94       	cli
    64ae:	fe bf       	out	0x3e, r31	; 62
    64b0:	0f be       	out	0x3f, r0	; 63
    64b2:	ed bf       	out	0x3d, r30	; 61
    64b4:	31 96       	adiw	r30, 0x01	; 1
    64b6:	8c e8       	ldi	r24, 0x8C	; 140
    64b8:	93 e0       	ldi	r25, 0x03	; 3
    64ba:	ad b7       	in	r26, 0x3d	; 61
    64bc:	be b7       	in	r27, 0x3e	; 62
    64be:	12 96       	adiw	r26, 0x02	; 2
    64c0:	9c 93       	st	X, r25
    64c2:	8e 93       	st	-X, r24
    64c4:	11 97       	sbiw	r26, 0x01	; 1
    64c6:	8e 85       	ldd	r24, Y+14	; 0x0e
    64c8:	9f 85       	ldd	r25, Y+15	; 0x0f
    64ca:	a8 89       	ldd	r26, Y+16	; 0x10
    64cc:	b9 89       	ldd	r27, Y+17	; 0x11
    64ce:	82 83       	std	Z+2, r24	; 0x02
    64d0:	93 83       	std	Z+3, r25	; 0x03
    64d2:	a4 83       	std	Z+4, r26	; 0x04
    64d4:	b5 83       	std	Z+5, r27	; 0x05
    64d6:	8a 8d       	ldd	r24, Y+26	; 0x1a
    64d8:	9b 8d       	ldd	r25, Y+27	; 0x1b
    64da:	ac 8d       	ldd	r26, Y+28	; 0x1c
    64dc:	bd 8d       	ldd	r27, Y+29	; 0x1d
    64de:	86 83       	std	Z+6, r24	; 0x06
    64e0:	97 83       	std	Z+7, r25	; 0x07
    64e2:	a0 87       	std	Z+8, r26	; 0x08
    64e4:	b1 87       	std	Z+9, r27	; 0x09
    64e6:	8a 85       	ldd	r24, Y+10	; 0x0a
    64e8:	9b 85       	ldd	r25, Y+11	; 0x0b
    64ea:	ac 85       	ldd	r26, Y+12	; 0x0c
    64ec:	bd 85       	ldd	r27, Y+13	; 0x0d
    64ee:	82 87       	std	Z+10, r24	; 0x0a
    64f0:	93 87       	std	Z+11, r25	; 0x0b
    64f2:	a4 87       	std	Z+12, r26	; 0x0c
    64f4:	b5 87       	std	Z+13, r27	; 0x0d
    64f6:	0e 94 03 2c 	call	0x5806	; 0x5806 <xprintf>
    64fa:	ed b7       	in	r30, 0x3d	; 61
    64fc:	fe b7       	in	r31, 0x3e	; 62
    64fe:	3e 96       	adiw	r30, 0x0e	; 14
    6500:	0f b6       	in	r0, 0x3f	; 63
    6502:	f8 94       	cli
    6504:	fe bf       	out	0x3e, r31	; 62
    6506:	0f be       	out	0x3f, r0	; 63
    6508:	ed bf       	out	0x3d, r30	; 61
    650a:	8c 81       	ldd	r24, Y+4	; 0x04
    650c:	9d 81       	ldd	r25, Y+5	; 0x05
    650e:	be 01       	movw	r22, r28
    6510:	66 5e       	subi	r22, 0xE6	; 230
    6512:	7f 4f       	sbci	r23, 0xFF	; 255
    6514:	ae 01       	movw	r20, r28
    6516:	4e 5f       	subi	r20, 0xFE	; 254
    6518:	5f 4f       	sbci	r21, 0xFF	; 255
    651a:	0e 94 62 21 	call	0x42c4	; 0x42c4 <f_getfree>
    651e:	88 23       	and	r24, r24
    6520:	09 f0       	breq	.+2      	; 0x6524 <main+0xc56>
    6522:	62 ca       	rjmp	.-2876   	; 0x59e8 <main+0x11a>
    6524:	00 d0       	rcall	.+0      	; 0x6526 <main+0xc58>
    6526:	00 d0       	rcall	.+0      	; 0x6528 <main+0xc5a>
    6528:	00 d0       	rcall	.+0      	; 0x652a <main+0xc5c>
    652a:	85 eb       	ldi	r24, 0xB5	; 181
    652c:	93 e0       	ldi	r25, 0x03	; 3
    652e:	ad b7       	in	r26, 0x3d	; 61
    6530:	be b7       	in	r27, 0x3e	; 62
    6532:	12 96       	adiw	r26, 0x02	; 2
    6534:	9c 93       	st	X, r25
    6536:	8e 93       	st	-X, r24
    6538:	11 97       	sbiw	r26, 0x01	; 1
    653a:	ea 81       	ldd	r30, Y+2	; 0x02
    653c:	fb 81       	ldd	r31, Y+3	; 0x03
    653e:	62 81       	ldd	r22, Z+2	; 0x02
    6540:	70 e0       	ldi	r23, 0x00	; 0
    6542:	80 e0       	ldi	r24, 0x00	; 0
    6544:	90 e0       	ldi	r25, 0x00	; 0
    6546:	2a 8d       	ldd	r18, Y+26	; 0x1a
    6548:	3b 8d       	ldd	r19, Y+27	; 0x1b
    654a:	4c 8d       	ldd	r20, Y+28	; 0x1c
    654c:	5d 8d       	ldd	r21, Y+29	; 0x1d
    654e:	0e 94 5c 37 	call	0x6eb8	; 0x6eb8 <__mulsi3>
    6552:	22 e0       	ldi	r18, 0x02	; 2
    6554:	30 e0       	ldi	r19, 0x00	; 0
    6556:	40 e0       	ldi	r20, 0x00	; 0
    6558:	50 e0       	ldi	r21, 0x00	; 0
    655a:	0e 94 9d 37 	call	0x6f3a	; 0x6f3a <__divmodsi4>
    655e:	ed b7       	in	r30, 0x3d	; 61
    6560:	fe b7       	in	r31, 0x3e	; 62
    6562:	23 83       	std	Z+3, r18	; 0x03
    6564:	34 83       	std	Z+4, r19	; 0x04
    6566:	45 83       	std	Z+5, r20	; 0x05
    6568:	56 83       	std	Z+6, r21	; 0x06
    656a:	0e 94 03 2c 	call	0x5806	; 0x5806 <xprintf>
    656e:	2d b7       	in	r18, 0x3d	; 61
    6570:	3e b7       	in	r19, 0x3e	; 62
    6572:	2a 5f       	subi	r18, 0xFA	; 250
    6574:	3f 4f       	sbci	r19, 0xFF	; 255
    6576:	0f b6       	in	r0, 0x3f	; 63
    6578:	f8 94       	cli
    657a:	3e bf       	out	0x3e, r19	; 62
    657c:	0f be       	out	0x3f, r0	; 63
    657e:	2d bf       	out	0x3d, r18	; 61
    6580:	33 ca       	rjmp	.-2970   	; 0x59e8 <main+0x11a>
    6582:	ce 01       	movw	r24, r28
    6584:	04 96       	adiw	r24, 0x04	; 4
    6586:	be 01       	movw	r22, r28
    6588:	66 5e       	subi	r22, 0xE6	; 230
    658a:	7f 4f       	sbci	r23, 0xFF	; 255
    658c:	0e 94 0c 2c 	call	0x5818	; 0x5818 <xatoi>
    6590:	88 23       	and	r24, r24
    6592:	09 f4       	brne	.+2      	; 0x6596 <main+0xcc8>
    6594:	29 ca       	rjmp	.-2990   	; 0x59e8 <main+0x11a>
    6596:	04 c0       	rjmp	.+8      	; 0x65a0 <main+0xcd2>
    6598:	6f 5f       	subi	r22, 0xFF	; 255
    659a:	7f 4f       	sbci	r23, 0xFF	; 255
    659c:	7d 83       	std	Y+5, r23	; 0x05
    659e:	6c 83       	std	Y+4, r22	; 0x04
    65a0:	6c 81       	ldd	r22, Y+4	; 0x04
    65a2:	7d 81       	ldd	r23, Y+5	; 0x05
    65a4:	db 01       	movw	r26, r22
    65a6:	8c 91       	ld	r24, X
    65a8:	80 32       	cpi	r24, 0x20	; 32
    65aa:	b1 f3       	breq	.-20     	; 0x6598 <main+0xcca>
    65ac:	85 ed       	ldi	r24, 0xD5	; 213
    65ae:	94 e0       	ldi	r25, 0x04	; 4
    65b0:	4a 8d       	ldd	r20, Y+26	; 0x1a
    65b2:	0e 94 3b 18 	call	0x3076	; 0x3076 <f_open>
    65b6:	68 c4       	rjmp	.+2256   	; 0x6e88 <main+0x15ba>
    65b8:	85 ed       	ldi	r24, 0xD5	; 213
    65ba:	94 e0       	ldi	r25, 0x04	; 4
    65bc:	0e 94 03 1e 	call	0x3c06	; 0x3c06 <f_close>
    65c0:	63 c4       	rjmp	.+2246   	; 0x6e88 <main+0x15ba>
    65c2:	ce 01       	movw	r24, r28
    65c4:	04 96       	adiw	r24, 0x04	; 4
    65c6:	be 01       	movw	r22, r28
    65c8:	66 5e       	subi	r22, 0xE6	; 230
    65ca:	7f 4f       	sbci	r23, 0xFF	; 255
    65cc:	0e 94 0c 2c 	call	0x5818	; 0x5818 <xatoi>
    65d0:	88 23       	and	r24, r24
    65d2:	09 f4       	brne	.+2      	; 0x65d6 <main+0xd08>
    65d4:	09 ca       	rjmp	.-3054   	; 0x59e8 <main+0x11a>
    65d6:	4a 8d       	ldd	r20, Y+26	; 0x1a
    65d8:	5b 8d       	ldd	r21, Y+27	; 0x1b
    65da:	6c 8d       	ldd	r22, Y+28	; 0x1c
    65dc:	7d 8d       	ldd	r23, Y+29	; 0x1d
    65de:	85 ed       	ldi	r24, 0xD5	; 213
    65e0:	94 e0       	ldi	r25, 0x04	; 4
    65e2:	0e 94 6f 1e 	call	0x3cde	; 0x3cde <f_lseek>
    65e6:	08 2f       	mov	r16, r24
    65e8:	0e 94 fa 26 	call	0x4df4	; 0x4df4 <put_rc>
    65ec:	00 23       	and	r16, r16
    65ee:	09 f0       	breq	.+2      	; 0x65f2 <main+0xd24>
    65f0:	fb c9       	rjmp	.-3082   	; 0x59e8 <main+0x11a>
    65f2:	80 91 db 04 	lds	r24, 0x04DB
    65f6:	90 91 dc 04 	lds	r25, 0x04DC
    65fa:	a0 91 dd 04 	lds	r26, 0x04DD
    65fe:	b0 91 de 04 	lds	r27, 0x04DE
    6602:	ed b7       	in	r30, 0x3d	; 61
    6604:	fe b7       	in	r31, 0x3e	; 62
    6606:	3a 97       	sbiw	r30, 0x0a	; 10
    6608:	0f b6       	in	r0, 0x3f	; 63
    660a:	f8 94       	cli
    660c:	fe bf       	out	0x3e, r31	; 62
    660e:	0f be       	out	0x3f, r0	; 63
    6610:	ed bf       	out	0x3d, r30	; 61
    6612:	4d b7       	in	r20, 0x3d	; 61
    6614:	5e b7       	in	r21, 0x3e	; 62
    6616:	4f 5f       	subi	r20, 0xFF	; 255
    6618:	5f 4f       	sbci	r21, 0xFF	; 255
    661a:	2a ec       	ldi	r18, 0xCA	; 202
    661c:	33 e0       	ldi	r19, 0x03	; 3
    661e:	32 83       	std	Z+2, r19	; 0x02
    6620:	21 83       	std	Z+1, r18	; 0x01
    6622:	fa 01       	movw	r30, r20
    6624:	82 83       	std	Z+2, r24	; 0x02
    6626:	93 83       	std	Z+3, r25	; 0x03
    6628:	a4 83       	std	Z+4, r26	; 0x04
    662a:	b5 83       	std	Z+5, r27	; 0x05
    662c:	86 83       	std	Z+6, r24	; 0x06
    662e:	97 83       	std	Z+7, r25	; 0x07
    6630:	a0 87       	std	Z+8, r26	; 0x08
    6632:	b1 87       	std	Z+9, r27	; 0x09
    6634:	0e 94 03 2c 	call	0x5806	; 0x5806 <xprintf>
    6638:	2d b7       	in	r18, 0x3d	; 61
    663a:	3e b7       	in	r19, 0x3e	; 62
    663c:	26 5f       	subi	r18, 0xF6	; 246
    663e:	3f 4f       	sbci	r19, 0xFF	; 255
    6640:	9a cf       	rjmp	.-204    	; 0x6576 <main+0xca8>
    6642:	ce 01       	movw	r24, r28
    6644:	04 96       	adiw	r24, 0x04	; 4
    6646:	be 01       	movw	r22, r28
    6648:	66 5e       	subi	r22, 0xE6	; 230
    664a:	7f 4f       	sbci	r23, 0xFF	; 255
    664c:	0e 94 0c 2c 	call	0x5818	; 0x5818 <xatoi>
    6650:	88 23       	and	r24, r24
    6652:	09 f4       	brne	.+2      	; 0x6656 <main+0xd88>
    6654:	c9 c9       	rjmp	.-3182   	; 0x59e8 <main+0x11a>
    6656:	1e 8a       	std	Y+22, r1	; 0x16
    6658:	1f 8a       	std	Y+23, r1	; 0x17
    665a:	18 8e       	std	Y+24, r1	; 0x18
    665c:	19 8e       	std	Y+25, r1	; 0x19
    665e:	f8 94       	cli
    6660:	10 92 84 0d 	sts	0x0D84, r1
    6664:	10 92 85 0d 	sts	0x0D85, r1
    6668:	10 92 86 0d 	sts	0x0D86, r1
    666c:	10 92 87 0d 	sts	0x0D87, r1
    6670:	78 94       	sei
    6672:	c1 2c       	mov	r12, r1
    6674:	94 e0       	ldi	r25, 0x04	; 4
    6676:	d9 2e       	mov	r13, r25
    6678:	e1 2c       	mov	r14, r1
    667a:	f1 2c       	mov	r15, r1
    667c:	4a c0       	rjmp	.+148    	; 0x6712 <main+0xe44>
    667e:	80 30       	cpi	r24, 0x00	; 0
    6680:	34 e0       	ldi	r19, 0x04	; 4
    6682:	93 07       	cpc	r25, r19
    6684:	30 e0       	ldi	r19, 0x00	; 0
    6686:	a3 07       	cpc	r26, r19
    6688:	30 e0       	ldi	r19, 0x00	; 0
    668a:	b3 07       	cpc	r27, r19
    668c:	6c f0       	brlt	.+26     	; 0x66a8 <main+0xdda>
    668e:	ce 82       	std	Y+6, r12	; 0x06
    6690:	df 82       	std	Y+7, r13	; 0x07
    6692:	e8 86       	std	Y+8, r14	; 0x08
    6694:	f9 86       	std	Y+9, r15	; 0x09
    6696:	80 50       	subi	r24, 0x00	; 0
    6698:	94 40       	sbci	r25, 0x04	; 4
    669a:	a0 40       	sbci	r26, 0x00	; 0
    669c:	b0 40       	sbci	r27, 0x00	; 0
    669e:	8a 8f       	std	Y+26, r24	; 0x1a
    66a0:	9b 8f       	std	Y+27, r25	; 0x1b
    66a2:	ac 8f       	std	Y+28, r26	; 0x1c
    66a4:	bd 8f       	std	Y+29, r27	; 0x1d
    66a6:	0a c0       	rjmp	.+20     	; 0x66bc <main+0xdee>
    66a8:	a0 e0       	ldi	r26, 0x00	; 0
    66aa:	b0 e0       	ldi	r27, 0x00	; 0
    66ac:	8e 83       	std	Y+6, r24	; 0x06
    66ae:	9f 83       	std	Y+7, r25	; 0x07
    66b0:	a8 87       	std	Y+8, r26	; 0x08
    66b2:	b9 87       	std	Y+9, r27	; 0x09
    66b4:	1a 8e       	std	Y+26, r1	; 0x1a
    66b6:	1b 8e       	std	Y+27, r1	; 0x1b
    66b8:	1c 8e       	std	Y+28, r1	; 0x1c
    66ba:	1d 8e       	std	Y+29, r1	; 0x1d
    66bc:	2e 81       	ldd	r18, Y+6	; 0x06
    66be:	3f 81       	ldd	r19, Y+7	; 0x07
    66c0:	48 85       	ldd	r20, Y+8	; 0x08
    66c2:	59 85       	ldd	r21, Y+9	; 0x09
    66c4:	85 ed       	ldi	r24, 0xD5	; 213
    66c6:	94 e0       	ldi	r25, 0x04	; 4
    66c8:	6a e1       	ldi	r22, 0x1A	; 26
    66ca:	79 e0       	ldi	r23, 0x09	; 9
    66cc:	8e 01       	movw	r16, r28
    66ce:	06 5f       	subi	r16, 0xF6	; 246
    66d0:	1f 4f       	sbci	r17, 0xFF	; 255
    66d2:	0e 94 65 19 	call	0x32ca	; 0x32ca <f_read>
    66d6:	88 23       	and	r24, r24
    66d8:	19 f0       	breq	.+6      	; 0x66e0 <main+0xe12>
    66da:	0e 94 fa 26 	call	0x4df4	; 0x4df4 <put_rc>
    66de:	22 c0       	rjmp	.+68     	; 0x6724 <main+0xe56>
    66e0:	4a 85       	ldd	r20, Y+10	; 0x0a
    66e2:	5b 85       	ldd	r21, Y+11	; 0x0b
    66e4:	6c 85       	ldd	r22, Y+12	; 0x0c
    66e6:	7d 85       	ldd	r23, Y+13	; 0x0d
    66e8:	8e 89       	ldd	r24, Y+22	; 0x16
    66ea:	9f 89       	ldd	r25, Y+23	; 0x17
    66ec:	a8 8d       	ldd	r26, Y+24	; 0x18
    66ee:	b9 8d       	ldd	r27, Y+25	; 0x19
    66f0:	84 0f       	add	r24, r20
    66f2:	95 1f       	adc	r25, r21
    66f4:	a6 1f       	adc	r26, r22
    66f6:	b7 1f       	adc	r27, r23
    66f8:	8e 8b       	std	Y+22, r24	; 0x16
    66fa:	9f 8b       	std	Y+23, r25	; 0x17
    66fc:	a8 8f       	std	Y+24, r26	; 0x18
    66fe:	b9 8f       	std	Y+25, r27	; 0x19
    6700:	8e 81       	ldd	r24, Y+6	; 0x06
    6702:	9f 81       	ldd	r25, Y+7	; 0x07
    6704:	a8 85       	ldd	r26, Y+8	; 0x08
    6706:	b9 85       	ldd	r27, Y+9	; 0x09
    6708:	84 17       	cp	r24, r20
    670a:	95 07       	cpc	r25, r21
    670c:	a6 07       	cpc	r26, r22
    670e:	b7 07       	cpc	r27, r23
    6710:	49 f4       	brne	.+18     	; 0x6724 <main+0xe56>
    6712:	8a 8d       	ldd	r24, Y+26	; 0x1a
    6714:	9b 8d       	ldd	r25, Y+27	; 0x1b
    6716:	ac 8d       	ldd	r26, Y+28	; 0x1c
    6718:	bd 8d       	ldd	r27, Y+29	; 0x1d
    671a:	00 97       	sbiw	r24, 0x00	; 0
    671c:	a1 05       	cpc	r26, r1
    671e:	b1 05       	cpc	r27, r1
    6720:	09 f0       	breq	.+2      	; 0x6724 <main+0xe56>
    6722:	ad cf       	rjmp	.-166    	; 0x667e <main+0xdb0>
    6724:	f8 94       	cli
    6726:	80 91 84 0d 	lds	r24, 0x0D84
    672a:	90 91 85 0d 	lds	r25, 0x0D85
    672e:	a0 91 86 0d 	lds	r26, 0x0D86
    6732:	b0 91 87 0d 	lds	r27, 0x0D87
    6736:	8a 87       	std	Y+10, r24	; 0x0a
    6738:	9b 87       	std	Y+11, r25	; 0x0b
    673a:	ac 87       	std	Y+12, r26	; 0x0c
    673c:	bd 87       	std	Y+13, r27	; 0x0d
    673e:	78 94       	sei
    6740:	8e 88       	ldd	r8, Y+22	; 0x16
    6742:	9f 88       	ldd	r9, Y+23	; 0x17
    6744:	a8 8c       	ldd	r10, Y+24	; 0x18
    6746:	b9 8c       	ldd	r11, Y+25	; 0x19
    6748:	ca 84       	ldd	r12, Y+10	; 0x0a
    674a:	db 84       	ldd	r13, Y+11	; 0x0b
    674c:	ec 84       	ldd	r14, Y+12	; 0x0c
    674e:	fd 84       	ldd	r15, Y+13	; 0x0d
    6750:	c1 14       	cp	r12, r1
    6752:	d1 04       	cpc	r13, r1
    6754:	e1 04       	cpc	r14, r1
    6756:	f1 04       	cpc	r15, r1
    6758:	79 f0       	breq	.+30     	; 0x6778 <main+0xeaa>
    675a:	c5 01       	movw	r24, r10
    675c:	b4 01       	movw	r22, r8
    675e:	24 e6       	ldi	r18, 0x64	; 100
    6760:	30 e0       	ldi	r19, 0x00	; 0
    6762:	40 e0       	ldi	r20, 0x00	; 0
    6764:	50 e0       	ldi	r21, 0x00	; 0
    6766:	0e 94 5c 37 	call	0x6eb8	; 0x6eb8 <__mulsi3>
    676a:	a7 01       	movw	r20, r14
    676c:	96 01       	movw	r18, r12
    676e:	0e 94 7b 37 	call	0x6ef6	; 0x6ef6 <__udivmodsi4>
    6772:	89 01       	movw	r16, r18
    6774:	9a 01       	movw	r18, r20
    6776:	03 c0       	rjmp	.+6      	; 0x677e <main+0xeb0>
    6778:	00 e0       	ldi	r16, 0x00	; 0
    677a:	10 e0       	ldi	r17, 0x00	; 0
    677c:	98 01       	movw	r18, r16
    677e:	4d b7       	in	r20, 0x3d	; 61
    6780:	5e b7       	in	r21, 0x3e	; 62
    6782:	4a 50       	subi	r20, 0x0A	; 10
    6784:	50 40       	sbci	r21, 0x00	; 0
    6786:	0f b6       	in	r0, 0x3f	; 63
    6788:	f8 94       	cli
    678a:	5e bf       	out	0x3e, r21	; 62
    678c:	0f be       	out	0x3f, r0	; 63
    678e:	4d bf       	out	0x3d, r20	; 61
    6790:	ed b7       	in	r30, 0x3d	; 61
    6792:	fe b7       	in	r31, 0x3e	; 62
    6794:	31 96       	adiw	r30, 0x01	; 1
    6796:	8d ed       	ldi	r24, 0xDD	; 221
    6798:	93 e0       	ldi	r25, 0x03	; 3
    679a:	24 c1       	rjmp	.+584    	; 0x69e4 <main+0x1116>
    679c:	ce 01       	movw	r24, r28
    679e:	04 96       	adiw	r24, 0x04	; 4
    67a0:	be 01       	movw	r22, r28
    67a2:	66 5e       	subi	r22, 0xE6	; 230
    67a4:	7f 4f       	sbci	r23, 0xFF	; 255
    67a6:	0e 94 0c 2c 	call	0x5818	; 0x5818 <xatoi>
    67aa:	88 23       	and	r24, r24
    67ac:	09 f4       	brne	.+2      	; 0x67b0 <main+0xee2>
    67ae:	1c c9       	rjmp	.-3528   	; 0x59e8 <main+0x11a>
    67b0:	c0 90 db 04 	lds	r12, 0x04DB
    67b4:	d0 90 dc 04 	lds	r13, 0x04DC
    67b8:	e0 90 dd 04 	lds	r14, 0x04DD
    67bc:	f0 90 de 04 	lds	r15, 0x04DE
    67c0:	80 e1       	ldi	r24, 0x10	; 16
    67c2:	88 2e       	mov	r8, r24
    67c4:	91 2c       	mov	r9, r1
    67c6:	a1 2c       	mov	r10, r1
    67c8:	b1 2c       	mov	r11, r1
    67ca:	44 c0       	rjmp	.+136    	; 0x6854 <main+0xf86>
    67cc:	80 31       	cpi	r24, 0x10	; 16
    67ce:	91 05       	cpc	r25, r1
    67d0:	a1 05       	cpc	r26, r1
    67d2:	b1 05       	cpc	r27, r1
    67d4:	64 f0       	brlt	.+24     	; 0x67ee <main+0xf20>
    67d6:	8e 82       	std	Y+6, r8	; 0x06
    67d8:	9f 82       	std	Y+7, r9	; 0x07
    67da:	a8 86       	std	Y+8, r10	; 0x08
    67dc:	b9 86       	std	Y+9, r11	; 0x09
    67de:	40 97       	sbiw	r24, 0x10	; 16
    67e0:	a1 09       	sbc	r26, r1
    67e2:	b1 09       	sbc	r27, r1
    67e4:	8a 8f       	std	Y+26, r24	; 0x1a
    67e6:	9b 8f       	std	Y+27, r25	; 0x1b
    67e8:	ac 8f       	std	Y+28, r26	; 0x1c
    67ea:	bd 8f       	std	Y+29, r27	; 0x1d
    67ec:	0a c0       	rjmp	.+20     	; 0x6802 <main+0xf34>
    67ee:	a0 e0       	ldi	r26, 0x00	; 0
    67f0:	b0 e0       	ldi	r27, 0x00	; 0
    67f2:	8e 83       	std	Y+6, r24	; 0x06
    67f4:	9f 83       	std	Y+7, r25	; 0x07
    67f6:	a8 87       	std	Y+8, r26	; 0x08
    67f8:	b9 87       	std	Y+9, r27	; 0x09
    67fa:	1a 8e       	std	Y+26, r1	; 0x1a
    67fc:	1b 8e       	std	Y+27, r1	; 0x1b
    67fe:	1c 8e       	std	Y+28, r1	; 0x1c
    6800:	1d 8e       	std	Y+29, r1	; 0x1d
    6802:	2e 81       	ldd	r18, Y+6	; 0x06
    6804:	3f 81       	ldd	r19, Y+7	; 0x07
    6806:	48 85       	ldd	r20, Y+8	; 0x08
    6808:	59 85       	ldd	r21, Y+9	; 0x09
    680a:	85 ed       	ldi	r24, 0xD5	; 213
    680c:	94 e0       	ldi	r25, 0x04	; 4
    680e:	6a e1       	ldi	r22, 0x1A	; 26
    6810:	79 e0       	ldi	r23, 0x09	; 9
    6812:	8e 01       	movw	r16, r28
    6814:	0a 5f       	subi	r16, 0xFA	; 250
    6816:	1f 4f       	sbci	r17, 0xFF	; 255
    6818:	0e 94 65 19 	call	0x32ca	; 0x32ca <f_read>
    681c:	88 23       	and	r24, r24
    681e:	09 f0       	breq	.+2      	; 0x6822 <main+0xf54>
    6820:	33 c3       	rjmp	.+1638   	; 0x6e88 <main+0x15ba>
    6822:	0e 81       	ldd	r16, Y+6	; 0x06
    6824:	1f 81       	ldd	r17, Y+7	; 0x07
    6826:	28 85       	ldd	r18, Y+8	; 0x08
    6828:	39 85       	ldd	r19, Y+9	; 0x09
    682a:	01 15       	cp	r16, r1
    682c:	11 05       	cpc	r17, r1
    682e:	21 05       	cpc	r18, r1
    6830:	31 05       	cpc	r19, r1
    6832:	09 f4       	brne	.+2      	; 0x6836 <main+0xf68>
    6834:	d9 c8       	rjmp	.-3662   	; 0x59e8 <main+0x11a>
    6836:	8a e1       	ldi	r24, 0x1A	; 26
    6838:	99 e0       	ldi	r25, 0x09	; 9
    683a:	b7 01       	movw	r22, r14
    683c:	a6 01       	movw	r20, r12
    683e:	20 2f       	mov	r18, r16
    6840:	0e 94 28 27 	call	0x4e50	; 0x4e50 <put_dump>
    6844:	20 e1       	ldi	r18, 0x10	; 16
    6846:	30 e0       	ldi	r19, 0x00	; 0
    6848:	40 e0       	ldi	r20, 0x00	; 0
    684a:	50 e0       	ldi	r21, 0x00	; 0
    684c:	c2 0e       	add	r12, r18
    684e:	d3 1e       	adc	r13, r19
    6850:	e4 1e       	adc	r14, r20
    6852:	f5 1e       	adc	r15, r21
    6854:	8a 8d       	ldd	r24, Y+26	; 0x1a
    6856:	9b 8d       	ldd	r25, Y+27	; 0x1b
    6858:	ac 8d       	ldd	r26, Y+28	; 0x1c
    685a:	bd 8d       	ldd	r27, Y+29	; 0x1d
    685c:	00 97       	sbiw	r24, 0x00	; 0
    685e:	a1 05       	cpc	r26, r1
    6860:	b1 05       	cpc	r27, r1
    6862:	09 f0       	breq	.+2      	; 0x6866 <main+0xf98>
    6864:	b3 cf       	rjmp	.-154    	; 0x67cc <main+0xefe>
    6866:	c0 c8       	rjmp	.-3712   	; 0x59e8 <main+0x11a>
    6868:	ce 01       	movw	r24, r28
    686a:	04 96       	adiw	r24, 0x04	; 4
    686c:	be 01       	movw	r22, r28
    686e:	66 5e       	subi	r22, 0xE6	; 230
    6870:	7f 4f       	sbci	r23, 0xFF	; 255
    6872:	0e 94 0c 2c 	call	0x5818	; 0x5818 <xatoi>
    6876:	88 23       	and	r24, r24
    6878:	09 f4       	brne	.+2      	; 0x687c <main+0xfae>
    687a:	b6 c8       	rjmp	.-3732   	; 0x59e8 <main+0x11a>
    687c:	ce 01       	movw	r24, r28
    687e:	04 96       	adiw	r24, 0x04	; 4
    6880:	be 01       	movw	r22, r28
    6882:	6a 5e       	subi	r22, 0xEA	; 234
    6884:	7f 4f       	sbci	r23, 0xFF	; 255
    6886:	0e 94 0c 2c 	call	0x5818	; 0x5818 <xatoi>
    688a:	88 23       	and	r24, r24
    688c:	09 f4       	brne	.+2      	; 0x6890 <main+0xfc2>
    688e:	ac c8       	rjmp	.-3752   	; 0x59e8 <main+0x11a>
    6890:	6e 89       	ldd	r22, Y+22	; 0x16
    6892:	8a e1       	ldi	r24, 0x1A	; 26
    6894:	99 e0       	ldi	r25, 0x09	; 9
    6896:	70 e0       	ldi	r23, 0x00	; 0
    6898:	40 e0       	ldi	r20, 0x00	; 0
    689a:	54 e0       	ldi	r21, 0x04	; 4
    689c:	0e 94 b8 37 	call	0x6f70	; 0x6f70 <memset>
    68a0:	1e 8a       	std	Y+22, r1	; 0x16
    68a2:	1f 8a       	std	Y+23, r1	; 0x17
    68a4:	18 8e       	std	Y+24, r1	; 0x18
    68a6:	19 8e       	std	Y+25, r1	; 0x19
    68a8:	f8 94       	cli
    68aa:	10 92 84 0d 	sts	0x0D84, r1
    68ae:	10 92 85 0d 	sts	0x0D85, r1
    68b2:	10 92 86 0d 	sts	0x0D86, r1
    68b6:	10 92 87 0d 	sts	0x0D87, r1
    68ba:	78 94       	sei
    68bc:	c1 2c       	mov	r12, r1
    68be:	04 e0       	ldi	r16, 0x04	; 4
    68c0:	d0 2e       	mov	r13, r16
    68c2:	e1 2c       	mov	r14, r1
    68c4:	f1 2c       	mov	r15, r1
    68c6:	4a c0       	rjmp	.+148    	; 0x695c <main+0x108e>
    68c8:	80 30       	cpi	r24, 0x00	; 0
    68ca:	34 e0       	ldi	r19, 0x04	; 4
    68cc:	93 07       	cpc	r25, r19
    68ce:	30 e0       	ldi	r19, 0x00	; 0
    68d0:	a3 07       	cpc	r26, r19
    68d2:	30 e0       	ldi	r19, 0x00	; 0
    68d4:	b3 07       	cpc	r27, r19
    68d6:	6c f0       	brlt	.+26     	; 0x68f2 <main+0x1024>
    68d8:	ce 82       	std	Y+6, r12	; 0x06
    68da:	df 82       	std	Y+7, r13	; 0x07
    68dc:	e8 86       	std	Y+8, r14	; 0x08
    68de:	f9 86       	std	Y+9, r15	; 0x09
    68e0:	80 50       	subi	r24, 0x00	; 0
    68e2:	94 40       	sbci	r25, 0x04	; 4
    68e4:	a0 40       	sbci	r26, 0x00	; 0
    68e6:	b0 40       	sbci	r27, 0x00	; 0
    68e8:	8a 8f       	std	Y+26, r24	; 0x1a
    68ea:	9b 8f       	std	Y+27, r25	; 0x1b
    68ec:	ac 8f       	std	Y+28, r26	; 0x1c
    68ee:	bd 8f       	std	Y+29, r27	; 0x1d
    68f0:	0a c0       	rjmp	.+20     	; 0x6906 <main+0x1038>
    68f2:	a0 e0       	ldi	r26, 0x00	; 0
    68f4:	b0 e0       	ldi	r27, 0x00	; 0
    68f6:	8e 83       	std	Y+6, r24	; 0x06
    68f8:	9f 83       	std	Y+7, r25	; 0x07
    68fa:	a8 87       	std	Y+8, r26	; 0x08
    68fc:	b9 87       	std	Y+9, r27	; 0x09
    68fe:	1a 8e       	std	Y+26, r1	; 0x1a
    6900:	1b 8e       	std	Y+27, r1	; 0x1b
    6902:	1c 8e       	std	Y+28, r1	; 0x1c
    6904:	1d 8e       	std	Y+29, r1	; 0x1d
    6906:	2e 81       	ldd	r18, Y+6	; 0x06
    6908:	3f 81       	ldd	r19, Y+7	; 0x07
    690a:	48 85       	ldd	r20, Y+8	; 0x08
    690c:	59 85       	ldd	r21, Y+9	; 0x09
    690e:	85 ed       	ldi	r24, 0xD5	; 213
    6910:	94 e0       	ldi	r25, 0x04	; 4
    6912:	6a e1       	ldi	r22, 0x1A	; 26
    6914:	79 e0       	ldi	r23, 0x09	; 9
    6916:	8e 01       	movw	r16, r28
    6918:	06 5f       	subi	r16, 0xF6	; 246
    691a:	1f 4f       	sbci	r17, 0xFF	; 255
    691c:	0e 94 5d 1b 	call	0x36ba	; 0x36ba <f_write>
    6920:	88 23       	and	r24, r24
    6922:	19 f0       	breq	.+6      	; 0x692a <main+0x105c>
    6924:	0e 94 fa 26 	call	0x4df4	; 0x4df4 <put_rc>
    6928:	22 c0       	rjmp	.+68     	; 0x696e <main+0x10a0>
    692a:	4a 85       	ldd	r20, Y+10	; 0x0a
    692c:	5b 85       	ldd	r21, Y+11	; 0x0b
    692e:	6c 85       	ldd	r22, Y+12	; 0x0c
    6930:	7d 85       	ldd	r23, Y+13	; 0x0d
    6932:	8e 89       	ldd	r24, Y+22	; 0x16
    6934:	9f 89       	ldd	r25, Y+23	; 0x17
    6936:	a8 8d       	ldd	r26, Y+24	; 0x18
    6938:	b9 8d       	ldd	r27, Y+25	; 0x19
    693a:	84 0f       	add	r24, r20
    693c:	95 1f       	adc	r25, r21
    693e:	a6 1f       	adc	r26, r22
    6940:	b7 1f       	adc	r27, r23
    6942:	8e 8b       	std	Y+22, r24	; 0x16
    6944:	9f 8b       	std	Y+23, r25	; 0x17
    6946:	a8 8f       	std	Y+24, r26	; 0x18
    6948:	b9 8f       	std	Y+25, r27	; 0x19
    694a:	8e 81       	ldd	r24, Y+6	; 0x06
    694c:	9f 81       	ldd	r25, Y+7	; 0x07
    694e:	a8 85       	ldd	r26, Y+8	; 0x08
    6950:	b9 85       	ldd	r27, Y+9	; 0x09
    6952:	84 17       	cp	r24, r20
    6954:	95 07       	cpc	r25, r21
    6956:	a6 07       	cpc	r26, r22
    6958:	b7 07       	cpc	r27, r23
    695a:	49 f4       	brne	.+18     	; 0x696e <main+0x10a0>
    695c:	8a 8d       	ldd	r24, Y+26	; 0x1a
    695e:	9b 8d       	ldd	r25, Y+27	; 0x1b
    6960:	ac 8d       	ldd	r26, Y+28	; 0x1c
    6962:	bd 8d       	ldd	r27, Y+29	; 0x1d
    6964:	00 97       	sbiw	r24, 0x00	; 0
    6966:	a1 05       	cpc	r26, r1
    6968:	b1 05       	cpc	r27, r1
    696a:	09 f0       	breq	.+2      	; 0x696e <main+0x10a0>
    696c:	ad cf       	rjmp	.-166    	; 0x68c8 <main+0xffa>
    696e:	f8 94       	cli
    6970:	80 91 84 0d 	lds	r24, 0x0D84
    6974:	90 91 85 0d 	lds	r25, 0x0D85
    6978:	a0 91 86 0d 	lds	r26, 0x0D86
    697c:	b0 91 87 0d 	lds	r27, 0x0D87
    6980:	8a 87       	std	Y+10, r24	; 0x0a
    6982:	9b 87       	std	Y+11, r25	; 0x0b
    6984:	ac 87       	std	Y+12, r26	; 0x0c
    6986:	bd 87       	std	Y+13, r27	; 0x0d
    6988:	78 94       	sei
    698a:	8e 88       	ldd	r8, Y+22	; 0x16
    698c:	9f 88       	ldd	r9, Y+23	; 0x17
    698e:	a8 8c       	ldd	r10, Y+24	; 0x18
    6990:	b9 8c       	ldd	r11, Y+25	; 0x19
    6992:	ca 84       	ldd	r12, Y+10	; 0x0a
    6994:	db 84       	ldd	r13, Y+11	; 0x0b
    6996:	ec 84       	ldd	r14, Y+12	; 0x0c
    6998:	fd 84       	ldd	r15, Y+13	; 0x0d
    699a:	c1 14       	cp	r12, r1
    699c:	d1 04       	cpc	r13, r1
    699e:	e1 04       	cpc	r14, r1
    69a0:	f1 04       	cpc	r15, r1
    69a2:	79 f0       	breq	.+30     	; 0x69c2 <main+0x10f4>
    69a4:	c5 01       	movw	r24, r10
    69a6:	b4 01       	movw	r22, r8
    69a8:	24 e6       	ldi	r18, 0x64	; 100
    69aa:	30 e0       	ldi	r19, 0x00	; 0
    69ac:	40 e0       	ldi	r20, 0x00	; 0
    69ae:	50 e0       	ldi	r21, 0x00	; 0
    69b0:	0e 94 5c 37 	call	0x6eb8	; 0x6eb8 <__mulsi3>
    69b4:	a7 01       	movw	r20, r14
    69b6:	96 01       	movw	r18, r12
    69b8:	0e 94 7b 37 	call	0x6ef6	; 0x6ef6 <__udivmodsi4>
    69bc:	89 01       	movw	r16, r18
    69be:	9a 01       	movw	r18, r20
    69c0:	03 c0       	rjmp	.+6      	; 0x69c8 <main+0x10fa>
    69c2:	00 e0       	ldi	r16, 0x00	; 0
    69c4:	10 e0       	ldi	r17, 0x00	; 0
    69c6:	98 01       	movw	r18, r16
    69c8:	4d b7       	in	r20, 0x3d	; 61
    69ca:	5e b7       	in	r21, 0x3e	; 62
    69cc:	4a 50       	subi	r20, 0x0A	; 10
    69ce:	50 40       	sbci	r21, 0x00	; 0
    69d0:	0f b6       	in	r0, 0x3f	; 63
    69d2:	f8 94       	cli
    69d4:	5e bf       	out	0x3e, r21	; 62
    69d6:	0f be       	out	0x3f, r0	; 63
    69d8:	4d bf       	out	0x3d, r20	; 61
    69da:	ed b7       	in	r30, 0x3d	; 61
    69dc:	fe b7       	in	r31, 0x3e	; 62
    69de:	31 96       	adiw	r30, 0x01	; 1
    69e0:	81 e0       	ldi	r24, 0x01	; 1
    69e2:	94 e0       	ldi	r25, 0x04	; 4
    69e4:	ad b7       	in	r26, 0x3d	; 61
    69e6:	be b7       	in	r27, 0x3e	; 62
    69e8:	12 96       	adiw	r26, 0x02	; 2
    69ea:	9c 93       	st	X, r25
    69ec:	8e 93       	st	-X, r24
    69ee:	11 97       	sbiw	r26, 0x01	; 1
    69f0:	82 82       	std	Z+2, r8	; 0x02
    69f2:	93 82       	std	Z+3, r9	; 0x03
    69f4:	a4 82       	std	Z+4, r10	; 0x04
    69f6:	b5 82       	std	Z+5, r11	; 0x05
    69f8:	06 83       	std	Z+6, r16	; 0x06
    69fa:	17 83       	std	Z+7, r17	; 0x07
    69fc:	20 87       	std	Z+8, r18	; 0x08
    69fe:	31 87       	std	Z+9, r19	; 0x09
    6a00:	0e 94 03 2c 	call	0x5806	; 0x5806 <xprintf>
    6a04:	ed b7       	in	r30, 0x3d	; 61
    6a06:	fe b7       	in	r31, 0x3e	; 62
    6a08:	3a 96       	adiw	r30, 0x0a	; 10
    6a0a:	0f b6       	in	r0, 0x3f	; 63
    6a0c:	f8 94       	cli
    6a0e:	fe bf       	out	0x3e, r31	; 62
    6a10:	0f be       	out	0x3f, r0	; 63
    6a12:	ed bf       	out	0x3d, r30	; 61
    6a14:	0c 94 f4 2c 	jmp	0x59e8	; 0x59e8 <main+0x11a>
    6a18:	85 ed       	ldi	r24, 0xD5	; 213
    6a1a:	94 e0       	ldi	r25, 0x04	; 4
    6a1c:	6a e9       	ldi	r22, 0x9A	; 154
    6a1e:	71 e0       	ldi	r23, 0x01	; 1
    6a20:	2d e0       	ldi	r18, 0x0D	; 13
    6a22:	30 e0       	ldi	r19, 0x00	; 0
    6a24:	40 e0       	ldi	r20, 0x00	; 0
    6a26:	50 e0       	ldi	r21, 0x00	; 0
    6a28:	8e 01       	movw	r16, r28
    6a2a:	02 5f       	subi	r16, 0xF2	; 242
    6a2c:	1f 4f       	sbci	r17, 0xFF	; 255
    6a2e:	0e 94 5d 1b 	call	0x36ba	; 0x36ba <f_write>
    6a32:	0c 94 f4 2c 	jmp	0x59e8	; 0x59e8 <main+0x11a>
    6a36:	85 ed       	ldi	r24, 0xD5	; 213
    6a38:	94 e0       	ldi	r25, 0x04	; 4
    6a3a:	0e 94 ad 22 	call	0x455a	; 0x455a <f_truncate>
    6a3e:	24 c2       	rjmp	.+1096   	; 0x6e88 <main+0x15ba>
    6a40:	01 96       	adiw	r24, 0x01	; 1
    6a42:	9d 83       	std	Y+5, r25	; 0x05
    6a44:	8c 83       	std	Y+4, r24	; 0x04
    6a46:	8c 81       	ldd	r24, Y+4	; 0x04
    6a48:	9d 81       	ldd	r25, Y+5	; 0x05
    6a4a:	dc 01       	movw	r26, r24
    6a4c:	2c 91       	ld	r18, X
    6a4e:	20 32       	cpi	r18, 0x20	; 32
    6a50:	b9 f3       	breq	.-18     	; 0x6a40 <main+0x1172>
    6a52:	60 e2       	ldi	r22, 0x20	; 32
    6a54:	70 e0       	ldi	r23, 0x00	; 0
    6a56:	0e 94 bf 37 	call	0x6f7e	; 0x6f7e <strchr>
    6a5a:	00 97       	sbiw	r24, 0x00	; 0
    6a5c:	11 f4       	brne	.+4      	; 0x6a62 <main+0x1194>
    6a5e:	0c 94 f4 2c 	jmp	0x59e8	; 0x59e8 <main+0x11a>
    6a62:	fc 01       	movw	r30, r24
    6a64:	11 92       	st	Z+, r1
    6a66:	bf 01       	movw	r22, r30
    6a68:	31 96       	adiw	r30, 0x01	; 1
    6a6a:	db 01       	movw	r26, r22
    6a6c:	8c 91       	ld	r24, X
    6a6e:	80 32       	cpi	r24, 0x20	; 32
    6a70:	d1 f3       	breq	.-12     	; 0x6a66 <main+0x1198>
    6a72:	8c 81       	ldd	r24, Y+4	; 0x04
    6a74:	9d 81       	ldd	r25, Y+5	; 0x05
    6a76:	0e 94 f1 25 	call	0x4be2	; 0x4be2 <f_rename>
    6a7a:	06 c2       	rjmp	.+1036   	; 0x6e88 <main+0x15ba>
    6a7c:	01 96       	adiw	r24, 0x01	; 1
    6a7e:	9d 83       	std	Y+5, r25	; 0x05
    6a80:	8c 83       	std	Y+4, r24	; 0x04
    6a82:	8c 81       	ldd	r24, Y+4	; 0x04
    6a84:	9d 81       	ldd	r25, Y+5	; 0x05
    6a86:	fc 01       	movw	r30, r24
    6a88:	20 81       	ld	r18, Z
    6a8a:	20 32       	cpi	r18, 0x20	; 32
    6a8c:	b9 f3       	breq	.-18     	; 0x6a7c <main+0x11ae>
    6a8e:	0e 94 4a 23 	call	0x4694	; 0x4694 <f_unlink>
    6a92:	fa c1       	rjmp	.+1012   	; 0x6e88 <main+0x15ba>
    6a94:	01 96       	adiw	r24, 0x01	; 1
    6a96:	9d 83       	std	Y+5, r25	; 0x05
    6a98:	8c 83       	std	Y+4, r24	; 0x04
    6a9a:	8c 81       	ldd	r24, Y+4	; 0x04
    6a9c:	9d 81       	ldd	r25, Y+5	; 0x05
    6a9e:	dc 01       	movw	r26, r24
    6aa0:	2c 91       	ld	r18, X
    6aa2:	20 32       	cpi	r18, 0x20	; 32
    6aa4:	b9 f3       	breq	.-18     	; 0x6a94 <main+0x11c6>
    6aa6:	0e 94 14 24 	call	0x4828	; 0x4828 <f_mkdir>
    6aaa:	ee c1       	rjmp	.+988    	; 0x6e88 <main+0x15ba>
    6aac:	ce 01       	movw	r24, r28
    6aae:	04 96       	adiw	r24, 0x04	; 4
    6ab0:	be 01       	movw	r22, r28
    6ab2:	66 5e       	subi	r22, 0xE6	; 230
    6ab4:	7f 4f       	sbci	r23, 0xFF	; 255
    6ab6:	0e 94 0c 2c 	call	0x5818	; 0x5818 <xatoi>
    6aba:	88 23       	and	r24, r24
    6abc:	11 f4       	brne	.+4      	; 0x6ac2 <main+0x11f4>
    6abe:	0c 94 f4 2c 	jmp	0x59e8	; 0x59e8 <main+0x11a>
    6ac2:	ce 01       	movw	r24, r28
    6ac4:	04 96       	adiw	r24, 0x04	; 4
    6ac6:	be 01       	movw	r22, r28
    6ac8:	6a 5e       	subi	r22, 0xEA	; 234
    6aca:	7f 4f       	sbci	r23, 0xFF	; 255
    6acc:	0e 94 0c 2c 	call	0x5818	; 0x5818 <xatoi>
    6ad0:	88 23       	and	r24, r24
    6ad2:	11 f4       	brne	.+4      	; 0x6ad8 <main+0x120a>
    6ad4:	0c 94 f4 2c 	jmp	0x59e8	; 0x59e8 <main+0x11a>
    6ad8:	03 c0       	rjmp	.+6      	; 0x6ae0 <main+0x1212>
    6ada:	01 96       	adiw	r24, 0x01	; 1
    6adc:	9d 83       	std	Y+5, r25	; 0x05
    6ade:	8c 83       	std	Y+4, r24	; 0x04
    6ae0:	8c 81       	ldd	r24, Y+4	; 0x04
    6ae2:	9d 81       	ldd	r25, Y+5	; 0x05
    6ae4:	fc 01       	movw	r30, r24
    6ae6:	20 81       	ld	r18, Z
    6ae8:	20 32       	cpi	r18, 0x20	; 32
    6aea:	b9 f3       	breq	.-18     	; 0x6ada <main+0x120c>
    6aec:	6a 8d       	ldd	r22, Y+26	; 0x1a
    6aee:	4e 89       	ldd	r20, Y+22	; 0x16
    6af0:	0e 94 50 25 	call	0x4aa0	; 0x4aa0 <f_chmod>
    6af4:	c9 c1       	rjmp	.+914    	; 0x6e88 <main+0x15ba>
    6af6:	ce 01       	movw	r24, r28
    6af8:	04 96       	adiw	r24, 0x04	; 4
    6afa:	be 01       	movw	r22, r28
    6afc:	66 5e       	subi	r22, 0xE6	; 230
    6afe:	7f 4f       	sbci	r23, 0xFF	; 255
    6b00:	0e 94 0c 2c 	call	0x5818	; 0x5818 <xatoi>
    6b04:	88 23       	and	r24, r24
    6b06:	11 f4       	brne	.+4      	; 0x6b0c <main+0x123e>
    6b08:	0c 94 f4 2c 	jmp	0x59e8	; 0x59e8 <main+0x11a>
    6b0c:	ce 01       	movw	r24, r28
    6b0e:	04 96       	adiw	r24, 0x04	; 4
    6b10:	be 01       	movw	r22, r28
    6b12:	6a 5e       	subi	r22, 0xEA	; 234
    6b14:	7f 4f       	sbci	r23, 0xFF	; 255
    6b16:	0e 94 0c 2c 	call	0x5818	; 0x5818 <xatoi>
    6b1a:	88 23       	and	r24, r24
    6b1c:	11 f4       	brne	.+4      	; 0x6b22 <main+0x1254>
    6b1e:	0c 94 f4 2c 	jmp	0x59e8	; 0x59e8 <main+0x11a>
    6b22:	ce 01       	movw	r24, r28
    6b24:	04 96       	adiw	r24, 0x04	; 4
    6b26:	be 01       	movw	r22, r28
    6b28:	6e 5e       	subi	r22, 0xEE	; 238
    6b2a:	7f 4f       	sbci	r23, 0xFF	; 255
    6b2c:	0e 94 0c 2c 	call	0x5818	; 0x5818 <xatoi>
    6b30:	88 23       	and	r24, r24
    6b32:	11 f4       	brne	.+4      	; 0x6b38 <main+0x126a>
    6b34:	0c 94 f4 2c 	jmp	0x59e8	; 0x59e8 <main+0x11a>
    6b38:	4a 8d       	ldd	r20, Y+26	; 0x1a
    6b3a:	5b 8d       	ldd	r21, Y+27	; 0x1b
    6b3c:	6c 8d       	ldd	r22, Y+28	; 0x1c
    6b3e:	7d 8d       	ldd	r23, Y+29	; 0x1d
    6b40:	4c 5b       	subi	r20, 0xBC	; 188
    6b42:	57 40       	sbci	r21, 0x07	; 7
    6b44:	60 40       	sbci	r22, 0x00	; 0
    6b46:	70 40       	sbci	r23, 0x00	; 0
    6b48:	a9 e0       	ldi	r26, 0x09	; 9
    6b4a:	44 0f       	add	r20, r20
    6b4c:	55 1f       	adc	r21, r21
    6b4e:	66 1f       	adc	r22, r22
    6b50:	77 1f       	adc	r23, r23
    6b52:	aa 95       	dec	r26
    6b54:	d1 f7       	brne	.-12     	; 0x6b4a <main+0x127c>
    6b56:	8e 89       	ldd	r24, Y+22	; 0x16
    6b58:	9f 89       	ldd	r25, Y+23	; 0x17
    6b5a:	a8 8d       	ldd	r26, Y+24	; 0x18
    6b5c:	b9 8d       	ldd	r27, Y+25	; 0x19
    6b5e:	8f 70       	andi	r24, 0x0F	; 15
    6b60:	90 70       	andi	r25, 0x00	; 0
    6b62:	a0 70       	andi	r26, 0x00	; 0
    6b64:	b0 70       	andi	r27, 0x00	; 0
    6b66:	15 e0       	ldi	r17, 0x05	; 5
    6b68:	88 0f       	add	r24, r24
    6b6a:	99 1f       	adc	r25, r25
    6b6c:	aa 1f       	adc	r26, r26
    6b6e:	bb 1f       	adc	r27, r27
    6b70:	1a 95       	dec	r17
    6b72:	d1 f7       	brne	.-12     	; 0x6b68 <main+0x129a>
    6b74:	84 2b       	or	r24, r20
    6b76:	95 2b       	or	r25, r21
    6b78:	2a 89       	ldd	r18, Y+18	; 0x12
    6b7a:	3b 89       	ldd	r19, Y+19	; 0x13
    6b7c:	2f 71       	andi	r18, 0x1F	; 31
    6b7e:	30 70       	andi	r19, 0x00	; 0
    6b80:	82 2b       	or	r24, r18
    6b82:	93 2b       	or	r25, r19
    6b84:	90 93 c4 04 	sts	0x04C4, r25
    6b88:	80 93 c3 04 	sts	0x04C3, r24
    6b8c:	ce 01       	movw	r24, r28
    6b8e:	04 96       	adiw	r24, 0x04	; 4
    6b90:	be 01       	movw	r22, r28
    6b92:	66 5e       	subi	r22, 0xE6	; 230
    6b94:	7f 4f       	sbci	r23, 0xFF	; 255
    6b96:	0e 94 0c 2c 	call	0x5818	; 0x5818 <xatoi>
    6b9a:	88 23       	and	r24, r24
    6b9c:	11 f4       	brne	.+4      	; 0x6ba2 <main+0x12d4>
    6b9e:	0c 94 f4 2c 	jmp	0x59e8	; 0x59e8 <main+0x11a>
    6ba2:	ce 01       	movw	r24, r28
    6ba4:	04 96       	adiw	r24, 0x04	; 4
    6ba6:	be 01       	movw	r22, r28
    6ba8:	6a 5e       	subi	r22, 0xEA	; 234
    6baa:	7f 4f       	sbci	r23, 0xFF	; 255
    6bac:	0e 94 0c 2c 	call	0x5818	; 0x5818 <xatoi>
    6bb0:	88 23       	and	r24, r24
    6bb2:	11 f4       	brne	.+4      	; 0x6bb8 <main+0x12ea>
    6bb4:	0c 94 f4 2c 	jmp	0x59e8	; 0x59e8 <main+0x11a>
    6bb8:	ce 01       	movw	r24, r28
    6bba:	04 96       	adiw	r24, 0x04	; 4
    6bbc:	be 01       	movw	r22, r28
    6bbe:	6e 5e       	subi	r22, 0xEE	; 238
    6bc0:	7f 4f       	sbci	r23, 0xFF	; 255
    6bc2:	0e 94 0c 2c 	call	0x5818	; 0x5818 <xatoi>
    6bc6:	88 23       	and	r24, r24
    6bc8:	11 f4       	brne	.+4      	; 0x6bce <main+0x1300>
    6bca:	0c 94 f4 2c 	jmp	0x59e8	; 0x59e8 <main+0x11a>
    6bce:	8e 89       	ldd	r24, Y+22	; 0x16
    6bd0:	9f 89       	ldd	r25, Y+23	; 0x17
    6bd2:	a8 8d       	ldd	r26, Y+24	; 0x18
    6bd4:	b9 8d       	ldd	r27, Y+25	; 0x19
    6bd6:	8f 73       	andi	r24, 0x3F	; 63
    6bd8:	90 70       	andi	r25, 0x00	; 0
    6bda:	a0 70       	andi	r26, 0x00	; 0
    6bdc:	b0 70       	andi	r27, 0x00	; 0
    6bde:	35 e0       	ldi	r19, 0x05	; 5
    6be0:	88 0f       	add	r24, r24
    6be2:	99 1f       	adc	r25, r25
    6be4:	aa 1f       	adc	r26, r26
    6be6:	bb 1f       	adc	r27, r27
    6be8:	3a 95       	dec	r19
    6bea:	d1 f7       	brne	.-12     	; 0x6be0 <main+0x1312>
    6bec:	4a 89       	ldd	r20, Y+18	; 0x12
    6bee:	5b 89       	ldd	r21, Y+19	; 0x13
    6bf0:	6c 89       	ldd	r22, Y+20	; 0x14
    6bf2:	7d 89       	ldd	r23, Y+21	; 0x15
    6bf4:	75 95       	asr	r23
    6bf6:	67 95       	ror	r22
    6bf8:	57 95       	ror	r21
    6bfa:	47 95       	ror	r20
    6bfc:	9a 01       	movw	r18, r20
    6bfe:	2f 71       	andi	r18, 0x1F	; 31
    6c00:	30 70       	andi	r19, 0x00	; 0
    6c02:	28 2b       	or	r18, r24
    6c04:	39 2b       	or	r19, r25
    6c06:	8a 8d       	ldd	r24, Y+26	; 0x1a
    6c08:	9b 8d       	ldd	r25, Y+27	; 0x1b
    6c0a:	ac 8d       	ldd	r26, Y+28	; 0x1c
    6c0c:	bd 8d       	ldd	r27, Y+29	; 0x1d
    6c0e:	fb e0       	ldi	r31, 0x0B	; 11
    6c10:	88 0f       	add	r24, r24
    6c12:	99 1f       	adc	r25, r25
    6c14:	aa 1f       	adc	r26, r26
    6c16:	bb 1f       	adc	r27, r27
    6c18:	fa 95       	dec	r31
    6c1a:	d1 f7       	brne	.-12     	; 0x6c10 <main+0x1342>
    6c1c:	28 2b       	or	r18, r24
    6c1e:	39 2b       	or	r19, r25
    6c20:	30 93 c6 04 	sts	0x04C6, r19
    6c24:	20 93 c5 04 	sts	0x04C5, r18
    6c28:	03 c0       	rjmp	.+6      	; 0x6c30 <main+0x1362>
    6c2a:	01 96       	adiw	r24, 0x01	; 1
    6c2c:	9d 83       	std	Y+5, r25	; 0x05
    6c2e:	8c 83       	std	Y+4, r24	; 0x04
    6c30:	8c 81       	ldd	r24, Y+4	; 0x04
    6c32:	9d 81       	ldd	r25, Y+5	; 0x05
    6c34:	dc 01       	movw	r26, r24
    6c36:	2c 91       	ld	r18, X
    6c38:	20 32       	cpi	r18, 0x20	; 32
    6c3a:	b9 f3       	breq	.-18     	; 0x6c2a <main+0x135c>
    6c3c:	6f eb       	ldi	r22, 0xBF	; 191
    6c3e:	74 e0       	ldi	r23, 0x04	; 4
    6c40:	0e 94 9d 25 	call	0x4b3a	; 0x4b3a <f_utime>
    6c44:	21 c1       	rjmp	.+578    	; 0x6e88 <main+0x15ba>
    6c46:	01 96       	adiw	r24, 0x01	; 1
    6c48:	9d 83       	std	Y+5, r25	; 0x05
    6c4a:	8c 83       	std	Y+4, r24	; 0x04
    6c4c:	8c 81       	ldd	r24, Y+4	; 0x04
    6c4e:	9d 81       	ldd	r25, Y+5	; 0x05
    6c50:	fc 01       	movw	r30, r24
    6c52:	20 81       	ld	r18, Z
    6c54:	20 32       	cpi	r18, 0x20	; 32
    6c56:	b9 f3       	breq	.-18     	; 0x6c46 <main+0x1378>
    6c58:	60 e2       	ldi	r22, 0x20	; 32
    6c5a:	70 e0       	ldi	r23, 0x00	; 0
    6c5c:	0e 94 bf 37 	call	0x6f7e	; 0x6f7e <strchr>
    6c60:	00 97       	sbiw	r24, 0x00	; 0
    6c62:	11 f4       	brne	.+4      	; 0x6c68 <main+0x139a>
    6c64:	0c 94 f4 2c 	jmp	0x59e8	; 0x59e8 <main+0x11a>
    6c68:	fc 01       	movw	r30, r24
    6c6a:	11 92       	st	Z+, r1
    6c6c:	8f 01       	movw	r16, r30
    6c6e:	31 96       	adiw	r30, 0x01	; 1
    6c70:	d8 01       	movw	r26, r16
    6c72:	8c 91       	ld	r24, X
    6c74:	80 32       	cpi	r24, 0x20	; 32
    6c76:	d1 f3       	breq	.-12     	; 0x6c6c <main+0x139e>
    6c78:	00 d0       	rcall	.+0      	; 0x6c7a <main+0x13ac>
    6c7a:	00 d0       	rcall	.+0      	; 0x6c7c <main+0x13ae>
    6c7c:	28 e2       	ldi	r18, 0x28	; 40
    6c7e:	a2 2e       	mov	r10, r18
    6c80:	24 e0       	ldi	r18, 0x04	; 4
    6c82:	b2 2e       	mov	r11, r18
    6c84:	ed b7       	in	r30, 0x3d	; 61
    6c86:	fe b7       	in	r31, 0x3e	; 62
    6c88:	b2 82       	std	Z+2, r11	; 0x02
    6c8a:	a1 82       	std	Z+1, r10	; 0x01
    6c8c:	8c 81       	ldd	r24, Y+4	; 0x04
    6c8e:	9d 81       	ldd	r25, Y+5	; 0x05
    6c90:	94 83       	std	Z+4, r25	; 0x04
    6c92:	83 83       	std	Z+3, r24	; 0x03
    6c94:	0e 94 03 2c 	call	0x5806	; 0x5806 <xprintf>
    6c98:	0f 90       	pop	r0
    6c9a:	0f 90       	pop	r0
    6c9c:	0f 90       	pop	r0
    6c9e:	0f 90       	pop	r0
    6ca0:	6c 81       	ldd	r22, Y+4	; 0x04
    6ca2:	7d 81       	ldd	r23, Y+5	; 0x05
    6ca4:	85 ed       	ldi	r24, 0xD5	; 213
    6ca6:	94 e0       	ldi	r25, 0x04	; 4
    6ca8:	41 e0       	ldi	r20, 0x01	; 1
    6caa:	0e 94 3b 18 	call	0x3076	; 0x3076 <f_open>
    6cae:	88 23       	and	r24, r24
    6cb0:	09 f0       	breq	.+2      	; 0x6cb4 <main+0x13e6>
    6cb2:	ea c0       	rjmp	.+468    	; 0x6e88 <main+0x15ba>
    6cb4:	00 d0       	rcall	.+0      	; 0x6cb6 <main+0x13e8>
    6cb6:	00 d0       	rcall	.+0      	; 0x6cb8 <main+0x13ea>
    6cb8:	e5 e3       	ldi	r30, 0x35	; 53
    6cba:	f4 e0       	ldi	r31, 0x04	; 4
    6cbc:	ad b7       	in	r26, 0x3d	; 61
    6cbe:	be b7       	in	r27, 0x3e	; 62
    6cc0:	12 96       	adiw	r26, 0x02	; 2
    6cc2:	fc 93       	st	X, r31
    6cc4:	ee 93       	st	-X, r30
    6cc6:	11 97       	sbiw	r26, 0x01	; 1
    6cc8:	14 96       	adiw	r26, 0x04	; 4
    6cca:	1c 93       	st	X, r17
    6ccc:	0e 93       	st	-X, r16
    6cce:	13 97       	sbiw	r26, 0x03	; 3
    6cd0:	0e 94 03 2c 	call	0x5806	; 0x5806 <xprintf>
    6cd4:	0f 90       	pop	r0
    6cd6:	0f 90       	pop	r0
    6cd8:	0f 90       	pop	r0
    6cda:	0f 90       	pop	r0
    6cdc:	85 ef       	ldi	r24, 0xF5	; 245
    6cde:	96 e0       	ldi	r25, 0x06	; 6
    6ce0:	b8 01       	movw	r22, r16
    6ce2:	4a e0       	ldi	r20, 0x0A	; 10
    6ce4:	0e 94 3b 18 	call	0x3076	; 0x3076 <f_open>
    6ce8:	88 23       	and	r24, r24
    6cea:	29 f0       	breq	.+10     	; 0x6cf6 <main+0x1428>
    6cec:	0e 94 fa 26 	call	0x4df4	; 0x4df4 <put_rc>
    6cf0:	85 ed       	ldi	r24, 0xD5	; 213
    6cf2:	94 e0       	ldi	r25, 0x04	; 4
    6cf4:	ab c0       	rjmp	.+342    	; 0x6e4c <main+0x157e>
    6cf6:	00 d0       	rcall	.+0      	; 0x6cf8 <main+0x142a>
    6cf8:	e4 e4       	ldi	r30, 0x44	; 68
    6cfa:	f4 e0       	ldi	r31, 0x04	; 4
    6cfc:	ad b7       	in	r26, 0x3d	; 61
    6cfe:	be b7       	in	r27, 0x3e	; 62
    6d00:	12 96       	adiw	r26, 0x02	; 2
    6d02:	fc 93       	st	X, r31
    6d04:	ee 93       	st	-X, r30
    6d06:	11 97       	sbiw	r26, 0x01	; 1
    6d08:	0e 94 03 2c 	call	0x5806	; 0x5806 <xprintf>
    6d0c:	f8 94       	cli
    6d0e:	10 92 84 0d 	sts	0x0D84, r1
    6d12:	10 92 85 0d 	sts	0x0D85, r1
    6d16:	10 92 86 0d 	sts	0x0D86, r1
    6d1a:	10 92 87 0d 	sts	0x0D87, r1
    6d1e:	78 94       	sei
    6d20:	1a 8e       	std	Y+26, r1	; 0x1a
    6d22:	1b 8e       	std	Y+27, r1	; 0x1b
    6d24:	1c 8e       	std	Y+28, r1	; 0x1c
    6d26:	1d 8e       	std	Y+29, r1	; 0x1d
    6d28:	0f 90       	pop	r0
    6d2a:	0f 90       	pop	r0
    6d2c:	85 ed       	ldi	r24, 0xD5	; 213
    6d2e:	94 e0       	ldi	r25, 0x04	; 4
    6d30:	6a e1       	ldi	r22, 0x1A	; 26
    6d32:	79 e0       	ldi	r23, 0x09	; 9
    6d34:	20 e0       	ldi	r18, 0x00	; 0
    6d36:	34 e0       	ldi	r19, 0x04	; 4
    6d38:	40 e0       	ldi	r20, 0x00	; 0
    6d3a:	50 e0       	ldi	r21, 0x00	; 0
    6d3c:	8e 01       	movw	r16, r28
    6d3e:	02 5f       	subi	r16, 0xF2	; 242
    6d40:	1f 4f       	sbci	r17, 0xFF	; 255
    6d42:	0e 94 65 19 	call	0x32ca	; 0x32ca <f_read>
    6d46:	88 23       	and	r24, r24
    6d48:	71 f5       	brne	.+92     	; 0x6da6 <main+0x14d8>
    6d4a:	2e 85       	ldd	r18, Y+14	; 0x0e
    6d4c:	3f 85       	ldd	r19, Y+15	; 0x0f
    6d4e:	48 89       	ldd	r20, Y+16	; 0x10
    6d50:	59 89       	ldd	r21, Y+17	; 0x11
    6d52:	21 15       	cp	r18, r1
    6d54:	31 05       	cpc	r19, r1
    6d56:	41 05       	cpc	r20, r1
    6d58:	51 05       	cpc	r21, r1
    6d5a:	39 f1       	breq	.+78     	; 0x6daa <main+0x14dc>
    6d5c:	85 ef       	ldi	r24, 0xF5	; 245
    6d5e:	96 e0       	ldi	r25, 0x06	; 6
    6d60:	6a e1       	ldi	r22, 0x1A	; 26
    6d62:	79 e0       	ldi	r23, 0x09	; 9
    6d64:	8e 01       	movw	r16, r28
    6d66:	06 5f       	subi	r16, 0xF6	; 246
    6d68:	1f 4f       	sbci	r17, 0xFF	; 255
    6d6a:	0e 94 5d 1b 	call	0x36ba	; 0x36ba <f_write>
    6d6e:	0a 85       	ldd	r16, Y+10	; 0x0a
    6d70:	1b 85       	ldd	r17, Y+11	; 0x0b
    6d72:	2c 85       	ldd	r18, Y+12	; 0x0c
    6d74:	3d 85       	ldd	r19, Y+13	; 0x0d
    6d76:	4a 8d       	ldd	r20, Y+26	; 0x1a
    6d78:	5b 8d       	ldd	r21, Y+27	; 0x1b
    6d7a:	6c 8d       	ldd	r22, Y+28	; 0x1c
    6d7c:	7d 8d       	ldd	r23, Y+29	; 0x1d
    6d7e:	40 0f       	add	r20, r16
    6d80:	51 1f       	adc	r21, r17
    6d82:	62 1f       	adc	r22, r18
    6d84:	73 1f       	adc	r23, r19
    6d86:	4a 8f       	std	Y+26, r20	; 0x1a
    6d88:	5b 8f       	std	Y+27, r21	; 0x1b
    6d8a:	6c 8f       	std	Y+28, r22	; 0x1c
    6d8c:	7d 8f       	std	Y+29, r23	; 0x1d
    6d8e:	88 23       	and	r24, r24
    6d90:	51 f4       	brne	.+20     	; 0x6da6 <main+0x14d8>
    6d92:	8e 85       	ldd	r24, Y+14	; 0x0e
    6d94:	9f 85       	ldd	r25, Y+15	; 0x0f
    6d96:	a8 89       	ldd	r26, Y+16	; 0x10
    6d98:	b9 89       	ldd	r27, Y+17	; 0x11
    6d9a:	08 17       	cp	r16, r24
    6d9c:	19 07       	cpc	r17, r25
    6d9e:	2a 07       	cpc	r18, r26
    6da0:	3b 07       	cpc	r19, r27
    6da2:	20 f6       	brcc	.-120    	; 0x6d2c <main+0x145e>
    6da4:	02 c0       	rjmp	.+4      	; 0x6daa <main+0x14dc>
    6da6:	0e 94 fa 26 	call	0x4df4	; 0x4df4 <put_rc>
    6daa:	f8 94       	cli
    6dac:	80 91 84 0d 	lds	r24, 0x0D84
    6db0:	90 91 85 0d 	lds	r25, 0x0D85
    6db4:	a0 91 86 0d 	lds	r26, 0x0D86
    6db8:	b0 91 87 0d 	lds	r27, 0x0D87
    6dbc:	8a 87       	std	Y+10, r24	; 0x0a
    6dbe:	9b 87       	std	Y+11, r25	; 0x0b
    6dc0:	ac 87       	std	Y+12, r26	; 0x0c
    6dc2:	bd 87       	std	Y+13, r27	; 0x0d
    6dc4:	78 94       	sei
    6dc6:	4a 8d       	ldd	r20, Y+26	; 0x1a
    6dc8:	5b 8d       	ldd	r21, Y+27	; 0x1b
    6dca:	6c 8d       	ldd	r22, Y+28	; 0x1c
    6dcc:	7d 8d       	ldd	r23, Y+29	; 0x1d
    6dce:	2d b7       	in	r18, 0x3d	; 61
    6dd0:	3e b7       	in	r19, 0x3e	; 62
    6dd2:	2a 50       	subi	r18, 0x0A	; 10
    6dd4:	30 40       	sbci	r19, 0x00	; 0
    6dd6:	0f b6       	in	r0, 0x3f	; 63
    6dd8:	f8 94       	cli
    6dda:	3e bf       	out	0x3e, r19	; 62
    6ddc:	0f be       	out	0x3f, r0	; 63
    6dde:	2d bf       	out	0x3d, r18	; 61
    6de0:	0d b7       	in	r16, 0x3d	; 61
    6de2:	1e b7       	in	r17, 0x3e	; 62
    6de4:	0f 5f       	subi	r16, 0xFF	; 255
    6de6:	1f 4f       	sbci	r17, 0xFF	; 255
    6de8:	80 e5       	ldi	r24, 0x50	; 80
    6dea:	94 e0       	ldi	r25, 0x04	; 4
    6dec:	ad b7       	in	r26, 0x3d	; 61
    6dee:	be b7       	in	r27, 0x3e	; 62
    6df0:	12 96       	adiw	r26, 0x02	; 2
    6df2:	9c 93       	st	X, r25
    6df4:	8e 93       	st	-X, r24
    6df6:	11 97       	sbiw	r26, 0x01	; 1
    6df8:	f8 01       	movw	r30, r16
    6dfa:	42 83       	std	Z+2, r20	; 0x02
    6dfc:	53 83       	std	Z+3, r21	; 0x03
    6dfe:	64 83       	std	Z+4, r22	; 0x04
    6e00:	75 83       	std	Z+5, r23	; 0x05
    6e02:	cb 01       	movw	r24, r22
    6e04:	ba 01       	movw	r22, r20
    6e06:	24 e6       	ldi	r18, 0x64	; 100
    6e08:	30 e0       	ldi	r19, 0x00	; 0
    6e0a:	40 e0       	ldi	r20, 0x00	; 0
    6e0c:	50 e0       	ldi	r21, 0x00	; 0
    6e0e:	0e 94 5c 37 	call	0x6eb8	; 0x6eb8 <__mulsi3>
    6e12:	2a 85       	ldd	r18, Y+10	; 0x0a
    6e14:	3b 85       	ldd	r19, Y+11	; 0x0b
    6e16:	4c 85       	ldd	r20, Y+12	; 0x0c
    6e18:	5d 85       	ldd	r21, Y+13	; 0x0d
    6e1a:	0e 94 7b 37 	call	0x6ef6	; 0x6ef6 <__udivmodsi4>
    6e1e:	d8 01       	movw	r26, r16
    6e20:	16 96       	adiw	r26, 0x06	; 6
    6e22:	2d 93       	st	X+, r18
    6e24:	3d 93       	st	X+, r19
    6e26:	4d 93       	st	X+, r20
    6e28:	5c 93       	st	X, r21
    6e2a:	19 97       	sbiw	r26, 0x09	; 9
    6e2c:	0e 94 03 2c 	call	0x5806	; 0x5806 <xprintf>
    6e30:	ed b7       	in	r30, 0x3d	; 61
    6e32:	fe b7       	in	r31, 0x3e	; 62
    6e34:	3a 96       	adiw	r30, 0x0a	; 10
    6e36:	0f b6       	in	r0, 0x3f	; 63
    6e38:	f8 94       	cli
    6e3a:	fe bf       	out	0x3e, r31	; 62
    6e3c:	0f be       	out	0x3f, r0	; 63
    6e3e:	ed bf       	out	0x3d, r30	; 61
    6e40:	85 ed       	ldi	r24, 0xD5	; 213
    6e42:	94 e0       	ldi	r25, 0x04	; 4
    6e44:	0e 94 03 1e 	call	0x3c06	; 0x3c06 <f_close>
    6e48:	85 ef       	ldi	r24, 0xF5	; 245
    6e4a:	96 e0       	ldi	r25, 0x06	; 6
    6e4c:	0e 94 03 1e 	call	0x3c06	; 0x3c06 <f_close>
    6e50:	0c 94 f4 2c 	jmp	0x59e8	; 0x59e8 <main+0x11a>
    6e54:	01 96       	adiw	r24, 0x01	; 1
    6e56:	9d 83       	std	Y+5, r25	; 0x05
    6e58:	8c 83       	std	Y+4, r24	; 0x04
    6e5a:	8c 81       	ldd	r24, Y+4	; 0x04
    6e5c:	9d 81       	ldd	r25, Y+5	; 0x05
    6e5e:	dc 01       	movw	r26, r24
    6e60:	2c 91       	ld	r18, X
    6e62:	20 32       	cpi	r18, 0x20	; 32
    6e64:	b9 f3       	breq	.-18     	; 0x6e54 <main+0x1586>
    6e66:	0e 94 16 1e 	call	0x3c2c	; 0x3c2c <f_chdir>
    6e6a:	0e c0       	rjmp	.+28     	; 0x6e88 <main+0x15ba>
    6e6c:	ce 01       	movw	r24, r28
    6e6e:	04 96       	adiw	r24, 0x04	; 4
    6e70:	be 01       	movw	r22, r28
    6e72:	66 5e       	subi	r22, 0xE6	; 230
    6e74:	7f 4f       	sbci	r23, 0xFF	; 255
    6e76:	0e 94 0c 2c 	call	0x5818	; 0x5818 <xatoi>
    6e7a:	88 23       	and	r24, r24
    6e7c:	11 f4       	brne	.+4      	; 0x6e82 <main+0x15b4>
    6e7e:	0c 94 f4 2c 	jmp	0x59e8	; 0x59e8 <main+0x11a>
    6e82:	8a 8d       	ldd	r24, Y+26	; 0x1a
    6e84:	0e 94 0f 1e 	call	0x3c1e	; 0x3c1e <f_chdrive>
    6e88:	0e 94 fa 26 	call	0x4df4	; 0x4df4 <put_rc>
    6e8c:	0c 94 f4 2c 	jmp	0x59e8	; 0x59e8 <main+0x11a>
    6e90:	0e 94 e1 04 	call	0x9c2	; 0x9c2 <WriteBMPHeader>
    6e94:	0e 94 06 05 	call	0xa0c	; 0xa0c <WriteDIBHeader>
    6e98:	0e 94 1e 29 	call	0x523c	; 0x523c <LoadImageToBuffer>
    6e9c:	8a e8       	ldi	r24, 0x8A	; 138
    6e9e:	90 e0       	ldi	r25, 0x00	; 0
    6ea0:	0e 94 66 29 	call	0x52cc	; 0x52cc <GetImageIfAvailiable>
    6ea4:	81 30       	cpi	r24, 0x01	; 1
    6ea6:	d1 f7       	brne	.-12     	; 0x6e9c <main+0x15ce>
    6ea8:	0c 94 f4 2c 	jmp	0x59e8	; 0x59e8 <main+0x11a>
    6eac:	87 e7       	ldi	r24, 0x77	; 119
    6eae:	94 e0       	ldi	r25, 0x04	; 4
    6eb0:	0e 94 6a 2b 	call	0x56d4	; 0x56d4 <xputs>
    6eb4:	0c 94 f4 2c 	jmp	0x59e8	; 0x59e8 <main+0x11a>

00006eb8 <__mulsi3>:
    6eb8:	62 9f       	mul	r22, r18
    6eba:	d0 01       	movw	r26, r0
    6ebc:	73 9f       	mul	r23, r19
    6ebe:	f0 01       	movw	r30, r0
    6ec0:	82 9f       	mul	r24, r18
    6ec2:	e0 0d       	add	r30, r0
    6ec4:	f1 1d       	adc	r31, r1
    6ec6:	64 9f       	mul	r22, r20
    6ec8:	e0 0d       	add	r30, r0
    6eca:	f1 1d       	adc	r31, r1
    6ecc:	92 9f       	mul	r25, r18
    6ece:	f0 0d       	add	r31, r0
    6ed0:	83 9f       	mul	r24, r19
    6ed2:	f0 0d       	add	r31, r0
    6ed4:	74 9f       	mul	r23, r20
    6ed6:	f0 0d       	add	r31, r0
    6ed8:	65 9f       	mul	r22, r21
    6eda:	f0 0d       	add	r31, r0
    6edc:	99 27       	eor	r25, r25
    6ede:	72 9f       	mul	r23, r18
    6ee0:	b0 0d       	add	r27, r0
    6ee2:	e1 1d       	adc	r30, r1
    6ee4:	f9 1f       	adc	r31, r25
    6ee6:	63 9f       	mul	r22, r19
    6ee8:	b0 0d       	add	r27, r0
    6eea:	e1 1d       	adc	r30, r1
    6eec:	f9 1f       	adc	r31, r25
    6eee:	bd 01       	movw	r22, r26
    6ef0:	cf 01       	movw	r24, r30
    6ef2:	11 24       	eor	r1, r1
    6ef4:	08 95       	ret

00006ef6 <__udivmodsi4>:
    6ef6:	a1 e2       	ldi	r26, 0x21	; 33
    6ef8:	1a 2e       	mov	r1, r26
    6efa:	aa 1b       	sub	r26, r26
    6efc:	bb 1b       	sub	r27, r27
    6efe:	fd 01       	movw	r30, r26
    6f00:	0d c0       	rjmp	.+26     	; 0x6f1c <__udivmodsi4_ep>

00006f02 <__udivmodsi4_loop>:
    6f02:	aa 1f       	adc	r26, r26
    6f04:	bb 1f       	adc	r27, r27
    6f06:	ee 1f       	adc	r30, r30
    6f08:	ff 1f       	adc	r31, r31
    6f0a:	a2 17       	cp	r26, r18
    6f0c:	b3 07       	cpc	r27, r19
    6f0e:	e4 07       	cpc	r30, r20
    6f10:	f5 07       	cpc	r31, r21
    6f12:	20 f0       	brcs	.+8      	; 0x6f1c <__udivmodsi4_ep>
    6f14:	a2 1b       	sub	r26, r18
    6f16:	b3 0b       	sbc	r27, r19
    6f18:	e4 0b       	sbc	r30, r20
    6f1a:	f5 0b       	sbc	r31, r21

00006f1c <__udivmodsi4_ep>:
    6f1c:	66 1f       	adc	r22, r22
    6f1e:	77 1f       	adc	r23, r23
    6f20:	88 1f       	adc	r24, r24
    6f22:	99 1f       	adc	r25, r25
    6f24:	1a 94       	dec	r1
    6f26:	69 f7       	brne	.-38     	; 0x6f02 <__udivmodsi4_loop>
    6f28:	60 95       	com	r22
    6f2a:	70 95       	com	r23
    6f2c:	80 95       	com	r24
    6f2e:	90 95       	com	r25
    6f30:	9b 01       	movw	r18, r22
    6f32:	ac 01       	movw	r20, r24
    6f34:	bd 01       	movw	r22, r26
    6f36:	cf 01       	movw	r24, r30
    6f38:	08 95       	ret

00006f3a <__divmodsi4>:
    6f3a:	97 fb       	bst	r25, 7
    6f3c:	09 2e       	mov	r0, r25
    6f3e:	05 26       	eor	r0, r21
    6f40:	0e d0       	rcall	.+28     	; 0x6f5e <__divmodsi4_neg1>
    6f42:	57 fd       	sbrc	r21, 7
    6f44:	04 d0       	rcall	.+8      	; 0x6f4e <__divmodsi4_neg2>
    6f46:	d7 df       	rcall	.-82     	; 0x6ef6 <__udivmodsi4>
    6f48:	0a d0       	rcall	.+20     	; 0x6f5e <__divmodsi4_neg1>
    6f4a:	00 1c       	adc	r0, r0
    6f4c:	38 f4       	brcc	.+14     	; 0x6f5c <__divmodsi4_exit>

00006f4e <__divmodsi4_neg2>:
    6f4e:	50 95       	com	r21
    6f50:	40 95       	com	r20
    6f52:	30 95       	com	r19
    6f54:	21 95       	neg	r18
    6f56:	3f 4f       	sbci	r19, 0xFF	; 255
    6f58:	4f 4f       	sbci	r20, 0xFF	; 255
    6f5a:	5f 4f       	sbci	r21, 0xFF	; 255

00006f5c <__divmodsi4_exit>:
    6f5c:	08 95       	ret

00006f5e <__divmodsi4_neg1>:
    6f5e:	f6 f7       	brtc	.-4      	; 0x6f5c <__divmodsi4_exit>
    6f60:	90 95       	com	r25
    6f62:	80 95       	com	r24
    6f64:	70 95       	com	r23
    6f66:	61 95       	neg	r22
    6f68:	7f 4f       	sbci	r23, 0xFF	; 255
    6f6a:	8f 4f       	sbci	r24, 0xFF	; 255
    6f6c:	9f 4f       	sbci	r25, 0xFF	; 255
    6f6e:	08 95       	ret

00006f70 <memset>:
    6f70:	dc 01       	movw	r26, r24
    6f72:	01 c0       	rjmp	.+2      	; 0x6f76 <memset+0x6>
    6f74:	6d 93       	st	X+, r22
    6f76:	41 50       	subi	r20, 0x01	; 1
    6f78:	50 40       	sbci	r21, 0x00	; 0
    6f7a:	e0 f7       	brcc	.-8      	; 0x6f74 <memset+0x4>
    6f7c:	08 95       	ret

00006f7e <strchr>:
    6f7e:	fc 01       	movw	r30, r24
    6f80:	81 91       	ld	r24, Z+
    6f82:	86 17       	cp	r24, r22
    6f84:	21 f0       	breq	.+8      	; 0x6f8e <strchr+0x10>
    6f86:	88 23       	and	r24, r24
    6f88:	d9 f7       	brne	.-10     	; 0x6f80 <strchr+0x2>
    6f8a:	99 27       	eor	r25, r25
    6f8c:	08 95       	ret
    6f8e:	31 97       	sbiw	r30, 0x01	; 1
    6f90:	cf 01       	movw	r24, r30
    6f92:	08 95       	ret

00006f94 <strcpy>:
    6f94:	fb 01       	movw	r30, r22
    6f96:	dc 01       	movw	r26, r24
    6f98:	01 90       	ld	r0, Z+
    6f9a:	0d 92       	st	X+, r0
    6f9c:	00 20       	and	r0, r0
    6f9e:	e1 f7       	brne	.-8      	; 0x6f98 <strcpy+0x4>
    6fa0:	08 95       	ret

00006fa2 <__eerd_block_m644p>:
    6fa2:	dc 01       	movw	r26, r24
    6fa4:	cb 01       	movw	r24, r22

00006fa6 <__eerd_blraw_m644p>:
    6fa6:	fc 01       	movw	r30, r24
    6fa8:	f9 99       	sbic	0x1f, 1	; 31
    6faa:	fe cf       	rjmp	.-4      	; 0x6fa8 <__eerd_blraw_m644p+0x2>
    6fac:	06 c0       	rjmp	.+12     	; 0x6fba <__eerd_blraw_m644p+0x14>
    6fae:	f2 bd       	out	0x22, r31	; 34
    6fb0:	e1 bd       	out	0x21, r30	; 33
    6fb2:	f8 9a       	sbi	0x1f, 0	; 31
    6fb4:	31 96       	adiw	r30, 0x01	; 1
    6fb6:	00 b4       	in	r0, 0x20	; 32
    6fb8:	0d 92       	st	X+, r0
    6fba:	41 50       	subi	r20, 0x01	; 1
    6fbc:	50 40       	sbci	r21, 0x00	; 0
    6fbe:	b8 f7       	brcc	.-18     	; 0x6fae <__eerd_blraw_m644p+0x8>
    6fc0:	08 95       	ret

00006fc2 <_exit>:
    6fc2:	f8 94       	cli

00006fc4 <__stop_program>:
    6fc4:	ff cf       	rjmp	.-2      	; 0x6fc4 <__stop_program>
